EXPORTS
	_ZTI15PacketDrillInfo
	_ZTI25PacketDrillInfoDescriptor
	_ZTIN3osg10BufferDataE
	_ZTIN3osg10ReferencedE
	_ZTIN3osg11ImageStreamE
	_ZTIN3osg11MixinVectorINS_5Vec3fEEE
	_ZTIN3osg11MixinVectorINS_5Vec4fEEE
	_ZTIN3osg11NodeVisitorE
	_ZTIN3osg13TemplateArrayINS_5Vec3fELNS_5Array4TypeE28ELi3ELi5126EEE
	_ZTIN3osg13TemplateArrayINS_5Vec4fELNS_5Array4TypeE29ELi4ELi5126EEE
	_ZTIN3osg25PositionAttitudeTransformE
	_ZTIN3osg4NodeE
	_ZTIN3osg5ArrayE
	_ZTIN3osg5GeodeE
	_ZTIN3osg5GroupE
	_ZTIN3osg5ImageE
	_ZTIN3osg6ObjectE
	_ZTIN3osg8DrawableE
	_ZTIN3osg9TransformE
	_ZTIN4inet10BytesChunkE
	_ZTIN4inet10CareOfTestE
	_ZTIN4inet10ChunkQueueE
	_ZTIN4inet10DhcpClient11ClientStateE
	_ZTIN4inet10DhcpClientE
	_ZTIN4inet10DhcpOpcodeE
	_ZTIN4inet10DhcpServerE
	_ZTIN4inet10DscpMarkerE
	_ZTIN4inet10EchoPacketE
	_ZTIN4inet10EcnTagBaseE
	_ZTIN4inet10EmptyChunkE
	_ZTIN4inet10EtherEncapE
	_ZTIN4inet10GpsrBeaconE
	_ZTIN4inet10GpsrOptionE
	_ZTIN4inet10ILifecycleE
	_ZTIN4inet10INetfilter5IHookE
	_ZTIN4inet10INetfilterE
	_ZTIN4inet10IcmpHeaderE
	_ZTIN4inet10Icmpv6TypeE
	_ZTIN4inet10IndicationE
	_ZTIN4inet10Ipv4HeaderE
	_ZTIN4inet10Ipv4OptionE
	_ZTIN4inet10Ipv4Socket9ICallbackE
	_ZTIN4inet10Ipv4SocketE
	_ZTIN4inet10Ipv6HeaderE
	_ZTIN4inet10Ipv6SocketE
	_ZTIN4inet10LdpAddressE
	_ZTIN4inet10MacAddress27SimulationLifecycleListenerE
	_ZTIN4inet10MacAddressE
	_ZTIN4inet10MoBanLocalE
	_ZTIN4inet10MplsHeaderE
	_ZTIN4inet10NodeStatus5StateE
	_ZTIN4inet10NodeStatusE
	_ZTIN4inet10PcapReaderE
	_ZTIN4inet10PlotFigureE
	_ZTIN4inet10PolyhedronE
	_ZTIN4inet10PppTrailerE
	_ZTIN4inet10QuaternionE
	_ZTIN4inet10RipCommandE
	_ZTIN4inet10RsvpHopObjE
	_ZTIN4inet10RsvpPacketE
	_ZTIN4inet10SctpClientE
	_ZTIN4inet10SctpRcvReqE
	_ZTIN4inet10SctpRtoReqE
	_ZTIN4inet10SctpServerE
	_ZTIN4inet10SctpSocket9ICallbackE
	_ZTIN4inet10SctpSocketE
	_ZTIN4inet10SessionObjE
	_ZTIN4inet10SliceChunkE
	_ZTIN4inet10TcpAppBaseE
	_ZTIN4inet10TcpCommandE
	_ZTIN4inet10TcpEchoAppE
	_ZTIN4inet10TcpSinkAppE
	_ZTIN4inet10TlvOptionsE
	_ZTIN4inet10TosTagBaseE
	_ZTIN4inet10UdpEchoAppE
	_ZTIN4inet10VlanTunnelE
	_ZTIN4inet10visualizer10PacketDropE
	_ZTIN4inet10visualizer11LineManager10ModuleLineE
	_ZTIN4inet10visualizer11LineManager10ModulePathE
	_ZTIN4inet10visualizer14VisualizerBaseE
	_ZTIN4inet10visualizer17InfoOsgVisualizer20InfoOsgVisualizationE
	_ZTIN4inet10visualizer17InfoOsgVisualizerE
	_ZTIN4inet10visualizer18InfoVisualizerBase17DirectiveResolverE
	_ZTIN4inet10visualizer18InfoVisualizerBase17InfoVisualizationE
	_ZTIN4inet10visualizer18InfoVisualizerBaseE
	_ZTIN4inet10visualizer18LinkVisualizerBase17DirectiveResolverE
	_ZTIN4inet10visualizer18LinkVisualizerBase17LinkVisualizationE
	_ZTIN4inet10visualizer18LinkVisualizerBaseE
	_ZTIN4inet10visualizer18PathVisualizerBase17DirectiveResolverE
	_ZTIN4inet10visualizer18PathVisualizerBase17PathVisualizationE
	_ZTIN4inet10visualizer18PathVisualizerBaseE
	_ZTIN4inet10visualizer18QueueOsgVisualizer21QueueOsgVisualizationE
	_ZTIN4inet10visualizer18QueueOsgVisualizerE
	_ZTIN4inet10visualizer18RadioOsgVisualizer21RadioOsgVisualizationE
	_ZTIN4inet10visualizer18RadioOsgVisualizerE
	_ZTIN4inet10visualizer18SceneOsgVisualizerE
	_ZTIN4inet10visualizer19MediumOsgVisualizerE
	_ZTIN4inet10visualizer19QueueVisualizerBase12QueueVisitorE
	_ZTIN4inet10visualizer19QueueVisualizerBase18QueueVisualizationE
	_ZTIN4inet10visualizer19QueueVisualizerBaseE
	_ZTIN4inet10visualizer19RadioVisualizerBase18RadioVisualizationE
	_ZTIN4inet10visualizer19RadioVisualizerBaseE
	_ZTIN4inet10visualizer19SceneVisualizerBaseE
	_ZTIN4inet10visualizer20InfoCanvasVisualizer23InfoCanvasVisualizationE
	_ZTIN4inet10visualizer20InfoCanvasVisualizerE
	_ZTIN4inet10visualizer20MediumVisualizerBaseE
	_ZTIN4inet10visualizer20PacketDropDescriptorE
	_ZTIN4inet10visualizer21DataLinkOsgVisualizerE
	_ZTIN4inet10visualizer21LinkOsgVisualizerBase20LinkOsgVisualizationE
	_ZTIN4inet10visualizer21LinkOsgVisualizerBaseE
	_ZTIN4inet10visualizer21MobilityOsgVisualizerE
	_ZTIN4inet10visualizer21PathOsgVisualizerBase20PathOsgVisualizationE
	_ZTIN4inet10visualizer21PathOsgVisualizerBaseE
	_ZTIN4inet10visualizer21QueueCanvasVisualizer24QueueCanvasVisualizationE
	_ZTIN4inet10visualizer21QueueCanvasVisualizerE
	_ZTIN4inet10visualizer21RadioCanvasVisualizer24RadioCanvasVisualizationE
	_ZTIN4inet10visualizer21RadioCanvasVisualizerE
	_ZTIN4inet10visualizer21SceneCanvasVisualizerE
	_ZTIN4inet10visualizer22Ieee80211OsgVisualizer25Ieee80211OsgVisualizationE
	_ZTIN4inet10visualizer22Ieee80211OsgVisualizerE
	_ZTIN4inet10visualizer22LinkBreakOsgVisualizer25LinkBreakOsgVisualizationE
	_ZTIN4inet10visualizer22LinkBreakOsgVisualizerE
	_ZTIN4inet10visualizer22MediumCanvasVisualizerE
	_ZTIN4inet10visualizer22MobilityVisualizerBaseE
	_ZTIN4inet10visualizer22SceneOsgVisualizerBaseE
	_ZTIN4inet10visualizer22StatisticOsgVisualizerE
	_ZTIN4inet10visualizer23Ieee80211VisualizerBase22Ieee80211VisualizationE
	_ZTIN4inet10visualizer23Ieee80211VisualizerBaseE
	_ZTIN4inet10visualizer23LinkBreakVisualizerBase22LinkBreakVisualizationE
	_ZTIN4inet10visualizer23LinkBreakVisualizerBaseE
	_ZTIN4inet10visualizer23PacketDropOsgVisualizer26PacketDropOsgVisualizationE
	_ZTIN4inet10visualizer23PacketDropOsgVisualizerE
	_ZTIN4inet10visualizer23SceneOsgEarthVisualizerE
	_ZTIN4inet10visualizer23StatisticVisualizerBase17DirectiveResolverE
	_ZTIN4inet10visualizer23StatisticVisualizerBase17LastValueRecorderE
	_ZTIN4inet10visualizer23StatisticVisualizerBaseE
	_ZTIN4inet10visualizer24DataLinkCanvasVisualizerE
	_ZTIN4inet10visualizer24LinkCanvasVisualizerBase23LinkCanvasVisualizationE
	_ZTIN4inet10visualizer24LinkCanvasVisualizerBaseE
	_ZTIN4inet10visualizer24MobilityCanvasVisualizerE
	_ZTIN4inet10visualizer24NetworkNodeOsgVisualizerE
	_ZTIN4inet10visualizer24PacketDropVisualizerBase17DirectiveResolverE
	_ZTIN4inet10visualizer24PacketDropVisualizerBase23PacketDropVisualizationE
	_ZTIN4inet10visualizer24PacketDropVisualizerBaseE
	_ZTIN4inet10visualizer24PathCanvasVisualizerBase23PathCanvasVisualizationE
	_ZTIN4inet10visualizer24PathCanvasVisualizerBaseE
	_ZTIN4inet10visualizer25Ieee80211CanvasVisualizer28Ieee80211CanvasVisualizationE
	_ZTIN4inet10visualizer25Ieee80211CanvasVisualizerE
	_ZTIN4inet10visualizer25LinkBreakCanvasVisualizer28LinkBreakCanvasVisualizationE
	_ZTIN4inet10visualizer25LinkBreakCanvasVisualizerE
	_ZTIN4inet10visualizer25NetworkNodeVisualizerBase24NetworkNodeVisualizationE
	_ZTIN4inet10visualizer25NetworkNodeVisualizerBaseE
	_ZTIN4inet10visualizer25NetworkRouteOsgVisualizerE
	_ZTIN4inet10visualizer25PhysicalLinkOsgVisualizerE
	_ZTIN4inet10visualizer25RoutingTableOsgVisualizer21RouteOsgVisualizationE
	_ZTIN4inet10visualizer25RoutingTableOsgVisualizerE
	_ZTIN4inet10visualizer25StatisticCanvasVisualizerE
	_ZTIN4inet10visualizer26EnergyStorageOsgVisualizer29EnergyStorageOsgVisualizationE
	_ZTIN4inet10visualizer26EnergyStorageOsgVisualizerE
	_ZTIN4inet10visualizer26PacketDropCanvasVisualizer29PacketDropCanvasVisualizationE
	_ZTIN4inet10visualizer26PacketDropCanvasVisualizerE
	_ZTIN4inet10visualizer26RoutingTableVisualizerBase17DirectiveResolverE
	_ZTIN4inet10visualizer26RoutingTableVisualizerBase18RouteVisualizationE
	_ZTIN4inet10visualizer26RoutingTableVisualizerBaseE
	_ZTIN4inet10visualizer27EnergyStorageVisualizerBase26EnergyStorageVisualizationE
	_ZTIN4inet10visualizer27EnergyStorageVisualizerBaseE
	_ZTIN4inet10visualizer27InterfaceTableOsgVisualizer25InterfaceOsgVisualizationE
	_ZTIN4inet10visualizer27InterfaceTableOsgVisualizerE
	_ZTIN4inet10visualizer27NetworkNodeCanvasVisualizerE
	_ZTIN4inet10visualizer27NetworkNodeOsgVisualizationE
	_ZTIN4inet10visualizer27TransportRouteOsgVisualizerE
	_ZTIN4inet10visualizer28InterfaceTableVisualizerBase17DirectiveResolverE
	_ZTIN4inet10visualizer28InterfaceTableVisualizerBase22InterfaceVisualizationE
	_ZTIN4inet10visualizer28InterfaceTableVisualizerBaseE
	_ZTIN4inet10visualizer28NetworkRouteCanvasVisualizerE
	_ZTIN4inet10visualizer28PhysicalLinkCanvasVisualizerE
	_ZTIN4inet10visualizer28RoutingTableCanvasVisualizer24RouteCanvasVisualizationE
	_ZTIN4inet10visualizer28RoutingTableCanvasVisualizerE
	_ZTIN4inet10visualizer29EnergyStorageCanvasVisualizer32EnergyStorageCanvasVisualizationE
	_ZTIN4inet10visualizer29EnergyStorageCanvasVisualizerE
	_ZTIN4inet10visualizer30InterfaceTableCanvasVisualizer28InterfaceCanvasVisualizationE
	_ZTIN4inet10visualizer30InterfaceTableCanvasVisualizerE
	_ZTIN4inet10visualizer30NetworkConnectionOsgVisualizerE
	_ZTIN4inet10visualizer30NetworkNodeCanvasVisualizationE
	_ZTIN4inet10visualizer30TransportRouteCanvasVisualizerE
	_ZTIN4inet10visualizer31NetworkConnectionVisualizerBaseE
	_ZTIN4inet10visualizer32PhysicalEnvironmentOsgVisualizerE
	_ZTIN4inet10visualizer32TracingObstacleLossOsgVisualizer28ObstacleLossOsgVisualizationE
	_ZTIN4inet10visualizer32TracingObstacleLossOsgVisualizerE
	_ZTIN4inet10visualizer32TransportConnectionOsgVisualizer35TransportConnectionOsgVisualizationE
	_ZTIN4inet10visualizer32TransportConnectionOsgVisualizerE
	_ZTIN4inet10visualizer33NetworkConnectionCanvasVisualizerE
	_ZTIN4inet10visualizer33PhysicalEnvironmentVisualizerBaseE
	_ZTIN4inet10visualizer33TracingObstacleLossVisualizerBase25ObstacleLossVisualizationE
	_ZTIN4inet10visualizer33TracingObstacleLossVisualizerBaseE
	_ZTIN4inet10visualizer33TransportConnectionVisualizerBase32TransportConnectionVisualizationE
	_ZTIN4inet10visualizer33TransportConnectionVisualizerBaseE
	_ZTIN4inet10visualizer34OpenStreetMapSceneCanvasVisualizerE
	_ZTIN4inet10visualizer35PhysicalEnvironmentCanvasVisualizerE
	_ZTIN4inet10visualizer35TracingObstacleLossCanvasVisualizer31ObstacleLossCanvasVisualizationE
	_ZTIN4inet10visualizer35TracingObstacleLossCanvasVisualizerE
	_ZTIN4inet10visualizer35TransportConnectionCanvasVisualizer38TransportConnectionCanvasVisualizationE
	_ZTIN4inet10visualizer35TransportConnectionCanvasVisualizerE
	_ZTIN4inet11ChunkBuffer6RegionE
	_ZTIN4inet11ChunkBufferE
	_ZTIN4inet11ClnsAddressE
	_ZTIN4inet11DhcpMessageE
	_ZTIN4inet11DhcpOptionsE
	_ZTIN4inet11DscpTagBaseE
	_ZTIN4inet11EtherAppReqE
	_ZTIN4inet11EthernetFcsE
	_ZTIN4inet11EulerAnglesE
	_ZTIN4inet11FieldsChunkE
	_ZTIN4inet11FlowSpecObjE
	_ZTIN4inet11GaugeFigureE
	_ZTIN4inet11GroupRecordE
	_ZTIN4inet11HelloOptionE
	_ZTIN4inet11HopLimitIndE
	_ZTIN4inet11HopLimitReqE
	_ZTIN4inet11IScriptableE
	_ZTIN4inet11Ieee8022Llc16SocketDescriptorE
	_ZTIN4inet11Ieee8022LlcE
	_ZTIN4inet11IgmpMessageE
	_ZTIN4inet11Igmpv1QueryE
	_ZTIN4inet11Igmpv2LeaveE
	_ZTIN4inet11Igmpv2QueryE
	_ZTIN4inet11Igmpv3QueryE
	_ZTIN4inet11Ipv4AddressE
	_ZTIN4inet11Ipv6AddressE
	_ZTIN4inet11IpvxTrafGenE
	_ZTIN4inet11LineSegmentE
	_ZTIN4inet11NetworkInfoE
	_ZTIN4inet11PimNeighborE
	_ZTIN4inet11PimRegisterE
	_ZTIN4inet11PimSplitterE
	_ZTIN4inet11PsbTimerMsgE
	_ZTIN4inet11QueueFigureE
	_ZTIN4inet11RsvpMessageE
	_ZTIN4inet11RsvpPathMsgE
	_ZTIN4inet11RsvpResvMsgE
	_ZTIN4inet11SctpInfoReqE
	_ZTIN4inet11SctpNatPeerE
	_ZTIN4inet11SctpOpenReqE
	_ZTIN4inet11SctpSendReqE
	_ZTIN4inet11ShortcutMacE
	_ZTIN4inet11TrailFigureE
	_ZTIN4inet11UdpBasicAppE
	_ZTIN4inet11UdpSocketIoE
	_ZTIN4inet11VlanTagBaseE
	_ZTIN4inet12BindingCache17BindingCacheEntryE
	_ZTIN4inet12BindingCacheE
	_ZTIN4inet12BindingErrorE
	_ZTIN4inet12DiffservUtil14ColorAttributeE
	_ZTIN4inet12EchoProtocolE
	_ZTIN4inet12ErrorRateIndE
	_ZTIN4inet12EtherAppRespE
	_ZTIN4inet12EtherMacBase15MacReceiveStateE
	_ZTIN4inet12EtherMacBase16MacTransmitStateE
	_ZTIN4inet12EtherMacBaseE
	_ZTIN4inet12EtherTrafGenE
	_ZTIN4inet12HomeTestInitE
	_ZTIN4inet12IMacProtocolE
	_ZTIN4inet12Icmpv6HeaderE
	_ZTIN4inet12Icmpv6TimeExE
	_ZTIN4inet12Igmpv1ReportE
	_ZTIN4inet12Igmpv2ReportE
	_ZTIN4inet12Igmpv3ReportE
	_ZTIN4inet12InterfaceIndE
	_ZTIN4inet12InterfaceReqE
	_ZTIN4inet12IntervalTree8IntervalE
	_ZTIN4inet12IntrusivePtrIKNS_5ChunkEEE
	_ZTIN4inet12IpProtocolIdE
	_ZTIN4inet12Ipv4NatEntryE
	_ZTIN4inet12Ipv4NatTableE
	_ZTIN4inet12Ipv6NdOptionE
	_ZTIN4inet12Ipv6RedirectE
	_ZTIN4inet12IpvxTrafSinkE
	_ZTIN4inet12L3AddressIndE
	_ZTIN4inet12L3AddressReqE
	_ZTIN4inet12LinkStateMsgE
	_ZTIN4inet12MacRelayUnitE
	_ZTIN4inet12MassMobilityE
	_ZTIN4inet12MobilityBase12BorderPolicyE
	_ZTIN4inet12MobilityBase17DirectiveResolverE
	_ZTIN4inet12MobilityBaseE
	_ZTIN4inet12MulticastReqE
	_ZTIN4inet12NetAnimTraceE
	_ZTIN4inet12NetPerfMeterE
	_ZTIN4inet12NextHopRouteE
	_ZTIN4inet12PacketFilter23PacketDissectorCallbackE
	_ZTIN4inet12PcapRecorder7IHelperE
	_ZTIN4inet12PcapRecorderE
	_ZTIN4inet12PimInterfaceE
	_ZTIN4inet12PimJoinPruneE
	_ZTIN4inet12RegionTagSet9RegionTagIN7omnetpp7cObjectEEE
	_ZTIN4inet12RegionTagSetE
	_ZTIN4inet12RsvpHelloMsgE
	_ZTIN4inet12RsvpPathTearE
	_ZTIN4inet12RsvpResvTearE
	_ZTIN4inet12SctpPathInfoE
	_ZTIN4inet12SctpResetReqE
	_ZTIN4inet12SignalFigureE
	_ZTIN4inet12SignalSourceE
	_ZTIN4inet12StringFormat18IDirectiveResolverE
	_ZTIN4inet12TcpErrorCodeE
	_ZTIN4inet12TcpErrorInfoE
	_ZTIN4inet12ThruputMeterE
	_ZTIN4inet12TlvOptionRawE
	_ZTIN4inet12cPacketChunkE
	_ZTIN4inet13AnsimMobilityE
	_ZTIN4inet13ApskPhyHeaderE
	_ZTIN4inet13BindingUpdateE
	_ZTIN4inet13BitCountChunkE
	_ZTIN4inet13CounterFigureE
	_ZTIN4inet13DsdvIpv4RouteE
	_ZTIN4inet13FilterSpecObjE
	_ZTIN4inet13GenericAppMsgE
	_ZTIN4inet13HeatMapFigureE
	_ZTIN4inet13HelloTimerMsgE
	_ZTIN4inet13IDoneCallbackE
	_ZTIN4inet13IRoutingTableE
	_ZTIN4inet13IcmpEchoReplyE
	_ZTIN4inet13Ieee802154MacE
	_ZTIN4inet13Ieee802SapIndE
	_ZTIN4inet13Ieee802SapReqE
	_ZTIN4inet13Ipv4OptionEndE
	_ZTIN4inet13Ipv4OptionNopE
	_ZTIN4inet13Ipv6NdMessageE
	_ZTIN4inet13Ipv6NdOptionsE
	_ZTIN4inet13Ipv6Tunneling6TunnelE
	_ZTIN4inet13Ipv6TunnelingE
	_ZTIN4inet13L4PortTagBaseE
	_ZTIN4inet13MacAddressIndE
	_ZTIN4inet13MacAddressReqE
	_ZTIN4inet13NetfilterBase8HookBaseE
	_ZTIN4inet13NetfilterBaseE
	_ZTIN4inet13PacketPrinter17DirectiveResolverE
	_ZTIN4inet13PacketPrinterE
	_ZTIN4inet13PathNotifyMsgE
	_ZTIN4inet13PimPacketTypeE
	_ZTIN4inet13PositionTableE
	_ZTIN4inet13PsbTimeoutMsgE
	_ZTIN4inet13QosClassifierE
	_ZTIN4inet13ReorderBufferE
	_ZTIN4inet13RsbTimeoutMsgE
	_ZTIN4inet13RsvpPathErrorE
	_ZTIN4inet13RsvpResvErrorE
	_ZTIN4inet13ScenarioTimerE
	_ZTIN4inet13SctpNatServerE
	_ZTIN4inet13SctpStatusReqE
	_ZTIN4inet13SequenceChunkE
	_ZTIN4inet13SignalBandIndE
	_ZTIN4inet13SignalBandReqE
	_ZTIN4inet13SignalTagBaseE
	_ZTIN4inet13SignalTimeIndE
	_ZTIN4inet13SignallingMsgE
	_ZTIN4inet13SocketTagBaseE
	_ZTIN4inet13TcpSessionAppE
	_ZTIN4inet13TcpStatusInfoE
	_ZTIN4inet13TedChangeInfoE
	_ZTIN4inet13TimestampFlagE
	_ZTIN4inet13TlvOptionBaseE
	_ZTIN4inet13UdpBasicBurstE
	_ZTIN4inet13physicallayer10ApskSymbolE
	_ZTIN4inet13physicallayer10IListeningE
	_ZTIN4inet13physicallayer10IModulatorE
	_ZTIN4inet13physicallayer10IReceptionE
	_ZTIN4inet13physicallayer10IScramblerE
	_ZTIN4inet13physicallayer10ScalarSnirE
	_ZTIN4inet13physicallayer11AntennaBaseE
	_ZTIN4inet13physicallayer11ApskDecoderE
	_ZTIN4inet13physicallayer11ApskEncoderE
	_ZTIN4inet13physicallayer11IErrorModelE
	_ZTIN4inet13physicallayer11IModulationE
	_ZTIN4inet13physicallayer11IScramblingE
	_ZTIN4inet13physicallayer11NoiseSourceE
	_ZTIN4inet13physicallayer11PulseFilterE
	_ZTIN4inet13physicallayer11PulseShaperE
	_ZTIN4inet13physicallayer11RadioMediumE
	_ZTIN4inet13physicallayer11ScalarNoiseE
	_ZTIN4inet13physicallayer11SuiPathLossE
	_ZTIN4inet13physicallayer12IAnalogModelE
	_ZTIN4inet13physicallayer12IAntennaGainE
	_ZTIN4inet13physicallayer12IDemodulatorE
	_ZTIN4inet13physicallayer12IInterleaverE
	_ZTIN4inet13physicallayer12IPropagationE
	_ZTIN4inet13physicallayer12IPulseFilterE
	_ZTIN4inet13physicallayer12IPulseShaperE
	_ZTIN4inet13physicallayer12IRadioMediumE
	_ZTIN4inet13physicallayer12IRadioSignal10SignalPartE
	_ZTIN4inet13physicallayer12ITransmitterE
	_ZTIN4inet13physicallayer12InterferenceE
	_ZTIN4inet13physicallayer12PathLossBaseE
	_ZTIN4inet13physicallayer12ReceiverBaseE
	_ZTIN4inet13physicallayer12RicianFadingE
	_ZTIN4inet13physicallayer12UnitDiskSnirE
	_ZTIN4inet13physicallayer13ApskModulatorE
	_ZTIN4inet13physicallayer13BandListeningE
	_ZTIN4inet13physicallayer13CosineAntenna11AntennaGainE
	_ZTIN4inet13physicallayer13CosineAntennaE
	_ZTIN4inet13physicallayer13DipoleAntenna11AntennaGainE
	_ZTIN4inet13physicallayer13DipoleAntennaE
	_ZTIN4inet13physicallayer13FlatRadioBaseE
	_ZTIN4inet13physicallayer13IInterferenceE
	_ZTIN4inet13physicallayer13IInterleavingE
	_ZTIN4inet13physicallayer13IObstacleLossE
	_ZTIN4inet13physicallayer13IScalarSignalE
	_ZTIN4inet13physicallayer13ITransmissionE
	_ZTIN4inet13physicallayer13ListeningBaseE
	_ZTIN4inet13physicallayer13ReceptionBaseE
	_ZTIN4inet13physicallayer13ShortcutRadioE
	_ZTIN4inet13physicallayer13UnitDiskNoiseE
	_ZTIN4inet13physicallayer13UnitDiskRadioE
	_ZTIN4inet13physicallayer14ApskErrorModelE
	_ZTIN4inet13physicallayer14BpskModulationE
	_ZTIN4inet13physicallayer14ErrorModelBaseE
	_ZTIN4inet13physicallayer14IIeee80211BandE
	_ZTIN4inet13physicallayer14IIeee80211ModeE
	_ZTIN4inet13physicallayer14INeighborCacheE
	_ZTIN4inet13physicallayer14Ieee80211HtmcsE
	_ZTIN4inet13physicallayer14Ieee80211RadioE
	_ZTIN4inet13physicallayer14MaskModulationE
	_ZTIN4inet13physicallayer14MfskModulationE
	_ZTIN4inet13physicallayer14MpskModulationE
	_ZTIN4inet13physicallayer14MqamModulationE
	_ZTIN4inet13physicallayer14NakagamiFadingE
	_ZTIN4inet13physicallayer14QpskModulationE
	_ZTIN4inet13physicallayer14RayleighFadingE
	_ZTIN4inet13physicallayer14SignalBitModelE
	_ZTIN4inet13physicallayer15AnalogModelBaseE
	_ZTIN4inet13physicallayer15ApskDemodulatorE
	_ZTIN4inet13physicallayer15DbpskModulationE
	_ZTIN4inet13physicallayer15DimensionalSnirE
	_ZTIN4inet13physicallayer15DqpskModulationE
	_ZTIN4inet13physicallayer15IApskModulationE
	_ZTIN4inet13physicallayer15ISignalBitModelE
	_ZTIN4inet13physicallayer15Ieee80211HtCodeE
	_ZTIN4inet13physicallayer15Ieee80211HtModeE
	_ZTIN4inet13physicallayer15Ieee80211IrModeE
	_ZTIN4inet13physicallayer15Ieee80211VhtmcsE
	_ZTIN4inet13physicallayer15PropagationBaseE
	_ZTIN4inet13physicallayer15Qam16ModulationE
	_ZTIN4inet13physicallayer15Qam64ModulationE
	_ZTIN4inet13physicallayer15QbpskModulationE
	_ZTIN4inet13physicallayer15ReceptionResultE
	_ZTIN4inet13physicallayer15ScalarReceptionE
	_ZTIN4inet13physicallayer15TransmitterBaseE
	_ZTIN4inet13physicallayer15_4PpmModulationE
	_ZTIN4inet13physicallayer16CommunicationLogE
	_ZTIN4inet13physicallayer16DimensionalNoiseE
	_ZTIN4inet13physicallayer16FlatReceiverBaseE
	_ZTIN4inet13physicallayer16IBackgroundNoiseE
	_ZTIN4inet13physicallayer16IPrintableObjectE
	_ZTIN4inet13physicallayer16IReceptionResultE
	_ZTIN4inet13physicallayer16Ieee80211ChannelE
	_ZTIN4inet13physicallayer16Ieee80211ModeIndE
	_ZTIN4inet13physicallayer16Ieee80211ModeReqE
	_ZTIN4inet13physicallayer16Ieee80211ModeSetE
	_ZTIN4inet13physicallayer16Ieee80211VhtCodeE
	_ZTIN4inet13physicallayer16Ieee80211VhtModeE
	_ZTIN4inet13physicallayer16IsotropicAntenna11AntennaGainE
	_ZTIN4inet13physicallayer16IsotropicAntennaE
	_ZTIN4inet13physicallayer16LayeredReceptionE
	_ZTIN4inet13physicallayer16MediumLimitCacheE
	_ZTIN4inet13physicallayer16ParabolicAntenna11AntennaGainE
	_ZTIN4inet13physicallayer16ParabolicAntennaE
	_ZTIN4inet13physicallayer16PathLossFunctionE
	_ZTIN4inet13physicallayer16Qam256ModulationE
	_ZTIN4inet13physicallayer16SignalDescriptorE
	_ZTIN4inet13physicallayer16SnirReceiverBaseE
	_ZTIN4inet13physicallayer16TransmissionBaseE
	_ZTIN4inet13physicallayer16UnitDiskReceiverE
	_ZTIN4inet13physicallayer16_16PpmModulationE
	_ZTIN4inet13physicallayer16_2GfskModulationE
	_ZTIN4inet13physicallayer16_4GfskModulationE
	_ZTIN4inet13physicallayer17AdditiveScramblerE
	_ZTIN4inet13physicallayer17ArrivalDescriptorE
	_ZTIN4inet13physicallayer17ConvolutionalCodeE
	_ZTIN4inet13physicallayer17FlatReceptionBaseE
	_ZTIN4inet13physicallayer17FreeSpacePathLossE
	_ZTIN4inet13physicallayer17GridNeighborCache24GridNeighborCacheVisitorE
	_ZTIN4inet13physicallayer17GridNeighborCacheE
	_ZTIN4inet13physicallayer17IMediumLimitCacheE
	_ZTIN4inet13physicallayer17INarrowbandSignalE
	_ZTIN4inet13physicallayer17IdealObstacleLoss28TotalObstacleLossComputationE
	_ZTIN4inet13physicallayer17IdealObstacleLossE
	_ZTIN4inet13physicallayer17Ieee80211BandBaseE
	_ZTIN4inet13physicallayer17Ieee80211DsssModeE
	_ZTIN4inet13physicallayer17Ieee80211FhssModeE
	_ZTIN4inet13physicallayer17Ieee80211ModeBaseE
	_ZTIN4inet13physicallayer17Ieee80211OfdmCodeE
	_ZTIN4inet13physicallayer17Ieee80211OfdmModeE
	_ZTIN4inet13physicallayer17ListeningDecisionE
	_ZTIN4inet13physicallayer17PhysicalLayerBaseE
	_ZTIN4inet13physicallayer17PpmModulationBaseE
	_ZTIN4inet13physicallayer17Qam1024ModulationE
	_ZTIN4inet13physicallayer17ReceptionBitModelE
	_ZTIN4inet13physicallayer17ReceptionDecisionE
	_ZTIN4inet13physicallayer17ScalarAnalogModelE
	_ZTIN4inet13physicallayer17SignalAnalogModelE
	_ZTIN4inet13physicallayer17SignalPacketModelE
	_ZTIN4inet13physicallayer17SignalSampleModelE
	_ZTIN4inet13physicallayer17SignalSymbolModelE
	_ZTIN4inet13physicallayer17UnitDiskListeningE
	_ZTIN4inet13physicallayer17UnitDiskReception5PowerE
	_ZTIN4inet13physicallayer17UnitDiskReceptionE
	_ZTIN4inet13physicallayer18AdditiveScramblingE
	_ZTIN4inet13physicallayer18ApskModulationBaseE
	_ZTIN4inet13physicallayer18ApskScalarReceiverE
	_ZTIN4inet13physicallayer18BreakpointPathLossE
	_ZTIN4inet13physicallayer18ConvolutionalCoderE
	_ZTIN4inet13physicallayer18DpskModulationBaseE
	_ZTIN4inet13physicallayer18GfskModulationBaseE
	_ZTIN4inet13physicallayer18IArrivalDescriptorE
	_ZTIN4inet13physicallayer18IDimensionalSignalE
	_ZTIN4inet13physicallayer18IIeee80211DataModeE
	_ZTIN4inet13physicallayer18ILayeredErrorModelE
	_ZTIN4inet13physicallayer18IListeningDecisionE
	_ZTIN4inet13physicallayer18IReceptionBitModelE
	_ZTIN4inet13physicallayer18IReceptionDecisionE
	_ZTIN4inet13physicallayer18ISignalAnalogModelE
	_ZTIN4inet13physicallayer18ISignalPacketModelE
	_ZTIN4inet13physicallayer18ISignalSampleModelE
	_ZTIN4inet13physicallayer18ISignalSymbolModelE
	_ZTIN4inet13physicallayer18Ieee80211OfdmRadioE
	_ZTIN4inet13physicallayer18Ieee80211PhyHeaderE
	_ZTIN4inet13physicallayer18LogNormalShadowingE
	_ZTIN4inet13physicallayer18MqamModulationBaseE
	_ZTIN4inet13physicallayer18ScalarTransmissionE
	_ZTIN4inet13physicallayer18TwoRayInterferenceE
	_ZTIN4inet13physicallayer19AntennaGainFunctionE
	_ZTIN4inet13physicallayer19ApskLayeredReceiverE
	_ZTIN4inet13physicallayer19ConstantGainAntenna11AntennaGainE
	_ZTIN4inet13physicallayer19ConstantGainAntennaE
	_ZTIN4inet13physicallayer19FlatTransmitterBaseE
	_ZTIN4inet13physicallayer19ICommunicationCacheE
	_ZTIN4inet13physicallayer19Ieee80211ChannelIndE
	_ZTIN4inet13physicallayer19Ieee80211ChannelReqE
	_ZTIN4inet13physicallayer19Ieee80211HrDsssModeE
	_ZTIN4inet13physicallayer19Ieee80211HtDataModeE
	_ZTIN4inet13physicallayer19Ieee80211HtModeBaseE
	_ZTIN4inet13physicallayer19Ieee80211IrDataModeE
	_ZTIN4inet13physicallayer19Ieee80211OfdmSymbolE
	_ZTIN4inet13physicallayer19LayeredTransmissionE
	_ZTIN4inet13physicallayer19NarrowbandNoiseBaseE
	_ZTIN4inet13physicallayer19NarrowbandRadioBaseE
	_ZTIN4inet13physicallayer19UnitDiskAnalogModelE
	_ZTIN4inet13physicallayer19UnitDiskTransmitterE
	_ZTIN4inet13physicallayer20DimensionalReceptionE
	_ZTIN4inet13physicallayer20FlatTransmissionBaseE
	_ZTIN4inet13physicallayer20IIeee80211HeaderModeE
	_ZTIN4inet13physicallayer20IListeningDescriptorE
	_ZTIN4inet13physicallayer20IReceptionDescriptorE
	_ZTIN4inet13physicallayer20ITracingObstacleLoss23ObstaclePenetratedEventE
	_ZTIN4inet13physicallayer20ITracingObstacleLossE
	_ZTIN4inet13physicallayer20Ieee80211ErpOfdmModeE
	_ZTIN4inet13physicallayer20Ieee80211HtPhyHeaderE
	_ZTIN4inet13physicallayer20Ieee80211IrPhyHeaderE
	_ZTIN4inet13physicallayer20Ieee80211ModeTagBaseE
	_ZTIN4inet13physicallayer20Ieee80211OfdmDecoderE
	_ZTIN4inet13physicallayer20Ieee80211OfdmEncoderE
	_ZTIN4inet13physicallayer20Ieee80211PhyPreambleE
	_ZTIN4inet13physicallayer20Ieee80211VhtDataModeE
	_ZTIN4inet13physicallayer20Ieee80211VhtModeBaseE
	_ZTIN4inet13physicallayer20InterpolatingAntenna11AntennaGainE
	_ZTIN4inet13physicallayer20InterpolatingAntennaE
	_ZTIN4inet13physicallayer20ObstacleLossFunctionE
	_ZTIN4inet13physicallayer20ReceptionPacketModelE
	_ZTIN4inet13physicallayer20ReceptionSampleModelE
	_ZTIN4inet13physicallayer20ReceptionSymbolModelE
	_ZTIN4inet13physicallayer20StochasticErrorModelE
	_ZTIN4inet13physicallayer20TransmissionBitModelE
	_ZTIN4inet13physicallayer20UnitDiskTransmissionE
	_ZTIN4inet13physicallayer21ApskLayeredErrorModelE
	_ZTIN4inet13physicallayer21ApskScalarTransmitterE
	_ZTIN4inet13physicallayer21ConfigureRadioCommandE
	_ZTIN4inet13physicallayer21DsssOqpsk16ModulationE
	_ZTIN4inet13physicallayer21IModulationDescriptorE
	_ZTIN4inet13physicallayer21IReceptionAnalogModelE
	_ZTIN4inet13physicallayer21IReceptionPacketModelE
	_ZTIN4inet13physicallayer21IReceptionSampleModelE
	_ZTIN4inet13physicallayer21IReceptionSymbolModelE
	_ZTIN4inet13physicallayer21ITransmissionBitModelE
	_ZTIN4inet13physicallayer21Ieee80211DsssDataModeE
	_ZTIN4inet13physicallayer21Ieee80211DsssOfdmModeE
	_ZTIN4inet13physicallayer21Ieee80211FhssDataModeE
	_ZTIN4inet13physicallayer21Ieee80211HtSignalModeE
	_ZTIN4inet13physicallayer21Ieee80211IrHeaderModeE
	_ZTIN4inet13physicallayer21Ieee80211OfdmDataModeE
	_ZTIN4inet13physicallayer21Ieee80211OfdmModeBaseE
	_ZTIN4inet13physicallayer21Ieee80211ReceiverBaseE
	_ZTIN4inet13physicallayer21Ieee80211VhtPhyHeaderE
	_ZTIN4inet13physicallayer21LayeredErrorModelBaseE
	_ZTIN4inet13physicallayer21MapCommunicationCacheE
	_ZTIN4inet13physicallayer21QuadTreeNeighborCache28QuadTreeNeighborCacheVisitorE
	_ZTIN4inet13physicallayer21QuadTreeNeighborCacheE
	_ZTIN4inet13physicallayer21ScalarAnalogModelBaseE
	_ZTIN4inet13physicallayer22ApskLayeredTransmitterE
	_ZTIN4inet13physicallayer22ApskScalarTransmissionE
	_ZTIN4inet13physicallayer22CommunicationCacheBase15RadioCacheEntryE
	_ZTIN4inet13physicallayer22CommunicationCacheBase19ReceptionCacheEntryE
	_ZTIN4inet13physicallayer22CommunicationCacheBaseE
	_ZTIN4inet13physicallayer22DielectricObstacleLoss28TotalObstacleLossComputationE
	_ZTIN4inet13physicallayer22DielectricObstacleLossE
	_ZTIN4inet13physicallayer22DimensionalAnalogModelE
	_ZTIN4inet13physicallayer22IIeee80211PreambleModeE
	_ZTIN4inet13physicallayer22Ieee80211DsssChunkModeE
	_ZTIN4inet13physicallayer22Ieee80211DsssPhyHeaderE
	_ZTIN4inet13physicallayer22Ieee80211FhssPhyHeaderE
	_ZTIN4inet13physicallayer22Ieee80211HtPhyPreambleE
	_ZTIN4inet13physicallayer22Ieee80211IrPhyPreambleE
	_ZTIN4inet13physicallayer22Ieee80211OfdmModulatorE
	_ZTIN4inet13physicallayer22Ieee80211OfdmPhyHeaderE
	_ZTIN4inet13physicallayer22Ieee80211VhtSignalModeE
	_ZTIN4inet13physicallayer22LayeredReceptionResultE
	_ZTIN4inet13physicallayer22NarrowbandReceiverBaseE
	_ZTIN4inet13physicallayer22TwoRayGroundReflectionE
	_ZTIN4inet13physicallayer23AdditiveScramblerModuleE
	_ZTIN4inet13physicallayer23ApskDimensionalReceiverE
	_ZTIN4inet13physicallayer23ApskPhyHeaderSerializerE
	_ZTIN4inet13physicallayer23AxiallySymmetricAntenna11AntennaGainE
	_ZTIN4inet13physicallayer23AxiallySymmetricAntennaE
	_ZTIN4inet13physicallayer23BandListeningDescriptorE
	_ZTIN4inet13physicallayer23ConstantTimePropagationE
	_ZTIN4inet13physicallayer23DimensionalTransmissionE
	_ZTIN4inet13physicallayer23IAnalogDigitalConverterE
	_ZTIN4inet13physicallayer23IDigitalAnalogConverterE
	_ZTIN4inet13physicallayer23IForwardErrorCorrectionE
	_ZTIN4inet13physicallayer23ITransmissionDescriptorE
	_ZTIN4inet13physicallayer23Ieee80211ChannelTagBaseE
	_ZTIN4inet13physicallayer23Ieee80211DsssHeaderModeE
	_ZTIN4inet13physicallayer23Ieee80211EnumeratedBandE
	_ZTIN4inet13physicallayer23Ieee80211ErrorModelBaseE
	_ZTIN4inet13physicallayer23Ieee80211FhssHeaderModeE
	_ZTIN4inet13physicallayer23Ieee80211HrDsssDataModeE
	_ZTIN4inet13physicallayer23Ieee80211HtInterleavingE
	_ZTIN4inet13physicallayer23Ieee80211HtPreambleModeE
	_ZTIN4inet13physicallayer23Ieee80211IrPreambleModeE
	_ZTIN4inet13physicallayer23Ieee80211NistErrorModelE
	_ZTIN4inet13physicallayer23Ieee80211OfdmErrorModelE
	_ZTIN4inet13physicallayer23Ieee80211OfdmModulationE
	_ZTIN4inet13physicallayer23Ieee80211OfdmSignalModeE
	_ZTIN4inet13physicallayer23Ieee80211ScalarReceiverE
	_ZTIN4inet13physicallayer23Ieee80211VhtPhyPreambleE
	_ZTIN4inet13physicallayer23Ieee80211YansErrorModelE
	_ZTIN4inet13physicallayer23Ieee802154UwbIrReceiverE
	_ZTIN4inet13physicallayer23NarrowbandReceptionBaseE
	_ZTIN4inet13physicallayer23ReceptionBaseDescriptorE
	_ZTIN4inet13physicallayer23ScalarSignalAnalogModelE
	_ZTIN4inet13physicallayer23TracingObstacleLossBaseE
	_ZTIN4inet13physicallayer23TransmissionPacketModelE
	_ZTIN4inet13physicallayer23TransmissionSampleModelE
	_ZTIN4inet13physicallayer23TransmissionSymbolModelE
	_ZTIN4inet13physicallayer23UwbIrStochasticPathLossE
	_ZTIN4inet13physicallayer24ConstantSpeedPropagationE
	_ZTIN4inet13physicallayer24ConvolutionalCoderModuleE
	_ZTIN4inet13physicallayer24IIeee80211BandDescriptorE
	_ZTIN4inet13physicallayer24IIeee80211ModeDescriptorE
	_ZTIN4inet13physicallayer24ITransmissionAnalogModelE
	_ZTIN4inet13physicallayer24ITransmissionPacketModelE
	_ZTIN4inet13physicallayer24ITransmissionSampleModelE
	_ZTIN4inet13physicallayer24ITransmissionSymbolModelE
	_ZTIN4inet13physicallayer24Ieee80211DsssPhyPreambleE
	_ZTIN4inet13physicallayer24Ieee80211FhssPhyPreambleE
	_ZTIN4inet13physicallayer24Ieee80211HrDsssPhyHeaderE
	_ZTIN4inet13physicallayer24Ieee80211OfdmDemodulatorE
	_ZTIN4inet13physicallayer24Ieee80211OfdmInterleaverE
	_ZTIN4inet13physicallayer24Ieee80211OfdmPhyPreambleE
	_ZTIN4inet13physicallayer24Ieee80211TransmitterBaseE
	_ZTIN4inet13physicallayer24Ieee80211VhtInterleavingE
	_ZTIN4inet13physicallayer24Ieee80211VhtPreambleModeE
	_ZTIN4inet13physicallayer24LayeredScalarAnalogModelE
	_ZTIN4inet13physicallayer24VectorCommunicationCacheE
	_ZTIN4inet13physicallayer25IApskModulationDescriptorE
	_ZTIN4inet13physicallayer25Ieee80211ArithmeticalBandE
	_ZTIN4inet13physicallayer25Ieee80211DsssPreambleModeE
	_ZTIN4inet13physicallayer25Ieee80211ErpOfdmPhyHeaderE
	_ZTIN4inet13physicallayer25Ieee80211FhssPreambleModeE
	_ZTIN4inet13physicallayer25Ieee80211HrDsssHeaderModeE
	_ZTIN4inet13physicallayer25Ieee80211HtCompliantModesE
	_ZTIN4inet13physicallayer25Ieee80211OfdmInterleavingE
	_ZTIN4inet13physicallayer25Ieee80211OfdmPreambleModeE
	_ZTIN4inet13physicallayer25Ieee80211TransmissionBaseE
	_ZTIN4inet13physicallayer25Ieee80211UnitDiskReceiverE
	_ZTIN4inet13physicallayer25NarrowbandTransmitterBaseE
	_ZTIN4inet13physicallayer25NeighborListNeighborCacheE
	_ZTIN4inet13physicallayer25ScalarReceptionDescriptorE
	_ZTIN4inet13physicallayer26ApskDimensionalTransmitterE
	_ZTIN4inet13physicallayer26DimensionalAnalogModelBaseE
	_ZTIN4inet13physicallayer26DimensionalBackgroundNoiseE
	_ZTIN4inet13physicallayer26DimensionalTransmitterBaseE
	_ZTIN4inet13physicallayer26Ieee80211ChannelDescriptorE
	_ZTIN4inet13physicallayer26Ieee80211ConvolutionalCodeE
	_ZTIN4inet13physicallayer26Ieee80211HrDsssPhyPreambleE
	_ZTIN4inet13physicallayer26Ieee80211ModeIndDescriptorE
	_ZTIN4inet13physicallayer26Ieee80211ModeReqDescriptorE
	_ZTIN4inet13physicallayer26Ieee80211ModeSetDescriptorE
	_ZTIN4inet13physicallayer26Ieee80211OfdmDecoderModuleE
	_ZTIN4inet13physicallayer26Ieee80211OfdmEncoderModuleE
	_ZTIN4inet13physicallayer26Ieee80211ScalarTransmitterE
	_ZTIN4inet13physicallayer26Ieee80211VhtCompliantModesE
	_ZTIN4inet13physicallayer26Ieee802154UwbIrTransmitterE
	_ZTIN4inet13physicallayer26NarrowbandTransmissionBaseE
	_ZTIN4inet13physicallayer26StateBasedCcEnergyConsumerE
	_ZTIN4inet13physicallayer26StateBasedEpEnergyConsumerE
	_ZTIN4inet13physicallayer26TransmissionBaseDescriptorE
	_ZTIN4inet13physicallayer27ApskDimensionalTransmissionE
	_ZTIN4inet13physicallayer27FlatReceptionBaseDescriptorE
	_ZTIN4inet13physicallayer27Ieee80211BerTableErrorModelE
	_ZTIN4inet13physicallayer27Ieee80211ErpOfdmPhyPreambleE
	_ZTIN4inet13physicallayer27Ieee80211HrDsssPreambleModeE
	_ZTIN4inet13physicallayer27Ieee80211PhyProtocolPrinterE
	_ZTIN4inet13physicallayer27Ieee80211ScalarTransmissionE
	_ZTIN4inet13physicallayer27NarrowbandSignalAnalogModelE
	_ZTIN4inet13physicallayer27NoiseDimensionalTransmitterE
	_ZTIN4inet13physicallayer27ReferenceCommunicationCacheE
	_ZTIN4inet13physicallayer27StochasticLayeredErrorModelE
	_ZTIN4inet13physicallayer28BackgroundNoisePowerFunctionE
	_ZTIN4inet13physicallayer28DimensionalSignalAnalogModelE
	_ZTIN4inet13physicallayer28IIeee80211DataModeDescriptorE
	_ZTIN4inet13physicallayer28Ieee80211DimensionalReceiverE
	_ZTIN4inet13physicallayer28Ieee80211LayeredOfdmReceiverE
	_ZTIN4inet13physicallayer28Ieee80211LayeredTransmissionE
	_ZTIN4inet13physicallayer28Ieee80211OfdmModulatorModuleE
	_ZTIN4inet13physicallayer28Ieee80211PhyHeaderDescriptorE
	_ZTIN4inet13physicallayer28Ieee80211UnitDiskTransmitterE
	_ZTIN4inet13physicallayer28ScalarAnalogDigitalConverterE
	_ZTIN4inet13physicallayer28ScalarDigitalAnalogConverterE
	_ZTIN4inet13physicallayer28ScalarTransmissionDescriptorE
	_ZTIN4inet13physicallayer29Ieee80211ChannelIndDescriptorE
	_ZTIN4inet13physicallayer29Ieee80211ChannelReqDescriptorE
	_ZTIN4inet13physicallayer29Ieee80211UnitDiskTransmissionE
	_ZTIN4inet13physicallayer29LayeredDimensionalAnalogModelE
	_ZTIN4inet13physicallayer30FlatTransmissionBaseDescriptorE
	_ZTIN4inet13physicallayer30IIeee80211HeaderModeDescriptorE
	_ZTIN4inet13physicallayer30Ieee80211ConfigureRadioCommandE
	_ZTIN4inet13physicallayer30Ieee80211HtPhyHeaderDescriptorE
	_ZTIN4inet13physicallayer30Ieee80211HtPhyHeaderSerializerE
	_ZTIN4inet13physicallayer30Ieee80211IrPhyHeaderDescriptorE
	_ZTIN4inet13physicallayer30Ieee80211IrPhyHeaderSerializerE
	_ZTIN4inet13physicallayer30Ieee80211ModeTagBaseDescriptorE
	_ZTIN4inet13physicallayer30Ieee80211OfdmDemodulatorModuleE
	_ZTIN4inet13physicallayer30Ieee80211OfdmInterleaverModuleE
	_ZTIN4inet13physicallayer30Ieee80211PhyPreambleDescriptorE
	_ZTIN4inet13physicallayer30IsotropicScalarBackgroundNoiseE
	_ZTIN4inet13physicallayer30UnitDiskTransmissionDescriptorE
	_ZTIN4inet13physicallayer31ConfigureRadioCommandDescriptorE
	_ZTIN4inet13physicallayer31Ieee80211DimensionalTransmitterE
	_ZTIN4inet13physicallayer31Ieee80211LayeredOfdmTransmitterE
	_ZTIN4inet13physicallayer31Ieee80211VhtPhyHeaderDescriptorE
	_ZTIN4inet13physicallayer31Ieee80211VhtPhyHeaderSerializerE
	_ZTIN4inet13physicallayer32IIeee80211PreambleModeDescriptorE
	_ZTIN4inet13physicallayer32Ieee80211DimensionalTransmissionE
	_ZTIN4inet13physicallayer32Ieee80211DsssPhyHeaderDescriptorE
	_ZTIN4inet13physicallayer32Ieee80211DsssPhyHeaderSerializerE
	_ZTIN4inet13physicallayer32Ieee80211FhssPhyHeaderDescriptorE
	_ZTIN4inet13physicallayer32Ieee80211FhssPhyHeaderSerializerE
	_ZTIN4inet13physicallayer32Ieee80211HtPhyPreambleDescriptorE
	_ZTIN4inet13physicallayer32Ieee80211IrPhyPreambleDescriptorE
	_ZTIN4inet13physicallayer32Ieee80211OfdmPhyHeaderDescriptorE
	_ZTIN4inet13physicallayer32Ieee80211OfdmPhyHeaderSerializerE
	_ZTIN4inet13physicallayer32ScalarReceptionSignalAnalogModelE
	_ZTIN4inet13physicallayer33DimensionalTransmissionDescriptorE
	_ZTIN4inet13physicallayer33Ieee80211ChannelTagBaseDescriptorE
	_ZTIN4inet13physicallayer33Ieee80211EnumeratedBandDescriptorE
	_ZTIN4inet13physicallayer33Ieee80211OfdmModulationDescriptorE
	_ZTIN4inet13physicallayer33Ieee80211OfdmReceptionSymbolModelE
	_ZTIN4inet13physicallayer33Ieee80211VhtPhyPreambleDescriptorE
	_ZTIN4inet13physicallayer33NarrowbandReceptionBaseDescriptorE
	_ZTIN4inet13physicallayer33SpaceDependentAttenuationFunctionE
	_ZTIN4inet13physicallayer34Ieee80211DsssPhyPreambleDescriptorE
	_ZTIN4inet13physicallayer34Ieee80211FhssPhyPreambleDescriptorE
	_ZTIN4inet13physicallayer34Ieee80211HrDsssPhyHeaderDescriptorE
	_ZTIN4inet13physicallayer34Ieee80211HrDsssPhyHeaderSerializerE
	_ZTIN4inet13physicallayer34Ieee80211OfdmPhyPreambleDescriptorE
	_ZTIN4inet13physicallayer34Ieee802154NarrowbandScalarReceiverE
	_ZTIN4inet13physicallayer35Ieee80211ArithmeticalBandDescriptorE
	_ZTIN4inet13physicallayer35Ieee80211ErpOfdmPhyHeaderDescriptorE
	_ZTIN4inet13physicallayer35Ieee80211ErpOfdmPhyHeaderSerializerE
	_ZTIN4inet13physicallayer35IsotropicDimensionalBackgroundNoiseE
	_ZTIN4inet13physicallayer35PropagatedTransmissionPowerFunctionE
	_ZTIN4inet13physicallayer35ScalarTransmissionSignalAnalogModelE
	_ZTIN4inet13physicallayer36Ieee80211HrDsssPhyPreambleDescriptorE
	_ZTIN4inet13physicallayer36Ieee80211OfdmTransmissionSymbolModelE
	_ZTIN4inet13physicallayer36NarrowbandTransmissionBaseDescriptorE
	_ZTIN4inet13physicallayer37DimensionalReceptionSignalAnalogModelE
	_ZTIN4inet13physicallayer37FrequencyDependentAttenuationFunctionE
	_ZTIN4inet13physicallayer37Ieee80211ErpOfdmPhyPreambleDescriptorE
	_ZTIN4inet13physicallayer37Ieee80211ScalarTransmissionDescriptorE
	_ZTIN4inet13physicallayer37Ieee802154NarrowbandScalarTransmitterE
	_ZTIN4inet13physicallayer38Ieee80211HtTimingRelatedParametersBaseE
	_ZTIN4inet13physicallayer39Ieee802154NarrowbandDimensionalReceiverE
	_ZTIN4inet13physicallayer40DimensionalTransmissionSignalAnalogModelE
	_ZTIN4inet13physicallayer40Ieee80211ConfigureRadioCommandDescriptorE
	_ZTIN4inet13physicallayer40Ieee80211OfdmTimingRelatedParametersBaseE
	_ZTIN4inet13physicallayer42Ieee80211DimensionalTransmissionDescriptorE
	_ZTIN4inet13physicallayer42Ieee802154NarrowbandDimensionalTransmitterE
	_ZTIN4inet13physicallayer45SpaceAndFrequencyDependentAttenuationFunctionE
	_ZTIN4inet13physicallayer5ICodeE
	_ZTIN4inet13physicallayer5ISnirE
	_ZTIN4inet13physicallayer5RadioE
	_ZTIN4inet13physicallayer6INoiseE
	_ZTIN4inet13physicallayer6IRadio14ReceptionStateE
	_ZTIN4inet13physicallayer6IRadio17TransmissionStateE
	_ZTIN4inet13physicallayer6IRadio9RadioModeE
	_ZTIN4inet13physicallayer6IRadioE
	_ZTIN4inet13physicallayer6SignalE
	_ZTIN4inet13physicallayer7ArrivalE
	_ZTIN4inet13physicallayer7ISignalE
	_ZTIN4inet13physicallayer7ISymbolE
	_ZTIN4inet13physicallayer8ApskCodeE
	_ZTIN4inet13physicallayer8EtherPhyE
	_ZTIN4inet13physicallayer8IAntennaE
	_ZTIN4inet13physicallayer8IArrivalE
	_ZTIN4inet13physicallayer8IDecoderE
	_ZTIN4inet13physicallayer8IEncoderE
	_ZTIN4inet13physicallayer8SnirBaseE
	_ZTIN4inet13physicallayer9ApskRadioE
	_ZTIN4inet13physicallayer9IFecCoderE
	_ZTIN4inet13physicallayer9IPathLossE
	_ZTIN4inet13physicallayer9IReceiverE
	_ZTIN4inet13physicallayer9NoiseBaseE
	_ZTIN4inet14BMacHeaderBaseE
	_ZTIN4inet14ByteCountChunkE
	_ZTIN4inet14CareOfTestInitE
	_ZTIN4inet14ChiangMobilityE
	_ZTIN4inet14CircleMobilityE
	_ZTIN4inet14DhcpOptionCodeE
	_ZTIN4inet14EtherAppClientE
	_ZTIN4inet14EtherAppServerE
	_ZTIN4inet14EthernetSignalE
	_ZTIN4inet14EthernetSocket9ICallbackE
	_ZTIN4inet14EthernetSocketE
	_ZTIN4inet14FacingMobilityE
	_ZTIN4inet14FigureRecorderE
	_ZTIN4inet14FloodingHeaderE
	_ZTIN4inet14HoldtimeOptionE
	_ZTIN4inet14IL3AddressTypeE
	_ZTIN4inet14INetworkSocket9ICallbackE
	_ZTIN4inet14INetworkSocketE
	_ZTIN4inet14IPhysicalLayerE
	_ZTIN4inet14Icmpv6DestUnavE
	_ZTIN4inet14Ieee8021dRelayE
	_ZTIN4inet14Ieee8021qEncapE
	_ZTIN4inet14InterfaceEntryE
	_ZTIN4inet14InterfaceTableE
	_ZTIN4inet14Ipv4OptionsIndE
	_ZTIN4inet14Ipv4OptionsReqE
	_ZTIN4inet14JoinPruneGroupE
	_ZTIN4inet14LMacHeaderBaseE
	_ZTIN4inet14LinearMobilityE
	_ZTIN4inet14MacAddressTypeE
	_ZTIN4inet14MacProtocolIndE
	_ZTIN4inet14MacProtocolReqE
	_ZTIN4inet14MatchableFieldE
	_ZTIN4inet14MessageCheckerE
	_ZTIN4inet14MobilityHeaderE
	_ZTIN4inet14PacketDrillAppE
	_ZTIN4inet14PolyhedronFaceE
	_ZTIN4inet14RsvpClassifier8FecEntryE
	_ZTIN4inet14RsvpClassifierE
	_ZTIN4inet14RtpApplicationE
	_ZTIN4inet14SctpCommandReqE
	_ZTIN4inet14SctpConnectReqE
	_ZTIN4inet14SenderTspecObjE
	_ZTIN4inet14SignalPowerIndE
	_ZTIN4inet14SignalPowerReqE
	_ZTIN4inet14TcpConnectInfoE
	_ZTIN4inet14TcpOpenCommandE
	_ZTIN4inet14TunControlInfoE
	_ZTIN4inet14TunLoopbackAppE
	_ZTIN4inet14TunOpenCommandE
	_ZTIN4inet14TurtleMobilityE
	_ZTIN4inet14UdpBindCommandE
	_ZTIN4inet14UdpControlInfoE
	_ZTIN4inet14XMacHeaderBaseE
	_ZTIN4inet15AckingMacHeaderE
	_ZTIN4inet15ApplicationBaseE
	_ZTIN4inet15CLNSAddressTypeE
	_ZTIN4inet15ChunkDescriptorE
	_ZTIN4inet15ChunkSerializerE
	_ZTIN4inet15CoordDescriptorE
	_ZTIN4inet15CreationTimeTagE
	_ZTIN4inet15CsmaCaMacHeaderE
	_ZTIN4inet15DhcpMessageTypeE
	_ZTIN4inet15EthernetPaddingE
	_ZTIN4inet15HelloTimeoutMsgE
	_ZTIN4inet15HopLimitTagBaseE
	_ZTIN4inet15IInterfaceTableE
	_ZTIN4inet15IMulticastRoute11InInterfaceE
	_ZTIN4inet15IMulticastRoute12OutInterfaceE
	_ZTIN4inet15IMulticastRouteE
	_ZTIN4inet15IRsvpClassifierE
	_ZTIN4inet15IcmpEchoRequestE
	_ZTIN4inet15Ieee8021qHeaderE
	_ZTIN4inet15Ipv4AddressTypeE
	_ZTIN4inet15Ipv6AddressTypeE
	_ZTIN4inet15LabelRequestObjE
	_ZTIN4inet15LdpLabelMappingE
	_ZTIN4inet15LdpLabelRequestE
	_ZTIN4inet15MacAddressTable12AddressEntryE
	_ZTIN4inet15MacAddressTableE
	_ZTIN4inet15MacProtocolBaseE
	_ZTIN4inet15MatchableObjectE
	_ZTIN4inet15OperationalBase5StateE
	_ZTIN4inet15OperationalBaseE
	_ZTIN4inet15PacketDissector12ChunkBuilderE
	_ZTIN4inet15PacketDissector14PduTreeBuilderE
	_ZTIN4inet15PacketDissector16ProtocolDataUnitE
	_ZTIN4inet15PacketDissector25ProtocolDissectorCallbackE
	_ZTIN4inet15PacketDissector9ICallbackE
	_ZTIN4inet15PacketMeterBaseE
	_ZTIN4inet15PimRegisterStopE
	_ZTIN4inet15PimStateRefreshE
	_ZTIN4inet15ProtocolPrinterE
	_ZTIN4inet15ProtocolTagBaseE
	_ZTIN4inet15ScenarioManagerE
	_ZTIN4inet15SctpPathInfoReqE
	_ZTIN4inet15TeLinkStateInfoE
	_ZTIN4inet15TractorMobilityE
	_ZTIN4inet15TunCloseCommandE
	_ZTIN4inet15UdpCloseCommandE
	_ZTIN4inet15UserPriorityIndE
	_ZTIN4inet15UserPriorityReqE
	_ZTIN4inet15VehicleMobilityE
	_ZTIN4inet15WiseRouteHeaderE
	_ZTIN4inet16AttachedMobilityE
	_ZTIN4inet16BMacControlFrameE
	_ZTIN4inet16BoxedLabelFigureE
	_ZTIN4inet16CanvasProjectionE
	_ZTIN4inet16CloudDelayerBaseE
	_ZTIN4inet16CsmaCaMacTrailerE
	_ZTIN4inet16DrPriorityOptionE
	_ZTIN4inet16EchoProtocolTypeE
	_ZTIN4inet16EcnIndDescriptorE
	_ZTIN4inet16EcnReqDescriptorE
	_ZTIN4inet16EroObjDescriptorE
	_ZTIN4inet16FecTlvDescriptorE
	_ZTIN4inet16FlowDescriptor_tE
	_ZTIN4inet16FragmentationReqE
	_ZTIN4inet16IIndicatorFigureE
	_ZTIN4inet16IMacAddressTableE
	_ZTIN4inet16INetworkProtocolE
	_ZTIN4inet16InterfaceTagBaseE
	_ZTIN4inet16Ipv4NetworkLayerE
	_ZTIN4inet16Ipv4RoutingTableE
	_ZTIN4inet16Ipv6ExtHeaderIndE
	_ZTIN4inet16Ipv6ExtHeaderReqE
	_ZTIN4inet16Ipv6RoutingTable14DestCacheEntryE
	_ZTIN4inet16Ipv6RoutingTableE
	_ZTIN4inet16L3AddressTagBaseE
	_ZTIN4inet16LMacControlFrameE
	_ZTIN4inet16LdpIniDescriptorE
	_ZTIN4inet16LinkStateRoutingE
	_ZTIN4inet16MoBanCoordinatorE
	_ZTIN4inet16PacketDescriptorE
	_ZTIN4inet16PacketDrillBytesE
	_ZTIN4inet16PacketDrillEventE
	_ZTIN4inet16PacketDropReasonE
	_ZTIN4inet16PimNeighborTableE
	_ZTIN4inet16ReassemblyBufferE
	_ZTIN4inet16SctpAvailableReqE
	_ZTIN4inet16ServicePrimitiveE
	_ZTIN4inet16SignalBitrateIndE
	_ZTIN4inet16SignalBitrateReqE
	_ZTIN4inet16SimpleVoipPacketE
	_ZTIN4inet16SimpleVoipSenderE
	_ZTIN4inet16TcpAcceptCommandE
	_ZTIN4inet16TcpAvailableInfoE
	_ZTIN4inet16TcpEchoAppThreadE
	_ZTIN4inet16TcpServerHostAppE
	_ZTIN4inet16TcpSetTosCommandE
	_ZTIN4inet16TcpSinkAppThreadE
	_ZTIN4inet16TokenBucketMeterE
	_ZTIN4inet16TosIndDescriptorE
	_ZTIN4inet16TosReqDescriptorE
	_ZTIN4inet16UdpSetTosCommandE
	_ZTIN4inet16XMacControlFrameE
	_ZTIN4inet17AddressListOptionE
	_ZTIN4inet17ApplicationPacketE
	_ZTIN4inet17BindingUpdateList22BindingUpdateListEntryE
	_ZTIN4inet17BindingUpdateListE
	_ZTIN4inet17BpduCfgDescriptorE
	_ZTIN4inet17BpduTcnDescriptorE
	_ZTIN4inet17DscpIndDescriptorE
	_ZTIN4inet17DscpReqDescriptorE
	_ZTIN4inet17EthernetJamSignalE
	_ZTIN4inet17EthernetMacHeaderE
	_ZTIN4inet17EthernetPhyHeaderE
	_ZTIN4inet17HeatMapPlotFigureE
	_ZTIN4inet17HomeAddressOptionE
	_ZTIN4inet17IIpv4RoutingTableE
	_ZTIN4inet17Ieee8022LlcHeaderE
	_ZTIN4inet17Ieee8022LlcSocket9ICallbackE
	_ZTIN4inet17Ieee8022LlcSocketE
	_ZTIN4inet17Ieee802SapTagBaseE
	_ZTIN4inet17Ipv4InterfaceData17HostMulticastDataE
	_ZTIN4inet17Ipv4InterfaceData19RouterMulticastDataE
	_ZTIN4inet17Ipv4InterfaceDataE
	_ZTIN4inet17Ipv4OptionUnknownE
	_ZTIN4inet17Ipv6InterfaceDataE
	_ZTIN4inet17Ipv6NdControlInfoE
	_ZTIN4inet17Ipv6NdOptionTypesE
	_ZTIN4inet17Ipv6RoutingHeaderE
	_ZTIN4inet17L3AddressResolverE
	_ZTIN4inet17LabeledIconFigureE
	_ZTIN4inet17LabeledLineFigureE
	_ZTIN4inet17LinearGaugeFigureE
	_ZTIN4inet17MacAddressTagBaseE
	_ZTIN4inet17MessageDescriptorE
	_ZTIN4inet17MessageDispatcher3KeyE
	_ZTIN4inet17MessageDispatcherE
	_ZTIN4inet17NetfilterInfoHookE
	_ZTIN4inet17NetworkHeaderBaseE
	_ZTIN4inet17NextHopAddressReqE
	_ZTIN4inet17NextHopForwarding21QueuedDatagramForHookE
	_ZTIN4inet17NextHopForwardingE
	_ZTIN4inet17Ns2MotionMobilityE
	_ZTIN4inet17PacketDrillOptionE
	_ZTIN4inet17PacketDrillStructE
	_ZTIN4inet17PacketDropDetailsE
	_ZTIN4inet17PacketProtocolTagE
	_ZTIN4inet17PimInterfaceTableE
	_ZTIN4inet17ProtocolDissector9ICallbackE
	_ZTIN4inet17ProtocolDissectorE
	_ZTIN4inet17RateTagDescriptorE
	_ZTIN4inet17RealTimeSchedulerE
	_ZTIN4inet17RectangleMobilityE
	_ZTIN4inet17RequestDescriptorE
	_ZTIN4inet17RipInterfaceEntryE
	_ZTIN4inet17RsbCommitTimerMsgE
	_ZTIN4inet17SctpSimpleMessageE
	_ZTIN4inet17SenderTemplateObjE
	_ZTIN4inet17ShortcutMacHeaderE
	_ZTIN4inet17ShortcutPhyHeaderE
	_ZTIN4inet17SignalBandTagBaseE
	_ZTIN4inet17SimTimeTextFigureE
	_ZTIN4inet17SnirIndDescriptorE
	_ZTIN4inet17TagBaseDescriptorE
	_ZTIN4inet17TcpBasicClientAppE
	_ZTIN4inet17TcpClientSocketIoE
	_ZTIN4inet17TcpServerListenerE
	_ZTIN4inet17TcpServerSocketIoE
	_ZTIN4inet17TcpSetDscpCommandE
	_ZTIN4inet17ThermometerFigureE
	_ZTIN4inet17TunDestroyCommandE
	_ZTIN4inet17UdpConnectCommandE
	_ZTIN4inet17UdpDestroyCommandE
	_ZTIN4inet17UdpSetDscpCommandE
	_ZTIN4inet17UnitDiskPhyHeaderE
	_ZTIN4inet17VlanIndDescriptorE
	_ZTIN4inet17VlanReqDescriptorE
	_ZTIN4inet18ArpProtocolPrinterE
	_ZTIN4inet18BonnMotionMobilityE
	_ZTIN4inet18BpduBaseDescriptorE
	_ZTIN4inet18ChunkPtrDescriptorE
	_ZTIN4inet18CsmaCaMacAckHeaderE
	_ZTIN4inet18EtherMacFullDuplexE
	_ZTIN4inet18EthernetPauseFrameE
	_ZTIN4inet18GenerationIdOptionE
	_ZTIN4inet18GpsrForwardingModeE
	_ZTIN4inet18GroupCountRecorderE
	_ZTIN4inet18HomeTestDescriptorE
	_ZTIN4inet18IIngressClassifierE
	_ZTIN4inet18Icmpv6EchoReplyMsgE
	_ZTIN4inet18IndexedImageFigureE
	_ZTIN4inet18Ipv4MulticastRouteE
	_ZTIN4inet18Ipv4NetworkLayerLRE
	_ZTIN4inet18Ipv4OptionStreamIdE
	_ZTIN4inet18Ipv4OptionsTagBaseE
	_ZTIN4inet18Ipv4RoutingTableLRE
	_ZTIN4inet18Ipv6FragmentHeaderE
	_ZTIN4inet18Ipv6NeighbourCache3KeyE
	_ZTIN4inet18Ipv6NeighbourCache9NeighbourE
	_ZTIN4inet18Ipv6NeighbourCacheE
	_ZTIN4inet18L2NodeConfiguratorE
	_ZTIN4inet18LdpHelloDescriptorE
	_ZTIN4inet18LifecycleOperationE
	_ZTIN4inet18MatrixCloudDelayerE
	_ZTIN4inet18Mipv6HaInformationE
	_ZTIN4inet18MobilityHeaderTypeE
	_ZTIN4inet18MovingMobilityBaseE
	_ZTIN4inet18NetworkProtocolIndE
	_ZTIN4inet18NetworkProtocolReqE
	_ZTIN4inet18PimGraftDescriptorE
	_ZTIN4inet18PimHelloDescriptorE
	_ZTIN4inet18PimHelloOptionTypeE
	_ZTIN4inet18PppProtocolPrinterE
	_ZTIN4inet18ProtocolDescriptorE
	_ZTIN4inet18RipEntryDescriptorE
	_ZTIN4inet18RipProtocolPrinterE
	_ZTIN4inet18RoutingTableParserE
	_ZTIN4inet18RsbRefreshTimerMsgE
	_ZTIN4inet18SenderDescriptor_tE
	_ZTIN4inet18SignalPowerTagBaseE
	_ZTIN4inet18SimpleVoipReceiverE
	_ZTIN4inet18StaticGridMobilityE
	_ZTIN4inet18StationaryMobilityE
	_ZTIN4inet18TcpProtocolPrinterE
	_ZTIN4inet18TemporarySharedPtrINS_5ChunkEEE
	_ZTIN4inet18UdpErrorIndicationE
	_ZTIN4inet18UdpProtocolPrinterE
	_ZTIN4inet19ArpPacketDescriptorE
	_ZTIN4inet19ArpPacketSerializerE
	_ZTIN4inet19BMacDataFrameHeaderE
	_ZTIN4inet19BMacProtocolPrinterE
	_ZTIN4inet19BitsChunkDescriptorE
	_ZTIN4inet19BitsChunkSerializerE
	_ZTIN4inet19BonnMotionFileCacheE
	_ZTIN4inet19CsmaCaMacDataHeaderE
	_ZTIN4inet19CsmaCaMacHeaderTypeE
	_ZTIN4inet19DispatchProtocolIndE
	_ZTIN4inet19DispatchProtocolReqE
	_ZTIN4inet19DsdvHelloDescriptorE
	_ZTIN4inet19EchoProtocolPrinterE
	_ZTIN4inet19ElapsedTimeRecorderE
	_ZTIN4inet19EncodedGroupAddressE
	_ZTIN4inet19EroVectorDescriptorE
	_ZTIN4inet19EthernetBindCommandE
	_ZTIN4inet19EthernetCommandBaseE
	_ZTIN4inet19GaussMarkovMobilityE
	_ZTIN4inet19GeometricObjectBaseE
	_ZTIN4inet19IPhysicalLayerFrameE
	_ZTIN4inet19IcmpProtocolPrinterE
	_ZTIN4inet19Ieee80211SubtypeIndE
	_ZTIN4inet19Ieee80211SubtypeReqE
	_ZTIN4inet19Ieee802154MacHeaderE
	_ZTIN4inet19Ieee802LlcDissectorE
	_ZTIN4inet19Ieee802PauseCommandE
	_ZTIN4inet19IgmpProtocolPrinterE
	_ZTIN4inet19IgmpQueryDescriptorE
	_ZTIN4inet19IndicatorTextFigureE
	_ZTIN4inet19IntrusivePtrCounterINS_13physicallayer12IAntennaGainEEE
	_ZTIN4inet19IntrusivePtrCounterINS_4math9IFunctionINS_5units5valueIdNS3_7composeINS5_INS5_INS3_5units1mENS5_INS6_2kgENS3_3powINS6_1sELin2ELi1EEEEEEES7_EENS9_ISA_Lin1ELi1EEEEEEENS1_6DomainIJNS4_IN7omnetpp7SimTimeESA_EEEEEEEEE
	_ZTIN4inet19IntrusivePtrCounterINS_4math9IFunctionINS_5units5valueIdNS3_7composeINS5_INS5_INS3_5units1mENS5_INS6_2kgENS3_3powINS6_1sELin2ELi1EEEEEEES7_EENS9_ISA_Lin1ELi1EEEEEEENS1_6DomainIJNS4_IdS7_EESJ_SJ_NS4_IN7omnetpp7SimTimeESA_EEEEEEEEE
	_ZTIN4inet19IntrusivePtrCounterINS_4math9IFunctionINS_5units5valueIdNS3_7composeINS5_INS5_INS5_INS3_5units1mENS5_INS6_2kgENS3_3powINS6_1sELin2ELi1EEEEEEES7_EENS9_ISA_Lin1ELi1EEEEENS9_ISF_Lin1ELi1EEEEEEENS1_6DomainIJNS4_IN7omnetpp7SimTimeESA_EEEEEEEEE
	_ZTIN4inet19IntrusivePtrCounterINS_4math9IFunctionINS_5units5valueIdNS3_7composeINS5_INS5_INS5_INS3_5units1mENS5_INS6_2kgENS3_3powINS6_1sELin2ELi1EEEEEEES7_EENS9_ISA_Lin1ELi1EEEEENS9_ISF_Lin1ELi1EEEEEEENS1_6DomainIJNS4_IN7omnetpp7SimTimeESA_EENS4_IdSF_EEEEEEEEE
	_ZTIN4inet19IntrusivePtrCounterINS_4math9IFunctionINS_5units5valueIdNS3_7composeINS5_INS5_INS5_INS3_5units1mENS5_INS6_2kgENS3_3powINS6_1sELin2ELi1EEEEEEES7_EENS9_ISA_Lin1ELi1EEEEENS9_ISF_Lin1ELi1EEEEEEENS1_6DomainIJNS4_IdS7_EESL_SL_NS4_IN7omnetpp7SimTimeESA_EENS4_IdSF_EEEEEEEEE
	_ZTIN4inet19IntrusivePtrCounterINS_4math9IFunctionIdNS1_6DomainIJNS_10QuaternionEEEEEEEE
	_ZTIN4inet19IntrusivePtrCounterINS_4math9IFunctionIdNS1_6DomainIJNS_5units5valueIN7omnetpp7SimTimeENS4_5units1sEEEEEEEEEE
	_ZTIN4inet19IntrusivePtrCounterINS_4math9IFunctionIdNS1_6DomainIJNS_5units5valueIN7omnetpp7SimTimeENS4_5units1sEEENS5_IdNS4_3powIS9_Lin1ELi1EEEEEEEEEEEE
	_ZTIN4inet19IntrusivePtrCounterINS_4math9IFunctionIdNS1_6DomainIJNS_5units5valueIdNS4_3powINS4_5units1sELin1ELi1EEEEEEEEEEEE
	_ZTIN4inet19IntrusivePtrCounterINS_4math9IFunctionIdNS1_6DomainIJNS_5units5valueIdNS4_5units1mEEES8_S8_NS5_IN7omnetpp7SimTimeENS6_1sEEEEEEEEEE
	_ZTIN4inet19IntrusivePtrCounterINS_4math9IFunctionIdNS1_6DomainIJNS_5units5valueIdNS4_5units1mEEES8_S8_NS5_IN7omnetpp7SimTimeENS6_1sEEENS5_IdNS4_3powISB_Lin1ELi1EEEEEEEEEEEE
	_ZTIN4inet19IntrusivePtrCounterINS_4math9IFunctionIdNS1_6DomainIJNS_5units5valueIdNS4_5units1mEEES8_S8_S8_S8_S8_NS5_IdNS4_3powINS6_1sELin1ELi1EEEEEEEEEEEE
	_ZTIN4inet19IntrusivePtrCounterINS_4math9IFunctionIdNS1_6DomainIJNS_5units5valueIdNS4_7composeINS4_5units1mENS4_3powINS7_1sELin1ELi1EEEEEEENS5_IdS8_EENS5_IdSB_EEEEEEEEE
	_ZTIN4inet19IntrusivePtrCounterINS_5ChunkEEE
	_ZTIN4inet19Ipv4OptionTimestampE
	_ZTIN4inet19Ipv4ProtocolPrinterE
	_ZTIN4inet19Ipv4RouteDescriptorE
	_ZTIN4inet19Ipv6ExtensionHeaderE
	_ZTIN4inet19Ipv6NdMtuDescriptorE
	_ZTIN4inet19Ipv6ProtocolPrinterE
	_ZTIN4inet19L3SocketBindCommandE
	_ZTIN4inet19L3SocketCommandBaseE
	_ZTIN4inet19L4PortIndDescriptorE
	_ZTIN4inet19L4PortReqDescriptorE
	_ZTIN4inet19LMacDataFrameHeaderE
	_ZTIN4inet19LMacProtocolPrinterE
	_ZTIN4inet19LabelsTagDescriptorE
	_ZTIN4inet19LanPruneDelayOptionE
	_ZTIN4inet19LayeredProtocolBaseE
	_ZTIN4inet19LdpNotifyDescriptorE
	_ZTIN4inet19LdpPacketDescriptorE
	_ZTIN4inet19LifecycleController8CallbackE
	_ZTIN4inet19LifecycleControllerE
	_ZTIN4inet19ModuleIdAddressTypeE
	_ZTIN4inet19ModuleStopOperationE
	_ZTIN4inet19NetworkProtocolBaseE
	_ZTIN4inet19NextHopRoutingTableE
	_ZTIN4inet19PimAssertDescriptorE
	_ZTIN4inet19PimPacketDescriptorE
	_ZTIN4inet19PimPacketSerializerE
	_ZTIN4inet19PppHeaderDescriptorE
	_ZTIN4inet19PppHeaderSerializerE
	_ZTIN4inet19ProgressMeterFigureE
	_ZTIN4inet19RandomQosClassifierE
	_ZTIN4inet19RipPacketDescriptorE
	_ZTIN4inet19RipPacketSerializerE
	_ZTIN4inet19RoutingProtocolBaseE
	_ZTIN4inet19SocketIndDescriptorE
	_ZTIN4inet19SocketReqDescriptorE
	_ZTIN4inet19TcpGenericServerAppE
	_ZTIN4inet19TcpServerThreadBaseE
	_ZTIN4inet19TcpSetOptionCommandE
	_ZTIN4inet19TransportHeaderBaseE
	_ZTIN4inet19UdpHeaderDescriptorE
	_ZTIN4inet19UdpHeaderSerializerE
	_ZTIN4inet19UdpSetOptionCommandE
	_ZTIN4inet19UdpSetOptionSubcodeE
	_ZTIN4inet19UdpSourceFilterModeE
	_ZTIN4inet19UserPriorityTagBaseE
	_ZTIN4inet19XMacDataFrameHeaderE
	_ZTIN4inet19XMacProtocolPrinterE
	_ZTIN4inet19physicalenvironment10FlatGroundE
	_ZTIN4inet19physicalenvironment12IObjectCacheE
	_ZTIN4inet19physicalenvironment14BvhObjectCacheE
	_ZTIN4inet19physicalenvironment14OsgEarthGroundE
	_ZTIN4inet19physicalenvironment14PhysicalObjectE
	_ZTIN4inet19physicalenvironment15GridObjectCacheE
	_ZTIN4inet19physicalenvironment15IPhysicalObjectE
	_ZTIN4inet19physicalenvironment16MaterialRegistryE
	_ZTIN4inet19physicalenvironment17IMaterialRegistryE
	_ZTIN4inet19physicalenvironment18MaterialDescriptorE
	_ZTIN4inet19physicalenvironment19PhysicalEnvironmentE
	_ZTIN4inet19physicalenvironment20IPhysicalEnvironmentE
	_ZTIN4inet19physicalenvironment24PhysicalObjectDescriptorE
	_ZTIN4inet19physicalenvironment7IGroundE
	_ZTIN4inet19physicalenvironment8MaterialE
	_ZTIN4inet19physicalenvironment9IMaterialE
	_ZTIN4inet20ArpProtocolDissectorE
	_ZTIN4inet20BMacHeaderSerializerE
	_ZTIN4inet20BytesChunkDescriptorE
	_ZTIN4inet20BytesChunkSerializerE
	_ZTIN4inet20CareOfTestDescriptorE
	_ZTIN4inet20ChunkQueueDescriptorE
	_ZTIN4inet20EchoPacketDescriptorE
	_ZTIN4inet20EchoPacketSerializerE
	_ZTIN4inet20EcnTagBaseDescriptorE
	_ZTIN4inet20EmptyChunkSerializerE
	_ZTIN4inet20EncodedSourceAddressE
	_ZTIN4inet20EtherFrameClassifierE
	_ZTIN4inet20EthernetCloseCommandE
	_ZTIN4inet20EthernetControlFrameE
	_ZTIN4inet20EthernetMacDissectorE
	_ZTIN4inet20EthernetPhyDissectorE
	_ZTIN4inet20ExampleQosClassifierE
	_ZTIN4inet20GpsrBeaconDescriptorE
	_ZTIN4inet20GpsrOptionDescriptorE
	_ZTIN4inet20HostAutoConfiguratorE
	_ZTIN4inet20IcmpHeaderDescriptorE
	_ZTIN4inet20IcmpHeaderSerializerE
	_ZTIN4inet20Icmpv6EchoRequestMsgE
	_ZTIN4inet20IgmpHeaderSerializerE
	_ZTIN4inet20IndicationDescriptorE
	_ZTIN4inet20IndicatorLabelFigureE
	_ZTIN4inet20InterfaceUpOperationE
	_ZTIN4inet20Ipv4HeaderDescriptorE
	_ZTIN4inet20Ipv4HeaderSerializerE
	_ZTIN4inet20Ipv4NodeConfiguratorE
	_ZTIN4inet20Ipv4OptionDescriptorE
	_ZTIN4inet20Ipv6ExtHeaderTagBaseE
	_ZTIN4inet20Ipv6HeaderDescriptorE
	_ZTIN4inet20Ipv6HeaderSerializerE
	_ZTIN4inet20L3SocketCloseCommandE
	_ZTIN4inet20LdpAddressDescriptorE
	_ZTIN4inet20LifecycleUnsupportedE
	_ZTIN4inet20LsrProtocolDissectorE
	_ZTIN4inet20ModuleCrashOperationE
	_ZTIN4inet20ModuleStartOperationE
	_ZTIN4inet20MplsHeaderDescriptorE
	_ZTIN4inet20MplsPacketSerializerE
	_ZTIN4inet20MultiFieldClassifier23PacketDissectorCallbackE
	_ZTIN4inet20MultiFieldClassifierE
	_ZTIN4inet20NextHopInterfaceDataE
	_ZTIN4inet20PacketDrillSctpChunkE
	_ZTIN4inet20PacketDrillTcpOptionE
	_ZTIN4inet20PimProtocolDissectorE
	_ZTIN4inet20PppProtocolDissectorE
	_ZTIN4inet20PppTrailerDescriptorE
	_ZTIN4inet20PppTrailerSerializerE
	_ZTIN4inet20QuaternionDescriptorE
	_ZTIN4inet20RipProtocolDissectorE
	_ZTIN4inet20RotatingMobilityBaseE
	_ZTIN4inet20RoutingTableRecorderE
	_ZTIN4inet20RsvpHopObjDescriptorE
	_ZTIN4inet20RsvpPacketDescriptorE
	_ZTIN4inet20SctpRcvReqDescriptorE
	_ZTIN4inet20SctpRtoReqDescriptorE
	_ZTIN4inet20SessionObjDescriptorE
	_ZTIN4inet20SignalBitrateTagBaseE
	_ZTIN4inet20SliceChunkDescriptorE
	_ZTIN4inet20SliceChunkSerializerE
	_ZTIN4inet20StaticLinearMobilityE
	_ZTIN4inet20StpProtocolDissectorE
	_ZTIN4inet20TcpCommandDescriptorE
	_ZTIN4inet20TcpProtocolDissectorE
	_ZTIN4inet20TlvOptionsDescriptorE
	_ZTIN4inet20TosTagBaseDescriptorE
	_ZTIN4inet20TransportProtocolIndE
	_ZTIN4inet20TransportProtocolReqE
	_ZTIN4inet20UdpProtocolDissectorE
	_ZTIN4inet20UdpVideoStreamClientE
	_ZTIN4inet20UdpVideoStreamServer15VideoStreamDataE
	_ZTIN4inet20UdpVideoStreamServerE
	_ZTIN4inet20XMacHeaderSerializerE
	_ZTIN4inet21ApskProtocolDissectorE
	_ZTIN4inet21BMacProtocolDissectorE
	_ZTIN4inet21BindingRefreshRequestE
	_ZTIN4inet21ChunkBufferDescriptorE
	_ZTIN4inet21DhcpMessageDescriptorE
	_ZTIN4inet21DhcpMessageSerializerE
	_ZTIN4inet21DhcpOptionsDescriptorE
	_ZTIN4inet21DscpTagBaseDescriptorE
	_ZTIN4inet21EchoProtocolDissectorE
	_ZTIN4inet21EncodedUnicastAddressE
	_ZTIN4inet21EtherAppReqDescriptorE
	_ZTIN4inet21EtherAppReqSerializerE
	_ZTIN4inet21EthernetFcsDescriptorE
	_ZTIN4inet21EthernetFcsSerializerE
	_ZTIN4inet21EulerAnglesDescriptorE
	_ZTIN4inet21FieldsChunkDescriptorE
	_ZTIN4inet21FieldsChunkSerializerE
	_ZTIN4inet21FlowSpecObjDescriptorE
	_ZTIN4inet21GroupRecordDescriptorE
	_ZTIN4inet21HelloOptionDescriptorE
	_ZTIN4inet21HopLimitIndDescriptorE
	_ZTIN4inet21HopLimitReqDescriptorE
	_ZTIN4inet21IcmpProtocolDissectorE
	_ZTIN4inet21Icmpv6PacketTooBigMsgE
	_ZTIN4inet21Icmpv6ParamProblemMsgE
	_ZTIN4inet21Icmpv6ProtocolPrinterE
	_ZTIN4inet21Icmpv6TimeExceededMsgE
	_ZTIN4inet21Ieee8022LlcSnapHeaderE
	_ZTIN4inet21IgmpMessageDescriptorE
	_ZTIN4inet21IgmpProtocolDissectorE
	_ZTIN4inet21Igmpv1QueryDescriptorE
	_ZTIN4inet21Igmpv2LeaveDescriptorE
	_ZTIN4inet21Igmpv2QueryDescriptorE
	_ZTIN4inet21Igmpv3QueryDescriptorE
	_ZTIN4inet21InterfaceProtocolDataE
	_ZTIN4inet21Ipv4OptionRecordRouteE
	_ZTIN4inet21Ipv4OptionRouterAlertE
	_ZTIN4inet21Ipv4ProtocolDissectorE
	_ZTIN4inet21Ipv4SocketBindCommandE
	_ZTIN4inet21Ipv4SocketCommandBaseE
	_ZTIN4inet21Ipv6ProtocolDissectorE
	_ZTIN4inet21Ipv6SocketBindCommandE
	_ZTIN4inet21Ipv6SocketCommandBaseE
	_ZTIN4inet21L2NetworkConfigurator10L2TopologyE
	_ZTIN4inet21L2NetworkConfigurator13InterfaceInfoE
	_ZTIN4inet21L2NetworkConfigurator4LinkE
	_ZTIN4inet21L2NetworkConfigurator4NodeE
	_ZTIN4inet21L2NetworkConfiguratorE
	_ZTIN4inet21LMacProtocolDissectorE
	_ZTIN4inet21LabeledPolylineFigureE
	_ZTIN4inet21ModulePathAddressTypeE
	_ZTIN4inet21MplsProtocolDissectorE
	_ZTIN4inet21NextHopMulticastRouteE
	_ZTIN4inet21PacketDrillExpressionE
	_ZTIN4inet21PimRegisterDescriptorE
	_ZTIN4inet21PsbTimerMsgDescriptorE
	_ZTIN4inet21RsvpMessageDescriptorE
	_ZTIN4inet21RsvpPathMsgDescriptorE
	_ZTIN4inet21RsvpProtocolDissectorE
	_ZTIN4inet21RsvpResvMsgDescriptorE
	_ZTIN4inet21SctpInfoReqDescriptorE
	_ZTIN4inet21SctpOpenReqDescriptorE
	_ZTIN4inet21SctpSendReqDescriptorE
	_ZTIN4inet21TransportProtocolBaseE
	_ZTIN4inet21TransportPseudoHeaderE
	_ZTIN4inet21VlanTagBaseDescriptorE
	_ZTIN4inet21XMacProtocolDissectorE
	_ZTIN4inet22BindingAcknowledgementE
	_ZTIN4inet22BindingErrorDescriptorE
	_ZTIN4inet22BpduProtocolIdentifierE
	_ZTIN4inet22DefaultProtocolPrinterE
	_ZTIN4inet22ErrorRateIndDescriptorE
	_ZTIN4inet22EtherAppRespDescriptorE
	_ZTIN4inet22EtherAppRespSerializerE
	_ZTIN4inet22EthernetDestroyCommandE
	_ZTIN4inet22HomeTestInitDescriptorE
	_ZTIN4inet22Icmpv6HeaderDescriptorE
	_ZTIN4inet22Icmpv6HeaderSerializerE
	_ZTIN4inet22Icmpv6ParameterProblemE
	_ZTIN4inet22Ieee8021dInterfaceDataE
	_ZTIN4inet22Igmpv1ReportDescriptorE
	_ZTIN4inet22Igmpv2ReportDescriptorE
	_ZTIN4inet22Igmpv3ReportDescriptorE
	_ZTIN4inet22InterfaceDownOperationE
	_ZTIN4inet22InterfaceIndDescriptorE
	_ZTIN4inet22InterfaceOperationBaseE
	_ZTIN4inet22InterfaceReqDescriptorE
	_ZTIN4inet22Ipv4MulticastGroupInfoE
	_ZTIN4inet22Ipv4NatEntryDescriptorE
	_ZTIN4inet22Ipv4SocketCloseCommandE
	_ZTIN4inet22Ipv6MulticastGroupInfoE
	_ZTIN4inet22Ipv6NdOptionDescriptorE
	_ZTIN4inet22Ipv6NeighbourDiscoveryE
	_ZTIN4inet22Ipv6RedirectDescriptorE
	_ZTIN4inet22Ipv6RouterSolicitationE
	_ZTIN4inet22Ipv6SocketCloseCommandE
	_ZTIN4inet22L3AddressIndDescriptorE
	_ZTIN4inet22L3AddressReqDescriptorE
	_ZTIN4inet22L3SocketConnectCommandE
	_ZTIN4inet22L3SocketDestroyCommandE
	_ZTIN4inet22LinkStateMsgDescriptorE
	_ZTIN4inet22ManetProtocolDissectorE
	_ZTIN4inet22MulticastReqDescriptorE
	_ZTIN4inet22NextHopProtocolPrinterE
	_ZTIN4inet22PimJoinPruneDescriptorE
	_ZTIN4inet22ProbabilisticBroadcastE
	_ZTIN4inet22RandomWaypointMobilityE
	_ZTIN4inet22RsvpHelloMsgDescriptorE
	_ZTIN4inet22RsvpPathTearDescriptorE
	_ZTIN4inet22RsvpResvTearDescriptorE
	_ZTIN4inet22SctpPathInfoDescriptorE
	_ZTIN4inet22SctpResetReqDescriptorE
	_ZTIN4inet22SctpSendQueueAbatedReqE
	_ZTIN4inet22StationaryMobilityBaseE
	_ZTIN4inet22TcpErrorInfoDescriptorE
	_ZTIN4inet22TcpGenericServerThreadE
	_ZTIN4inet22ThruputMeteringChannelE
	_ZTIN4inet22TlvOptionRawDescriptorE
	_ZTIN4inet22TwoRateThreeColorMeterE
	_ZTIN4inet22UdpSetBroadcastCommandE
	_ZTIN4inet22cPacketChunkDescriptorE
	_ZTIN4inet23AddressVectorDescriptorE
	_ZTIN4inet23ApskPhyHeaderDescriptorE
	_ZTIN4inet23BindingUpdateDescriptorE
	_ZTIN4inet23BitCountChunkDescriptorE
	_ZTIN4inet23BitCountChunkSerializerE
	_ZTIN4inet23EthernetFilledIfgSignalE
	_ZTIN4inet23EthernetProtocolPrinterE
	_ZTIN4inet23FilterSpecObjDescriptorE
	_ZTIN4inet23FloodingProtocolPrinterE
	_ZTIN4inet23GenericAppMsgDescriptorE
	_ZTIN4inet23GenericAppMsgSerializerE
	_ZTIN4inet23HelloTimerMsgDescriptorE
	_ZTIN4inet23IcmpEchoReplyDescriptorE
	_ZTIN4inet23Icmpv6ProtocolDissectorE
	_ZTIN4inet23Ieee80211SubtypeTagBaseE
	_ZTIN4inet23Ieee8021dBpduSerializerE
	_ZTIN4inet23Ieee802SapIndDescriptorE
	_ZTIN4inet23Ieee802SapReqDescriptorE
	_ZTIN4inet23Ipv4NetworkConfigurator13InterfaceInfoE
	_ZTIN4inet23Ipv4NetworkConfigurator4NodeE
	_ZTIN4inet23Ipv4NetworkConfigurator8TopologyE
	_ZTIN4inet23Ipv4NetworkConfiguratorE
	_ZTIN4inet23Ipv4OptionEndDescriptorE
	_ZTIN4inet23Ipv4OptionNopDescriptorE
	_ZTIN4inet23Ipv6NdMessageDescriptorE
	_ZTIN4inet23Ipv6NdOptionsDescriptorE
	_ZTIN4inet23Ipv6NdPrefixInformationE
	_ZTIN4inet23Ipv6RouterAdvertisementE
	_ZTIN4inet23L4PortTagBaseDescriptorE
	_ZTIN4inet23MacAddressIndDescriptorE
	_ZTIN4inet23MacAddressReqDescriptorE
	_ZTIN4inet23NetPerfMeterDataMessageE
	_ZTIN4inet23NetworkConfiguratorBase13InterfaceInfoE
	_ZTIN4inet23NetworkConfiguratorBase4LinkE
	_ZTIN4inet23NetworkConfiguratorBase4NodeE
	_ZTIN4inet23NetworkConfiguratorBase8LinkInfoE
	_ZTIN4inet23NetworkConfiguratorBase8TopologyE
	_ZTIN4inet23NetworkConfiguratorBaseE
	_ZTIN4inet23NextHopForwardingHeaderE
	_ZTIN4inet23PathNotifyMsgDescriptorE
	_ZTIN4inet23PsbTimeoutMsgDescriptorE
	_ZTIN4inet23ReorderBufferDescriptorE
	_ZTIN4inet23RsbTimeoutMsgDescriptorE
	_ZTIN4inet23RsvpPathErrorDescriptorE
	_ZTIN4inet23RsvpResvErrorDescriptorE
	_ZTIN4inet23ScenarioTimerDescriptorE
	_ZTIN4inet23SctpStatusReqDescriptorE
	_ZTIN4inet23SequenceChunkDescriptorE
	_ZTIN4inet23SequenceChunkSerializerE
	_ZTIN4inet23SignalBandIndDescriptorE
	_ZTIN4inet23SignalBandReqDescriptorE
	_ZTIN4inet23SignalTagBaseDescriptorE
	_ZTIN4inet23SignalTimeIndDescriptorE
	_ZTIN4inet23SignallingMsgDescriptorE
	_ZTIN4inet23SocketTagBaseDescriptorE
	_ZTIN4inet23TcpSetTimeToLiveCommandE
	_ZTIN4inet23TcpStatusInfoDescriptorE
	_ZTIN4inet23TedChangeInfoDescriptorE
	_ZTIN4inet23TlvOptionBaseDescriptorE
	_ZTIN4inet23UdpSetTimeToLiveCommandE
	_ZTIN4inet24AckingMacProtocolPrinterE
	_ZTIN4inet24ApplicationOperationBaseE
	_ZTIN4inet24ApplicationStopOperationE
	_ZTIN4inet24BMacHeaderBaseDescriptorE
	_ZTIN4inet24ByteCountChunkDescriptorE
	_ZTIN4inet24ByteCountChunkSerializerE
	_ZTIN4inet24CareOfTestInitDescriptorE
	_ZTIN4inet24CsmaCaMacProtocolPrinterE
	_ZTIN4inet24DefaultProtocolDissectorE
	_ZTIN4inet24EthernetSignalDescriptorE
	_ZTIN4inet24FloodingHeaderDescriptorE
	_ZTIN4inet24HoldtimeOptionDescriptorE
	_ZTIN4inet24Icmpv6DestUnreachableMsgE
	_ZTIN4inet24Ieee80211EtherTypeHeaderE
	_ZTIN4inet24Ieee8022LlcSocketCommandE
	_ZTIN4inet24InterfaceEntryDescriptorE
	_ZTIN4inet24Ipv4OptionsIndDescriptorE
	_ZTIN4inet24Ipv4OptionsReqDescriptorE
	_ZTIN4inet24Ipv4SocketConnectCommandE
	_ZTIN4inet24Ipv4SocketDestroyCommandE
	_ZTIN4inet24Ipv6AuthenticationHeaderE
	_ZTIN4inet24Ipv6SocketConnectCommandE
	_ZTIN4inet24Ipv6SocketDestroyCommandE
	_ZTIN4inet24JoinPruneGroupDescriptorE
	_ZTIN4inet24L3SocketClosedIndicationE
	_ZTIN4inet24LMacHeaderBaseDescriptorE
	_ZTIN4inet24LineSegmentsMobilityBaseE
	_ZTIN4inet24MacProtocolIndDescriptorE
	_ZTIN4inet24MacProtocolReqDescriptorE
	_ZTIN4inet24MobilityHeaderDescriptorE
	_ZTIN4inet24NextHopProtocolDissectorE
	_ZTIN4inet24PacketDrillSctpParameterE
	_ZTIN4inet24SctpCommandReqDescriptorE
	_ZTIN4inet24SctpConnectReqDescriptorE
	_ZTIN4inet24SenderTspecObjDescriptorE
	_ZTIN4inet24SignalPowerIndDescriptorE
	_ZTIN4inet24SignalPowerReqDescriptorE
	_ZTIN4inet24StaticConcentricMobilityE
	_ZTIN4inet24SuperpositioningMobilityE
	_ZTIN4inet24TcpConnectInfoDescriptorE
	_ZTIN4inet24TcpOpenCommandDescriptorE
	_ZTIN4inet24TunControlInfoDescriptorE
	_ZTIN4inet24TunOpenCommandDescriptorE
	_ZTIN4inet24UdpBindCommandDescriptorE
	_ZTIN4inet24UdpControlInfoDescriptorE
	_ZTIN4inet24WiseRouteProtocolPrinterE
	_ZTIN4inet24XMacHeaderBaseDescriptorE
	_ZTIN4inet25AckingMacHeaderDescriptorE
	_ZTIN4inet25AckingMacHeaderSerializerE
	_ZTIN4inet25ApplicationStartOperationE
	_ZTIN4inet25CreationTimeTagDescriptorE
	_ZTIN4inet25CsmaCaMacHeaderDescriptorE
	_ZTIN4inet25CsmaCaMacHeaderSerializerE
	_ZTIN4inet25EthernetPaddingDescriptorE
	_ZTIN4inet25EthernetPaddingSerializerE
	_ZTIN4inet25FloodingProtocolDissectorE
	_ZTIN4inet25HelloTimeoutMsgDescriptorE
	_ZTIN4inet25HopLimitTagBaseDescriptorE
	_ZTIN4inet25IcmpEchoRequestDescriptorE
	_ZTIN4inet25Ieee8021qHeaderDescriptorE
	_ZTIN4inet25Ipv6HopByHopOptionsHeaderE
	_ZTIN4inet25Ipv6NeighbourSolicitationE
	_ZTIN4inet25LabelRequestObjDescriptorE
	_ZTIN4inet25LdpLabelMappingDescriptorE
	_ZTIN4inet25LdpLabelRequestDescriptorE
	_ZTIN4inet25NetPerfMeterTransmitTimerE
	_ZTIN4inet25PimRegisterStopDescriptorE
	_ZTIN4inet25PimStateRefreshDescriptorE
	_ZTIN4inet25ProtocolTagBaseDescriptorE
	_ZTIN4inet25SctpPathInfoReqDescriptorE
	_ZTIN4inet25SingleRateThreeColorMeterE
	_ZTIN4inet25TeLinkStateInfoDescriptorE
	_ZTIN4inet25TunCloseCommandDescriptorE
	_ZTIN4inet25TunSocketClosedIndicationE
	_ZTIN4inet25UdpCloseCommandDescriptorE
	_ZTIN4inet25UdpSetReuseAddressCommandE
	_ZTIN4inet25UdpSocketClosedIndicationE
	_ZTIN4inet25UnitDiskProtocolDissectorE
	_ZTIN4inet25UserPriorityIndDescriptorE
	_ZTIN4inet25UserPriorityReqDescriptorE
	_ZTIN4inet25WeightedHistogramRecorder7cWeightE
	_ZTIN4inet25WeightedHistogramRecorderE
	_ZTIN4inet25WiseRouteHeaderDescriptorE
	_ZTIN4inet26AckingMacProtocolDissectorE
	_ZTIN4inet26BMacControlFrameDescriptorE
	_ZTIN4inet26CsmaCaMacProtocolDissectorE
	_ZTIN4inet26CsmaCaMacTrailerDescriptorE
	_ZTIN4inet26CsmaCaMacTrailerSerializerE
	_ZTIN4inet26DrPriorityOptionDescriptorE
	_ZTIN4inet26FlowDescriptor_tDescriptorE
	_ZTIN4inet26FragmentationReqDescriptorE
	_ZTIN4inet26Ieee8022LlcProtocolPrinterE
	_ZTIN4inet26InterfaceTagBaseDescriptorE
	_ZTIN4inet26Ipv4SocketClosedIndicationE
	_ZTIN4inet26Ipv6ExtHeaderIndDescriptorE
	_ZTIN4inet26Ipv6ExtHeaderReqDescriptorE
	_ZTIN4inet26Ipv6NeighbourAdvertisementE
	_ZTIN4inet26Ipv6SocketClosedIndicationE
	_ZTIN4inet26L3AddressTagBaseDescriptorE
	_ZTIN4inet26LMacControlFrameDescriptorE
	_ZTIN4inet26LinearRotatingMobilityBaseE
	_ZTIN4inet26NextHopNetworkConfiguratorE
	_ZTIN4inet26ReassemblyBufferDescriptorE
	_ZTIN4inet26SctpAvailableReqDescriptorE
	_ZTIN4inet26SignalBitrateIndDescriptorE
	_ZTIN4inet26SignalBitrateReqDescriptorE
	_ZTIN4inet26SimpleVoipPacketDescriptorE
	_ZTIN4inet26TcpAcceptCommandDescriptorE
	_ZTIN4inet26TcpAvailableInfoDescriptorE
	_ZTIN4inet26TcpSetTosCommandDescriptorE
	_ZTIN4inet26UdpSetMulticastLoopCommandE
	_ZTIN4inet26UdpSetTosCommandDescriptorE
	_ZTIN4inet26WiseRouteProtocolDissectorE
	_ZTIN4inet26XMacControlFrameDescriptorE
	_ZTIN4inet26cPreModuleInitNotificationE
	_ZTIN4inet27AddressListOptionDescriptorE
	_ZTIN4inet27ApplicationPacketDescriptorE
	_ZTIN4inet27ApplicationPacketSerializerE
	_ZTIN4inet27BehaviorAggregateClassifier23PacketDissectorCallbackE
	_ZTIN4inet27BehaviorAggregateClassifierE
	_ZTIN4inet27EthernetFrameTypeComparatorE
	_ZTIN4inet27EthernetJamSignalDescriptorE
	_ZTIN4inet27EthernetMacHeaderDescriptorE
	_ZTIN4inet27EthernetMacHeaderSerializerE
	_ZTIN4inet27EthernetPhyHeaderDescriptorE
	_ZTIN4inet27EthernetPhyHeaderSerializerE
	_ZTIN4inet27HomeAddressOptionDescriptorE
	_ZTIN4inet27IGeographicCoordinateSystemE
	_ZTIN4inet27Ieee802154ProtocolDissectorE
	_ZTIN4inet27Ieee8022LlcHeaderDescriptorE
	_ZTIN4inet27Ieee8022LlcHeaderSerializerE
	_ZTIN4inet27Ieee802SapTagBaseDescriptorE
	_ZTIN4inet27InterfaceEntryChangeDetailsE
	_ZTIN4inet27Ipv4AddressVectorDescriptorE
	_ZTIN4inet27Ipv4FlatNetworkConfiguratorE
	_ZTIN4inet27Ipv4OptionUnknownDescriptorE
	_ZTIN4inet27Ipv6FlatNetworkConfiguratorE
	_ZTIN4inet27Ipv6NdControlInfoDescriptorE
	_ZTIN4inet27Ipv6RoutingHeaderDescriptorE
	_ZTIN4inet27MacAddressTagBaseDescriptorE
	_ZTIN4inet27NetworkHeaderBaseDescriptorE
	_ZTIN4inet27NextHopAddressReqDescriptorE
	_ZTIN4inet27PacketDropDetailsDescriptorE
	_ZTIN4inet27PacketProtocolTagDescriptorE
	_ZTIN4inet27RsbCommitTimerMsgDescriptorE
	_ZTIN4inet27SctpSimpleMessageDescriptorE
	_ZTIN4inet27SenderTemplateObjDescriptorE
	_ZTIN4inet27ShortcutMacHeaderDescriptorE
	_ZTIN4inet27ShortcutPhyHeaderDescriptorE
	_ZTIN4inet27SignalBandTagBaseDescriptorE
	_ZTIN4inet27TcpSetDscpCommandDescriptorE
	_ZTIN4inet27TunDestroyCommandDescriptorE
	_ZTIN4inet27UdpConnectCommandDescriptorE
	_ZTIN4inet27UdpDestroyCommandDescriptorE
	_ZTIN4inet27UdpSetDscpCommandDescriptorE
	_ZTIN4inet27UnitDiskPhyHeaderDescriptorE
	_ZTIN4inet27UnitDiskPhyHeaderSerializerE
	_ZTIN4inet27cPostModuleInitNotificationE
	_ZTIN4inet28CsmaCaMacAckHeaderDescriptorE
	_ZTIN4inet28EthernetPauseFrameDescriptorE
	_ZTIN4inet28GenerationIdOptionDescriptorE
	_ZTIN4inet28Icmpv6EchoReplyMsgDescriptorE
	_ZTIN4inet28Ieee8022LlcSocketOpenCommandE
	_ZTIN4inet28Ipv4MulticastGroupSourceInfoE
	_ZTIN4inet28Ipv4OptionStreamIdDescriptorE
	_ZTIN4inet28Ipv4OptionsTagBaseDescriptorE
	_ZTIN4inet28Ipv6DestinationOptionsHeaderE
	_ZTIN4inet28Ipv6FragmentHeaderDescriptorE
	_ZTIN4inet28Ipv6NdSourceLinkLayerAddressE
	_ZTIN4inet28Ipv6NdTargetLinkLayerAddressE
	_ZTIN4inet28Mipv6HaInformationDescriptorE
	_ZTIN4inet28Mipv6NdAdvertisementIntervalE
	_ZTIN4inet28NetworkProtocolIndDescriptorE
	_ZTIN4inet28NetworkProtocolReqDescriptorE
	_ZTIN4inet28PacketUserPriorityComparatorE
	_ZTIN4inet28ProbabilisticBroadcastHeaderE
	_ZTIN4inet28ProbabilisticProtocolPrinterE
	_ZTIN4inet28RsbRefreshTimerMsgDescriptorE
	_ZTIN4inet28SenderDescriptor_tDescriptorE
	_ZTIN4inet28ShortcutMacProtocolDissectorE
	_ZTIN4inet28ShortcutPhyProtocolDissectorE
	_ZTIN4inet28SignalPowerTagBaseDescriptorE
	_ZTIN4inet28UdpErrorIndicationDescriptorE
	_ZTIN4inet29BMacDataFrameHeaderDescriptorE
	_ZTIN4inet29BpduProtocolVersionIdentifierE
	_ZTIN4inet29ChunkBuffer__RegionDescriptorE
	_ZTIN4inet29CsmaCaMacDataHeaderDescriptorE
	_ZTIN4inet29DispatchProtocolIndDescriptorE
	_ZTIN4inet29DispatchProtocolReqDescriptorE
	_ZTIN4inet29EncodedGroupAddressDescriptorE
	_ZTIN4inet29EthernetBindCommandDescriptorE
	_ZTIN4inet29EthernetCommandBaseDescriptorE
	_ZTIN4inet29IProtocolRegistrationListenerE
	_ZTIN4inet29Ieee80211MacProtocolDissectorE
	_ZTIN4inet29Ieee80211PhyProtocolDissectorE
	_ZTIN4inet29Ieee80211SubtypeIndDescriptorE
	_ZTIN4inet29Ieee80211SubtypeReqDescriptorE
	_ZTIN4inet29Ieee802154MacHeaderDescriptorE
	_ZTIN4inet29Ieee8022LlcSocketCloseCommandE
	_ZTIN4inet29Ieee802PauseCommandDescriptorE
	_ZTIN4inet29Ipv4OptionTimestampDescriptorE
	_ZTIN4inet29Ipv6ExtensionHeaderDescriptorE
	_ZTIN4inet29L3SocketBindCommandDescriptorE
	_ZTIN4inet29L3SocketCommandBaseDescriptorE
	_ZTIN4inet29LMacDataFrameHeaderDescriptorE
	_ZTIN4inet29LanPruneDelayOptionDescriptorE
	_ZTIN4inet29OsgGeographicCoordinateSystemE
	_ZTIN4inet29TcpSetOptionCommandDescriptorE
	_ZTIN4inet29TransportHeaderBaseDescriptorE
	_ZTIN4inet29UdpJoinMulticastGroupsCommandE
	_ZTIN4inet29UdpSetOptionCommandDescriptorE
	_ZTIN4inet29UserPriorityTagBaseDescriptorE
	_ZTIN4inet29XMacDataFrameHeaderDescriptorE
	_ZTIN4inet30AdaptiveProbabilisticBroadcastE
	_ZTIN4inet30EncodedSourceAddressDescriptorE
	_ZTIN4inet30EthernetCloseCommandDescriptorE
	_ZTIN4inet30EthernetControlFrameDescriptorE
	_ZTIN4inet30EthernetControlFrameSerializerE
	_ZTIN4inet30EthernetSocketClosedIndicationE
	_ZTIN4inet30FlowDescriptorVectorDescriptorE
	_ZTIN4inet30IInterfaceRegistrationListenerE
	_ZTIN4inet30Icmpv6EchoRequestMsgDescriptorE
	_ZTIN4inet30Ieee80211MgmtProtocolDissectorE
	_ZTIN4inet30Ipv6ExtHeaderTagBaseDescriptorE
	_ZTIN4inet30L3SocketCloseCommandDescriptorE
	_ZTIN4inet30ProbabilisticProtocolDissectorE
	_ZTIN4inet30SignalBitrateTagBaseDescriptorE
	_ZTIN4inet30TransportProtocolIndDescriptorE
	_ZTIN4inet30TransportProtocolReqDescriptorE
	_ZTIN4inet30UdpJoinMulticastSourcesCommandE
	_ZTIN4inet30UdpLeaveMulticastGroupsCommandE
	_ZTIN4inet31BindingRefreshRequestDescriptorE
	_ZTIN4inet31EncodedUnicastAddressDescriptorE
	_ZTIN4inet31Icmpv6PacketTooBigMsgDescriptorE
	_ZTIN4inet31Icmpv6ParamProblemMsgDescriptorE
	_ZTIN4inet31Icmpv6TimeExceededMsgDescriptorE
	_ZTIN4inet31Ieee8022LlcSnapHeaderDescriptorE
	_ZTIN4inet31Ieee8022LlcSocketDestroyCommandE
	_ZTIN4inet31Ipv4OptionRecordRouteDescriptorE
	_ZTIN4inet31Ipv4OptionRouterAlertDescriptorE
	_ZTIN4inet31Ipv4SocketBindCommandDescriptorE
	_ZTIN4inet31Ipv4SocketCommandBaseDescriptorE
	_ZTIN4inet31Ipv6SocketBindCommandDescriptorE
	_ZTIN4inet31Ipv6SocketCommandBaseDescriptorE
	_ZTIN4inet31TransportPseudoHeaderDescriptorE
	_ZTIN4inet31TransportPseudoHeaderSerializerE
	_ZTIN4inet31UdpBlockMulticastSourcesCommandE
	_ZTIN4inet31UdpLeaveMulticastSourcesCommandE
	_ZTIN4inet31UdpSetMulticastInterfaceCommandE
	_ZTIN4inet32BindingAcknowledgementDescriptorE
	_ZTIN4inet32EthernetDestroyCommandDescriptorE
	_ZTIN4inet32Ipv4SocketCloseCommandDescriptorE
	_ZTIN4inet32Ipv6RouterSolicitationDescriptorE
	_ZTIN4inet32Ipv6SocketCloseCommandDescriptorE
	_ZTIN4inet32L3SocketConnectCommandDescriptorE
	_ZTIN4inet32L3SocketDestroyCommandDescriptorE
	_ZTIN4inet32SctpSendQueueAbatedReqDescriptorE
	_ZTIN4inet32SimpleGeographicCoordinateSystemE
	_ZTIN4inet32UdpSetBroadcastCommandDescriptorE
	_ZTIN4inet33ChunkTemporarySharedPtrDescriptorE
	_ZTIN4inet33EthernetFilledIfgSignalDescriptorE
	_ZTIN4inet33Ieee80211SubtypeTagBaseDescriptorE
	_ZTIN4inet33Ieee8022LlcSocketClosedIndicationE
	_ZTIN4inet33Ipv6NdPrefixInformationDescriptorE
	_ZTIN4inet33Ipv6RouterAdvertisementDescriptorE
	_ZTIN4inet33NetPerfMeterDataMessageDescriptorE
	_ZTIN4inet33NextHopForwardingHeaderDescriptorE
	_ZTIN4inet33TcpSetTimeToLiveCommandDescriptorE
	_ZTIN4inet33TemporarySharedPtrClassDescriptorINS_5ChunkEEE
	_ZTIN4inet33UdpSetTimeToLiveCommandDescriptorE
	_ZTIN4inet33UdpUnblockMulticastSourcesCommandE
	_ZTIN4inet34Icmpv6DestUnreachableMsgDescriptorE
	_ZTIN4inet34Ieee80211EtherTypeHeaderDescriptorE
	_ZTIN4inet34Ieee8022LlcSocketCommandDescriptorE
	_ZTIN4inet34Ipv4SocketConnectCommandDescriptorE
	_ZTIN4inet34Ipv4SocketDestroyCommandDescriptorE
	_ZTIN4inet34Ipv6AuthenticationHeaderDescriptorE
	_ZTIN4inet34Ipv6NdSourceTargetLinkLayerAddressE
	_ZTIN4inet34Ipv6SocketConnectCommandDescriptorE
	_ZTIN4inet34Ipv6SocketDestroyCommandDescriptorE
	_ZTIN4inet34L3SocketClosedIndicationDescriptorE
	_ZTIN4inet34UdpSetMulticastSourceFilterCommandE
	_ZTIN4inet35Ipv6HopByHopOptionsHeaderDescriptorE
	_ZTIN4inet35Ipv6NeighbourSolicitationDescriptorE
	_ZTIN4inet35NetPerfMeterTransmitTimerDescriptorE
	_ZTIN4inet35TunSocketClosedIndicationDescriptorE
	_ZTIN4inet35UdpSetReuseAddressCommandDescriptorE
	_ZTIN4inet35UdpSocketClosedIndicationDescriptorE
	_ZTIN4inet36Ipv4SocketClosedIndicationDescriptorE
	_ZTIN4inet36Ipv6NeighbourAdvertisementDescriptorE
	_ZTIN4inet36Ipv6SocketClosedIndicationDescriptorE
	_ZTIN4inet36UdpSetMulticastLoopCommandDescriptorE
	_ZTIN4inet37AckingMacToEthernetPcapRecorderHelperE
	_ZTIN4inet38Ieee8022LlcSocketOpenCommandDescriptorE
	_ZTIN4inet38Ipv6DestinationOptionsHeaderDescriptorE
	_ZTIN4inet38Ipv6EncapsulatingSecurityPayloadHeaderE
	_ZTIN4inet38Ipv6NdSourceLinkLayerAddressDescriptorE
	_ZTIN4inet38Ipv6NdTargetLinkLayerAddressDescriptorE
	_ZTIN4inet38Mipv6NdAdvertisementIntervalDescriptorE
	_ZTIN4inet38ProbabilisticBroadcastHeaderDescriptorE
	_ZTIN4inet39Ieee8022LlcSocketCloseCommandDescriptorE
	_ZTIN4inet39UdpJoinMulticastGroupsCommandDescriptorE
	_ZTIN4inet3Arp13ArpCacheEntryE
	_ZTIN4inet3ArpE
	_ZTIN4inet3BoxE
	_ZTIN4inet3Ldp10fec_bind_tE
	_ZTIN4inet3Ldp13pending_req_tE
	_ZTIN4inet3Ldp5fec_tE
	_ZTIN4inet3Ldp9peer_infoE
	_ZTIN4inet3LdpE
	_ZTIN4inet3Pim12CrcInsertionE
	_ZTIN4inet3PimE
	_ZTIN4inet3PppE
	_ZTIN4inet3RipE
	_ZTIN4inet3StpE
	_ZTIN4inet3TedE
	_ZTIN4inet3TunE
	_ZTIN4inet3Udp12CrcInsertionE
	_ZTIN4inet3Udp8SockDescE
	_ZTIN4inet3UdpE
	_ZTIN4inet3bgp10BgpSessionE
	_ZTIN4inet3bgp13BgpUpdateNlriE
	_ZTIN4inet3bgp14BgpOpenMessageE
	_ZTIN4inet3bgp14BgpSessionTypeE
	_ZTIN4inet3bgp15BgpConfigReaderE
	_ZTIN4inet3bgp16BgpAsPathSegmentE
	_ZTIN4inet3bgp16BgpUpdateMessageE
	_ZTIN4inet3bgp18BgpPathSegmentTypeE
	_ZTIN4inet3bgp19BgpHeaderDescriptorE
	_ZTIN4inet3bgp19BgpHeaderSerializerE
	_ZTIN4inet3bgp19BgpKeepAliveMessageE
	_ZTIN4inet3bgp20BgpRoutingTableEntryE
	_ZTIN4inet3bgp23BgpOptionalParameterRawE
	_ZTIN4inet3bgp23BgpUpdateNlriDescriptorE
	_ZTIN4inet3bgp23BgpUpdatePathAttributesE
	_ZTIN4inet3bgp24BgpOpenMessageDescriptorE
	_ZTIN4inet3bgp24BgpOptionalParameterBaseE
	_ZTIN4inet3bgp24BgpUpdateWithdrawnRoutesE
	_ZTIN4inet3bgp26BgpAsPathSegmentDescriptorE
	_ZTIN4inet3bgp26BgpUpdateAttributeTypeCodeE
	_ZTIN4inet3bgp26BgpUpdateMessageDescriptorE
	_ZTIN4inet3bgp29BgpKeepAliveMessageDescriptorE
	_ZTIN4inet3bgp29BgpUpdatePathAttributesAsPathE
	_ZTIN4inet3bgp29BgpUpdatePathAttributesOriginE
	_ZTIN4inet3bgp30BgpUpdatePathAttributesNextHopE
	_ZTIN4inet3bgp32BgpUpdatePathAttributesLocalPrefE
	_ZTIN4inet3bgp33BgpOptionalParameterRawDescriptorE
	_ZTIN4inet3bgp33BgpUpdatePathAttributesAggregatorE
	_ZTIN4inet3bgp33BgpUpdatePathAttributesDescriptorE
	_ZTIN4inet3bgp34BgpOptionalParameterBaseDescriptorE
	_ZTIN4inet3bgp34BgpUpdateWithdrawnRoutesDescriptorE
	_ZTIN4inet3bgp36BgpUpdatePathAttributesMultiExitDiscE
	_ZTIN4inet3bgp38BgpUpdatePathAttributesAtomicAggregateE
	_ZTIN4inet3bgp39BgpUpdatePathAttributesAsPathDescriptorE
	_ZTIN4inet3bgp39BgpUpdatePathAttributesOriginDescriptorE
	_ZTIN4inet3bgp3BgpE
	_ZTIN4inet3bgp3fsm11EstablishedE
	_ZTIN4inet3bgp3fsm11OpenConfirmE
	_ZTIN4inet3bgp3fsm4IdleE
	_ZTIN4inet3bgp3fsm6ActiveE
	_ZTIN4inet3bgp3fsm7ConnectE
	_ZTIN4inet3bgp3fsm8OpenSentE
	_ZTIN4inet3bgp3fsm8TopStateE
	_ZTIN4inet3bgp40BgpUpdatePathAttributesNextHopDescriptorE
	_ZTIN4inet3bgp42BgpUpdatePathAttributesLocalPrefDescriptorE
	_ZTIN4inet3bgp43BgpUpdatePathAttributesAggregatorDescriptorE
	_ZTIN4inet3bgp46BgpUpdatePathAttributesMultiExitDiscDescriptorE
	_ZTIN4inet3bgp48BgpUpdatePathAttributesAtomicAggregateDescriptorE
	_ZTIN4inet3bgp7BgpTypeE
	_ZTIN4inet3bgp9BgpHeaderE
	_ZTIN4inet3bgp9BgpRouterE
	_ZTIN4inet3osg13TopLevelSceneE
	_ZTIN4inet3osg15SimulationSceneE
	_ZTIN4inet3osg16FindNodesVisitorINS0_15SimulationSceneEEE
	_ZTIN4inet3osg8LineNodeE
	_ZTIN4inet3rtp10RtcpPacketE
	_ZTIN4inet3rtp10RtpIfpTypeE
	_ZTIN4inet3rtp10RtpInpTypeE
	_ZTIN4inet3rtp10RtpProfile8SsrcGateE
	_ZTIN4inet3rtp10RtpProfileE
	_ZTIN4inet3rtp12RtpAvProfileE
	_ZTIN4inet3rtp12SenderReportE
	_ZTIN4inet3rtp13RtcpByePacketE
	_ZTIN4inet3rtp13RtpControlMsgE
	_ZTIN4inet3rtp13RtpMpegHeaderE
	_ZTIN4inet3rtp13RtpSenderInfoE
	_ZTIN4inet3rtp14RtcpPacketTypeE
	_ZTIN4inet3rtp14RtcpSdesPacketE
	_ZTIN4inet3rtp14RtpControlInfoE
	_ZTIN4inet3rtp14RtpInnerPacketE
	_ZTIN4inet3rtp15ReceptionReportE
	_ZTIN4inet3rtp15RtpReceiverInfoE
	_ZTIN4inet3rtp15RtpSenderStatusE
	_ZTIN4inet3rtp16RtpCiSessionLeftE
	_ZTIN4inet3rtp16RtpPayloadSenderE
	_ZTIN4inet3rtp17RtpCiEnterSessionE
	_ZTIN4inet3rtp17RtpCiLeaveSessionE
	_ZTIN4inet3rtp17RtpCiSenderStatusE
	_ZTIN4inet3rtp18RtpCiSenderControlE
	_ZTIN4inet3rtp18RtpParticipantInfoE
	_ZTIN4inet3rtp18RtpPayloadReceiverE
	_ZTIN4inet3rtp19RtpCiSessionEnteredE
	_ZTIN4inet3rtp19RtpHeaderDescriptorE
	_ZTIN4inet3rtp19RtpPacketSerializerE
	_ZTIN4inet3rtp20RtcpPacketDescriptorE
	_ZTIN4inet3rtp20RtcpPacketSerializerE
	_ZTIN4inet3rtp21RtpSessionControlInfoE
	_ZTIN4inet3rtp22RtcpSenderReportPacketE
	_ZTIN4inet3rtp22RtpSenderStatusMessageE
	_ZTIN4inet3rtp22SenderReportDescriptorE
	_ZTIN4inet3rtp23RtcpByePacketDescriptorE
	_ZTIN4inet3rtp23RtpCiCreateSenderModuleE
	_ZTIN4inet3rtp23RtpCiDeleteSenderModuleE
	_ZTIN4inet3rtp23RtpControlMsgDescriptorE
	_ZTIN4inet3rtp23RtpMpegHeaderDescriptorE
	_ZTIN4inet3rtp23RtpMpegPacketSerializerE
	_ZTIN4inet3rtp23RtpParticipantInfo_BaseE
	_ZTIN4inet3rtp23RtpSenderControlMessageE
	_ZTIN4inet3rtp24RtcpReceiverReportPacketE
	_ZTIN4inet3rtp24RtcpSdesPacketDescriptorE
	_ZTIN4inet3rtp24RtpCiSenderModuleCreatedE
	_ZTIN4inet3rtp24RtpCiSenderModuleDeletedE
	_ZTIN4inet3rtp24RtpControlInfoDescriptorE
	_ZTIN4inet3rtp24RtpInnerPacketDescriptorE
	_ZTIN4inet3rtp25ReceptionReportDescriptorE
	_ZTIN4inet3rtp26RtpCiSessionLeftDescriptorE
	_ZTIN4inet3rtp27RtpAvProfilePayload32SenderE
	_ZTIN4inet3rtp27RtpCiEnterSessionDescriptorE
	_ZTIN4inet3rtp27RtpCiLeaveSessionDescriptorE
	_ZTIN4inet3rtp27RtpCiSenderStatusDescriptorE
	_ZTIN4inet3rtp28RtpCiSenderControlDescriptorE
	_ZTIN4inet3rtp28RtpParticipantInfoDescriptorE
	_ZTIN4inet3rtp29RtpAvProfilePayload32ReceiverE
	_ZTIN4inet3rtp29RtpCiSessionEnteredDescriptorE
	_ZTIN4inet3rtp31RtpSenderControlMessageCommandsE
	_ZTIN4inet3rtp31RtpSessionControlInfoDescriptorE
	_ZTIN4inet3rtp32RtcpSenderReportPacketDescriptorE
	_ZTIN4inet3rtp32RtpSenderStatusMessageDescriptorE
	_ZTIN4inet3rtp33RtpCiCreateSenderModuleDescriptorE
	_ZTIN4inet3rtp33RtpCiDeleteSenderModuleDescriptorE
	_ZTIN4inet3rtp33RtpSenderControlMessageDescriptorE
	_ZTIN4inet3rtp34RtcpReceiverReportPacketDescriptorE
	_ZTIN4inet3rtp34RtpCiSenderModuleCreatedDescriptorE
	_ZTIN4inet3rtp34RtpCiSenderModuleDeletedDescriptorE
	_ZTIN4inet3rtp3RtpE
	_ZTIN4inet3rtp4RtcpE
	_ZTIN4inet3rtp8SdesItemE
	_ZTIN4inet3rtp9RtpHeaderE
	_ZTIN4inet3rtp9SdesChunkE
	_ZTIN4inet3tcp10TcpBaseAlgE
	_ZTIN4inet3tcp10TcpNewRenoE
	_ZTIN4inet3tcp11TcpWestwoodE
	_ZTIN4inet3tcp12TcpAlgorithmE
	_ZTIN4inet3tcp12TcpOptionEndE
	_ZTIN4inet3tcp12TcpOptionNopE
	_ZTIN4inet3tcp12TcpSendQueueE
	_ZTIN4inet3tcp13TcpConnectionE
	_ZTIN4inet3tcp13TcpOptionSackE
	_ZTIN4inet3tcp14SackDescriptorE
	_ZTIN4inet3tcp15TcpCrcInsertionE
	_ZTIN4inet3tcp15TcpReceiveQueueE
	_ZTIN4inet3tcp16TcpOptionNumbersE
	_ZTIN4inet3tcp16TcpOptionUnknownE
	_ZTIN4inet3tcp17TcpStateVariablesE
	_ZTIN4inet3tcp18SackItemDescriptorE
	_ZTIN4inet3tcp18TcpOptionTimestampE
	_ZTIN4inet3tcp18TcpSackRexmitQueueE
	_ZTIN4inet3tcp18TcpTahoeRenoFamilyE
	_ZTIN4inet3tcp19TcpHeaderDescriptorE
	_ZTIN4inet3tcp19TcpHeaderSerializerE
	_ZTIN4inet3tcp19TcpOptionDescriptorE
	_ZTIN4inet3tcp20TcpOptionWindowScaleE
	_ZTIN4inet3tcp21DumbTcpStateVariablesE
	_ZTIN4inet3tcp22TcpAlgorithmDescriptorE
	_ZTIN4inet3tcp22TcpNoCongestionControlE
	_ZTIN4inet3tcp22TcpOptionEndDescriptorE
	_ZTIN4inet3tcp22TcpOptionNopDescriptorE
	_ZTIN4inet3tcp22TcpOptionSackPermittedE
	_ZTIN4inet3tcp22TcpSendQueueDescriptorE
	_ZTIN4inet3tcp22TcpVegasStateVariablesE
	_ZTIN4inet3tcp23TcpConnectionDescriptorE
	_ZTIN4inet3tcp23TcpOptionMaxSegmentSizeE
	_ZTIN4inet3tcp23TcpOptionSackDescriptorE
	_ZTIN4inet3tcp24TcpBaseAlgStateVariablesE
	_ZTIN4inet3tcp25TcpReceiveQueueDescriptorE
	_ZTIN4inet3tcp25TcpWestwoodStateVariablesE
	_ZTIN4inet3tcp26TcpOptionUnknownDescriptorE
	_ZTIN4inet3tcp27TcpStateVariablesDescriptorE
	_ZTIN4inet3tcp28TcpOptionTimestampDescriptorE
	_ZTIN4inet3tcp28TcpSackRexmitQueueDescriptorE
	_ZTIN4inet3tcp30TcpOptionWindowScaleDescriptorE
	_ZTIN4inet3tcp32TcpOptionSackPermittedDescriptorE
	_ZTIN4inet3tcp32TcpTahoeRenoFamilyStateVariablesE
	_ZTIN4inet3tcp33TcpOptionMaxSegmentSizeDescriptorE
	_ZTIN4inet3tcp3Tcp8SockPairE
	_ZTIN4inet3tcp3TcpE
	_ZTIN4inet3tcp4SackE
	_ZTIN4inet3tcp7DumbTcpE
	_ZTIN4inet3tcp7TcpRenoE
	_ZTIN4inet3tcp8SackItemE
	_ZTIN4inet3tcp8TcpSpoofE
	_ZTIN4inet3tcp8TcpTahoeE
	_ZTIN4inet3tcp8TcpVegasE
	_ZTIN4inet3tcp9TcpHeaderE
	_ZTIN4inet3tcp9TcpOptionE
	_ZTIN4inet40EthernetSocketClosedIndicationDescriptorE
	_ZTIN4inet40RegionTagSet__cObjectRegionTagDescriptorE
	_ZTIN4inet40UdpJoinMulticastSourcesCommandDescriptorE
	_ZTIN4inet40UdpLeaveMulticastGroupsCommandDescriptorE
	_ZTIN4inet41Ieee8022LlcSocketDestroyCommandDescriptorE
	_ZTIN4inet41NetworkCommunicationFingerprintCalculatorE
	_ZTIN4inet41UdpBlockMulticastSourcesCommandDescriptorE
	_ZTIN4inet41UdpLeaveMulticastSourcesCommandDescriptorE
	_ZTIN4inet41UdpSetMulticastInterfaceCommandDescriptorE
	_ZTIN4inet43Ieee8022LlcSocketClosedIndicationDescriptorE
	_ZTIN4inet43UdpUnblockMulticastSourcesCommandDescriptorE
	_ZTIN4inet44Ipv6NdSourceTargetLinkLayerAddressDescriptorE
	_ZTIN4inet44UdpSetMulticastSourceFilterCommandDescriptorE
	_ZTIN4inet48Ipv6EncapsulatingSecurityPayloadHeaderDescriptorE
	_ZTIN4inet4BMac6StatesE
	_ZTIN4inet4BMacE
	_ZTIN4inet4DsdvE
	_ZTIN4inet4GpsrE
	_ZTIN4inet4IArp12NotificationE
	_ZTIN4inet4IArpE
	_ZTIN4inet4IcmpE
	_ZTIN4inet4Ipv416SocketDescriptorE
	_ZTIN4inet4Ipv421QueuedDatagramForHookE
	_ZTIN4inet4Ipv4E
	_ZTIN4inet4Ipv617ScheduledDatagramE
	_ZTIN4inet4Ipv621QueuedDatagramForHookE
	_ZTIN4inet4Ipv6E
	_ZTIN4inet4LMac6StatesE
	_ZTIN4inet4LMacE
	_ZTIN4inet4MplsE
	_ZTIN4inet4RstpE
	_ZTIN4inet4XMac6StatesE
	_ZTIN4inet4XMacE
	_ZTIN4inet4aodv11WaitForRrepE
	_ZTIN4inet4aodv13AodvRouteDataE
	_ZTIN4inet4aodv14RerrDescriptorE
	_ZTIN4inet4aodv14RrepDescriptorE
	_ZTIN4inet4aodv14RreqDescriptorE
	_ZTIN4inet4aodv15UnreachableNodeE
	_ZTIN4inet4aodv17AodvControlPacketE
	_ZTIN4inet4aodv17RrepAckDescriptorE
	_ZTIN4inet4aodv19PacketHolderMessageE
	_ZTIN4inet4aodv21AodvControlPacketTypeE
	_ZTIN4inet4aodv21WaitForRrepDescriptorE
	_ZTIN4inet4aodv25UnreachableNodeDescriptorE
	_ZTIN4inet4aodv27AodvControlPacketDescriptorE
	_ZTIN4inet4aodv28AodvControlPacketsSerializerE
	_ZTIN4inet4aodv29PacketHolderMessageDescriptorE
	_ZTIN4inet4aodv4AodvE
	_ZTIN4inet4aodv4RerrE
	_ZTIN4inet4aodv4RrepE
	_ZTIN4inet4aodv4RreqE
	_ZTIN4inet4aodv7RrepAckE
	_ZTIN4inet4dymo10DymoPacketE
	_ZTIN4inet4dymo12AddressBlockE
	_ZTIN4inet4dymo13DymoRouteDataE
	_ZTIN4inet4dymo14DymoMetricTypeE
	_ZTIN4inet4dymo14RerrDescriptorE
	_ZTIN4inet4dymo14RrepDescriptorE
	_ZTIN4inet4dymo14RreqDescriptorE
	_ZTIN4inet4dymo16RreqBackoffTimerE
	_ZTIN4inet4dymo16RteMsgDescriptorE
	_ZTIN4inet4dymo17RrepAckDescriptorE
	_ZTIN4inet4dymo17RreqHolddownTimerE
	_ZTIN4inet4dymo17RreqWaitRrepTimerE
	_ZTIN4inet4dymo19RreqTimerDescriptorE
	_ZTIN4inet4dymo20DymoPacketDescriptorE
	_ZTIN4inet4dymo22AddressBlockDescriptorE
	_ZTIN4inet4dymo26RreqBackoffTimerDescriptorE
	_ZTIN4inet4dymo27RreqHolddownTimerDescriptorE
	_ZTIN4inet4dymo27RreqWaitRrepTimerDescriptorE
	_ZTIN4inet4dymo4DymoE
	_ZTIN4inet4dymo4RerrE
	_ZTIN4inet4dymo4RrepE
	_ZTIN4inet4dymo4RreqE
	_ZTIN4inet4dymo6RteMsgE
	_ZTIN4inet4dymo7RrepAckE
	_ZTIN4inet4dymo9RreqTimerE
	_ZTIN4inet4math12FunctionBaseINS_5units5valueIdNS2_7composeINS4_INS4_INS2_5units1mENS4_INS5_2kgENS2_3powINS5_1sELin2ELi1EEEEEEES6_EENS8_IS9_Lin1ELi1EEEEEEENS0_6DomainIJNS3_IN7omnetpp7SimTimeES9_EEEEEEE
	_ZTIN4inet4math12FunctionBaseINS_5units5valueIdNS2_7composeINS4_INS4_INS2_5units1mENS4_INS5_2kgENS2_3powINS5_1sELin2ELi1EEEEEEES6_EENS8_IS9_Lin1ELi1EEEEEEENS0_6DomainIJNS3_IdS6_EESI_SI_NS3_IN7omnetpp7SimTimeES9_EEEEEEE
	_ZTIN4inet4math12FunctionBaseINS_5units5valueIdNS2_7composeINS4_INS4_INS4_INS2_5units1mENS4_INS5_2kgENS2_3powINS5_1sELin2ELi1EEEEEEES6_EENS8_IS9_Lin1ELi1EEEEENS8_ISE_Lin1ELi1EEEEEEENS0_6DomainIJNS3_IN7omnetpp7SimTimeES9_EEEEEEE
	_ZTIN4inet4math12FunctionBaseINS_5units5valueIdNS2_7composeINS4_INS4_INS4_INS2_5units1mENS4_INS5_2kgENS2_3powINS5_1sELin2ELi1EEEEEEES6_EENS8_IS9_Lin1ELi1EEEEENS8_ISE_Lin1ELi1EEEEEEENS0_6DomainIJNS3_IN7omnetpp7SimTimeES9_EENS3_IdSE_EEEEEEE
	_ZTIN4inet4math12FunctionBaseINS_5units5valueIdNS2_7composeINS4_INS4_INS4_INS2_5units1mENS4_INS5_2kgENS2_3powINS5_1sELin2ELi1EEEEEEES6_EENS8_IS9_Lin1ELi1EEEEENS8_ISE_Lin1ELi1EEEEEEENS0_6DomainIJNS3_IdS6_EESK_SK_NS3_IN7omnetpp7SimTimeES9_EENS3_IdSE_EEEEEEE
	_ZTIN4inet4math12FunctionBaseIdNS0_6DomainIJNS_5units5valueIN7omnetpp7SimTimeENS3_5units1sEEEEEEEE
	_ZTIN4inet4math12FunctionBaseIdNS0_6DomainIJNS_5units5valueIN7omnetpp7SimTimeENS3_5units1sEEENS4_IdNS3_3powIS8_Lin1ELi1EEEEEEEEEE
	_ZTIN4inet4math12FunctionBaseIdNS0_6DomainIJNS_5units5valueIdNS3_3powINS3_5units1sELin1ELi1EEEEEEEEEE
	_ZTIN4inet4math12FunctionBaseIdNS0_6DomainIJNS_5units5valueIdNS3_5units1mEEES7_S7_NS4_IN7omnetpp7SimTimeENS5_1sEEEEEEEE
	_ZTIN4inet4math12FunctionBaseIdNS0_6DomainIJNS_5units5valueIdNS3_5units1mEEES7_S7_NS4_IN7omnetpp7SimTimeENS5_1sEEENS4_IdNS3_3powISA_Lin1ELi1EEEEEEEEEE
	_ZTIN4inet4math12FunctionBaseIdNS0_6DomainIJNS_5units5valueIdNS3_5units1mEEES7_S7_S7_S7_S7_NS4_IdNS3_3powINS5_1sELin1ELi1EEEEEEEEEE
	_ZTIN4inet4math12FunctionBaseIdNS0_6DomainIJNS_5units5valueIdNS3_7composeINS3_5units1mENS3_3powINS6_1sELin1ELi1EEEEEEENS4_IdS7_EENS4_IdSA_EEEEEEE
	_ZTIN4inet4math13AddedFunctionINS_5units5valueIdNS2_7composeINS4_INS4_INS2_5units1mENS4_INS5_2kgENS2_3powINS5_1sELin2ELi1EEEEEEES6_EENS8_IS9_Lin1ELi1EEEEEEENS0_6DomainIJNS3_IN7omnetpp7SimTimeES9_EEEEEEE
	_ZTIN4inet4math13AddedFunctionINS_5units5valueIdNS2_7composeINS4_INS4_INS2_5units1mENS4_INS5_2kgENS2_3powINS5_1sELin2ELi1EEEEEEES6_EENS8_IS9_Lin1ELi1EEEEEEENS0_6DomainIJNS3_IdS6_EESI_SI_NS3_IN7omnetpp7SimTimeES9_EEEEEEE
	_ZTIN4inet4math13AddedFunctionINS_5units5valueIdNS2_7composeINS4_INS4_INS4_INS2_5units1mENS4_INS5_2kgENS2_3powINS5_1sELin2ELi1EEEEEEES6_EENS8_IS9_Lin1ELi1EEEEENS8_ISE_Lin1ELi1EEEEEEENS0_6DomainIJNS3_IN7omnetpp7SimTimeES9_EEEEEEE
	_ZTIN4inet4math13AddedFunctionINS_5units5valueIdNS2_7composeINS4_INS4_INS4_INS2_5units1mENS4_INS5_2kgENS2_3powINS5_1sELin2ELi1EEEEEEES6_EENS8_IS9_Lin1ELi1EEEEENS8_ISE_Lin1ELi1EEEEEEENS0_6DomainIJNS3_IN7omnetpp7SimTimeES9_EENS3_IdSE_EEEEEEE
	_ZTIN4inet4math13AddedFunctionINS_5units5valueIdNS2_7composeINS4_INS4_INS4_INS2_5units1mENS4_INS5_2kgENS2_3powINS5_1sELin2ELi1EEEEEEES6_EENS8_IS9_Lin1ELi1EEEEENS8_ISE_Lin1ELi1EEEEEEENS0_6DomainIJNS3_IdS6_EESK_SK_NS3_IN7omnetpp7SimTimeES9_EENS3_IdSE_EEEEEEE
	_ZTIN4inet4math13AddedFunctionIdNS0_6DomainIJNS_5units5valueIN7omnetpp7SimTimeENS3_5units1sEEEEEEEE
	_ZTIN4inet4math13AddedFunctionIdNS0_6DomainIJNS_5units5valueIN7omnetpp7SimTimeENS3_5units1sEEENS4_IdNS3_3powIS8_Lin1ELi1EEEEEEEEEE
	_ZTIN4inet4math13AddedFunctionIdNS0_6DomainIJNS_5units5valueIdNS3_3powINS3_5units1sELin1ELi1EEEEEEEEEE
	_ZTIN4inet4math13AddedFunctionIdNS0_6DomainIJNS_5units5valueIdNS3_5units1mEEES7_S7_NS4_IN7omnetpp7SimTimeENS5_1sEEEEEEEE
	_ZTIN4inet4math13AddedFunctionIdNS0_6DomainIJNS_5units5valueIdNS3_5units1mEEES7_S7_NS4_IN7omnetpp7SimTimeENS5_1sEEENS4_IdNS3_3powISA_Lin1ELi1EEEEEEEEEE
	_ZTIN4inet4math13AddedFunctionIdNS0_6DomainIJNS_5units5valueIdNS3_5units1mEEES7_S7_S7_S7_S7_NS4_IdNS3_3powINS5_1sELin1ELi1EEEEEEEEEE
	_ZTIN4inet4math13AddedFunctionIdNS0_6DomainIJNS_5units5valueIdNS3_7composeINS3_5units1mENS3_3powINS6_1sELin1ELi1EEEEEEENS4_IdS7_EENS4_IdSA_EEEEEEE
	_ZTIN4inet4math13IInterpolatorINS_5units5valueIN7omnetpp7SimTimeENS2_5units1sEEENS3_IdNS2_7composeINS9_INS9_INS9_INS6_1mENS9_INS6_2kgENS2_3powIS7_Lin2ELi1EEEEEEESA_EENSC_IS7_Lin1ELi1EEEEENSC_ISH_Lin1ELi1EEEEEEEEE
	_ZTIN4inet4math13IInterpolatorINS_5units5valueIN7omnetpp7SimTimeENS2_5units1sEEEdEE
	_ZTIN4inet4math13IInterpolatorINS_5units5valueIdNS2_3powINS2_5units1sELin1ELi1EEEEEdEE
	_ZTIN4inet4math13IInterpolatorINS_5units5valueIdNS2_5units1mEEENS3_IdNS2_7composeINS7_INS7_INS7_IS5_NS7_INS4_2kgENS2_3powINS4_1sELin2ELi1EEEEEEES5_EENS9_ISA_Lin1ELi1EEEEENS9_ISF_Lin1ELi1EEEEEEEEE
	_ZTIN4inet4math14SummedFunctionINS_5units5valueIdNS2_7composeINS4_INS4_INS4_INS2_5units1mENS4_INS5_2kgENS2_3powINS5_1sELin2ELi1EEEEEEES6_EENS8_IS9_Lin1ELi1EEEEENS8_ISE_Lin1ELi1EEEEEEENS0_6DomainIJNS3_IN7omnetpp7SimTimeES9_EENS3_IdSE_EEEEEEE
	_ZTIN4inet4math14SummedFunctionINS_5units5valueIdNS2_7composeINS4_INS4_INS4_INS2_5units1mENS4_INS5_2kgENS2_3powINS5_1sELin2ELi1EEEEEEES6_EENS8_IS9_Lin1ELi1EEEEENS8_ISE_Lin1ELi1EEEEEEENS0_6DomainIJNS3_IdS6_EESK_SK_NS3_IN7omnetpp7SimTimeES9_EENS3_IdSE_EEEEEEE
	_ZTIN4inet4math15DividedFunctionINS_5units5valueIdNS2_7composeINS4_INS4_INS2_5units1mENS4_INS5_2kgENS2_3powINS5_1sELin2ELi1EEEEEEES6_EENS8_IS9_Lin1ELi1EEEEEEENS0_6DomainIJNS3_IN7omnetpp7SimTimeES9_EEEEEEE
	_ZTIN4inet4math15DividedFunctionINS_5units5valueIdNS2_7composeINS4_INS4_INS2_5units1mENS4_INS5_2kgENS2_3powINS5_1sELin2ELi1EEEEEEES6_EENS8_IS9_Lin1ELi1EEEEEEENS0_6DomainIJNS3_IdS6_EESI_SI_NS3_IN7omnetpp7SimTimeES9_EEEEEEE
	_ZTIN4inet4math15DividedFunctionINS_5units5valueIdNS2_7composeINS4_INS4_INS4_INS2_5units1mENS4_INS5_2kgENS2_3powINS5_1sELin2ELi1EEEEEEES6_EENS8_IS9_Lin1ELi1EEEEENS8_ISE_Lin1ELi1EEEEEEENS0_6DomainIJNS3_IN7omnetpp7SimTimeES9_EEEEEEE
	_ZTIN4inet4math15DividedFunctionINS_5units5valueIdNS2_7composeINS4_INS4_INS4_INS2_5units1mENS4_INS5_2kgENS2_3powINS5_1sELin2ELi1EEEEEEES6_EENS8_IS9_Lin1ELi1EEEEENS8_ISE_Lin1ELi1EEEEEEENS0_6DomainIJNS3_IN7omnetpp7SimTimeES9_EENS3_IdSE_EEEEEEE
	_ZTIN4inet4math15DividedFunctionINS_5units5valueIdNS2_7composeINS4_INS4_INS4_INS2_5units1mENS4_INS5_2kgENS2_3powINS5_1sELin2ELi1EEEEEEES6_EENS8_IS9_Lin1ELi1EEEEENS8_ISE_Lin1ELi1EEEEEEENS0_6DomainIJNS3_IdS6_EESK_SK_NS3_IN7omnetpp7SimTimeES9_EENS3_IdSE_EEEEEEE
	_ZTIN4inet4math15DividedFunctionIdNS0_6DomainIJNS_5units5valueIN7omnetpp7SimTimeENS3_5units1sEEEEEEEE
	_ZTIN4inet4math15DividedFunctionIdNS0_6DomainIJNS_5units5valueIN7omnetpp7SimTimeENS3_5units1sEEENS4_IdNS3_3powIS8_Lin1ELi1EEEEEEEEEE
	_ZTIN4inet4math15DividedFunctionIdNS0_6DomainIJNS_5units5valueIdNS3_3powINS3_5units1sELin1ELi1EEEEEEEEEE
	_ZTIN4inet4math15DividedFunctionIdNS0_6DomainIJNS_5units5valueIdNS3_5units1mEEES7_S7_NS4_IN7omnetpp7SimTimeENS5_1sEEEEEEEE
	_ZTIN4inet4math15DividedFunctionIdNS0_6DomainIJNS_5units5valueIdNS3_5units1mEEES7_S7_NS4_IN7omnetpp7SimTimeENS5_1sEEENS4_IdNS3_3powISA_Lin1ELi1EEEEEEEEEE
	_ZTIN4inet4math15DividedFunctionIdNS0_6DomainIJNS_5units5valueIdNS3_5units1mEEES7_S7_S7_S7_S7_NS4_IdNS3_3powINS5_1sELin1ELi1EEEEEEEEEE
	_ZTIN4inet4math15DividedFunctionIdNS0_6DomainIJNS_5units5valueIdNS3_7composeINS3_5units1mENS3_3powINS6_1sELin1ELi1EEEEEEENS4_IdS7_EENS4_IdSA_EEEEEEE
	_ZTIN4inet4math16BilinearFunctionINS_5units5valueIdNS2_7composeINS4_INS4_INS2_5units1mENS4_INS5_2kgENS2_3powINS5_1sELin2ELi1EEEEEEES6_EENS8_IS9_Lin1ELi1EEEEEEENS0_6DomainIJNS3_IN7omnetpp7SimTimeES9_EEEEEEE
	_ZTIN4inet4math16BilinearFunctionINS_5units5valueIdNS2_7composeINS4_INS4_INS2_5units1mENS4_INS5_2kgENS2_3powINS5_1sELin2ELi1EEEEEEES6_EENS8_IS9_Lin1ELi1EEEEEEENS0_6DomainIJNS3_IdS6_EESI_SI_NS3_IN7omnetpp7SimTimeES9_EEEEEEE
	_ZTIN4inet4math16BilinearFunctionINS_5units5valueIdNS2_7composeINS4_INS4_INS4_INS2_5units1mENS4_INS5_2kgENS2_3powINS5_1sELin2ELi1EEEEEEES6_EENS8_IS9_Lin1ELi1EEEEENS8_ISE_Lin1ELi1EEEEEEENS0_6DomainIJNS3_IN7omnetpp7SimTimeES9_EEEEEEE
	_ZTIN4inet4math16BilinearFunctionINS_5units5valueIdNS2_7composeINS4_INS4_INS4_INS2_5units1mENS4_INS5_2kgENS2_3powINS5_1sELin2ELi1EEEEEEES6_EENS8_IS9_Lin1ELi1EEEEENS8_ISE_Lin1ELi1EEEEEEENS0_6DomainIJNS3_IN7omnetpp7SimTimeES9_EENS3_IdSE_EEEEEEE
	_ZTIN4inet4math16BilinearFunctionINS_5units5valueIdNS2_7composeINS4_INS4_INS4_INS2_5units1mENS4_INS5_2kgENS2_3powINS5_1sELin2ELi1EEEEEEES6_EENS8_IS9_Lin1ELi1EEEEENS8_ISE_Lin1ELi1EEEEEEENS0_6DomainIJNS3_IdS6_EESK_SK_NS3_IN7omnetpp7SimTimeES9_EENS3_IdSE_EEEEEEE
	_ZTIN4inet4math16BilinearFunctionIdNS0_6DomainIJNS_5units5valueIN7omnetpp7SimTimeENS3_5units1sEEEEEEEE
	_ZTIN4inet4math16BilinearFunctionIdNS0_6DomainIJNS_5units5valueIN7omnetpp7SimTimeENS3_5units1sEEENS4_IdNS3_3powIS8_Lin1ELi1EEEEEEEEEE
	_ZTIN4inet4math16BilinearFunctionIdNS0_6DomainIJNS_5units5valueIdNS3_3powINS3_5units1sELin1ELi1EEEEEEEEEE
	_ZTIN4inet4math16BilinearFunctionIdNS0_6DomainIJNS_5units5valueIdNS3_5units1mEEES7_S7_NS4_IN7omnetpp7SimTimeENS5_1sEEEEEEEE
	_ZTIN4inet4math16BilinearFunctionIdNS0_6DomainIJNS_5units5valueIdNS3_5units1mEEES7_S7_NS4_IN7omnetpp7SimTimeENS5_1sEEENS4_IdNS3_3powISA_Lin1ELi1EEEEEEEEEE
	_ZTIN4inet4math16BilinearFunctionIdNS0_6DomainIJNS_5units5valueIdNS3_5units1mEEES7_S7_S7_S7_S7_NS4_IdNS3_3powINS5_1sELin1ELi1EEEEEEEEEE
	_ZTIN4inet4math16BilinearFunctionIdNS0_6DomainIJNS_5units5valueIdNS3_7composeINS3_5units1mENS3_3powINS6_1sELin1ELi1EEEEEEENS4_IdS7_EENS4_IdSA_EEEEEEE
	_ZTIN4inet4math16Boxcar1DFunctionIdNS_5units5valueIN7omnetpp7SimTimeENS2_5units1sEEEEE
	_ZTIN4inet4math16Boxcar1DFunctionIdNS_5units5valueIdNS2_3powINS2_5units1sELin1ELi1EEEEEEE
	_ZTIN4inet4math16Boxcar2DFunctionINS_5units5valueIdNS2_7composeINS4_INS4_INS4_INS2_5units1mENS4_INS5_2kgENS2_3powINS5_1sELin2ELi1EEEEEEES6_EENS8_IS9_Lin1ELi1EEEEENS8_ISE_Lin1ELi1EEEEEEENS3_IN7omnetpp7SimTimeES9_EENS3_IdSE_EEEE
	_ZTIN4inet4math16Boxcar2DFunctionIdNS_5units5valueIN7omnetpp7SimTimeENS2_5units1sEEENS3_IdNS2_3powIS7_Lin1ELi1EEEEEEE
	_ZTIN4inet4math16ConstantFunctionINS_5units5valueIdNS2_7composeINS4_INS4_INS2_5units1mENS4_INS5_2kgENS2_3powINS5_1sELin2ELi1EEEEEEES6_EENS8_IS9_Lin1ELi1EEEEEEENS0_6DomainIJNS3_IN7omnetpp7SimTimeES9_EEEEEEE
	_ZTIN4inet4math16ConstantFunctionINS_5units5valueIdNS2_7composeINS4_INS4_INS2_5units1mENS4_INS5_2kgENS2_3powINS5_1sELin2ELi1EEEEEEES6_EENS8_IS9_Lin1ELi1EEEEEEENS0_6DomainIJNS3_IdS6_EESI_SI_NS3_IN7omnetpp7SimTimeES9_EEEEEEE
	_ZTIN4inet4math16ConstantFunctionINS_5units5valueIdNS2_7composeINS4_INS4_INS4_INS2_5units1mENS4_INS5_2kgENS2_3powINS5_1sELin2ELi1EEEEEEES6_EENS8_IS9_Lin1ELi1EEEEENS8_ISE_Lin1ELi1EEEEEEENS0_6DomainIJNS3_IN7omnetpp7SimTimeES9_EEEEEEE
	_ZTIN4inet4math16ConstantFunctionINS_5units5valueIdNS2_7composeINS4_INS4_INS4_INS2_5units1mENS4_INS5_2kgENS2_3powINS5_1sELin2ELi1EEEEEEES6_EENS8_IS9_Lin1ELi1EEEEENS8_ISE_Lin1ELi1EEEEEEENS0_6DomainIJNS3_IN7omnetpp7SimTimeES9_EENS3_IdSE_EEEEEEE
	_ZTIN4inet4math16ConstantFunctionINS_5units5valueIdNS2_7composeINS4_INS4_INS4_INS2_5units1mENS4_INS5_2kgENS2_3powINS5_1sELin2ELi1EEEEEEES6_EENS8_IS9_Lin1ELi1EEEEENS8_ISE_Lin1ELi1EEEEEEENS0_6DomainIJNS3_IdS6_EESK_SK_NS3_IN7omnetpp7SimTimeES9_EENS3_IdSE_EEEEEEE
	_ZTIN4inet4math16ConstantFunctionIdNS0_6DomainIJNS_5units5valueIN7omnetpp7SimTimeENS3_5units1sEEEEEEEE
	_ZTIN4inet4math16ConstantFunctionIdNS0_6DomainIJNS_5units5valueIN7omnetpp7SimTimeENS3_5units1sEEENS4_IdNS3_3powIS8_Lin1ELi1EEEEEEEEEE
	_ZTIN4inet4math16ConstantFunctionIdNS0_6DomainIJNS_5units5valueIdNS3_3powINS3_5units1sELin1ELi1EEEEEEEEEE
	_ZTIN4inet4math16ConstantFunctionIdNS0_6DomainIJNS_5units5valueIdNS3_5units1mEEES7_S7_NS4_IN7omnetpp7SimTimeENS5_1sEEEEEEEE
	_ZTIN4inet4math16ConstantFunctionIdNS0_6DomainIJNS_5units5valueIdNS3_5units1mEEES7_S7_NS4_IN7omnetpp7SimTimeENS5_1sEEENS4_IdNS3_3powISA_Lin1ELi1EEEEEEEEEE
	_ZTIN4inet4math16ConstantFunctionIdNS0_6DomainIJNS_5units5valueIdNS3_5units1mEEES7_S7_S7_S7_S7_NS4_IdNS3_3powINS5_1sELin1ELi1EEEEEEEEEE
	_ZTIN4inet4math16ConstantFunctionIdNS0_6DomainIJNS_5units5valueIdNS3_7composeINS3_5units1mENS3_3powINS6_1sELin1ELi1EEEEEEENS4_IdS7_EENS4_IdSA_EEEEEEE
	_ZTIN4inet4math16InterpolatorBaseINS_5units5valueIN7omnetpp7SimTimeENS2_5units1sEEENS3_IdNS2_7composeINS9_INS9_INS9_INS6_1mENS9_INS6_2kgENS2_3powIS7_Lin2ELi1EEEEEEESA_EENSC_IS7_Lin1ELi1EEEEENSC_ISH_Lin1ELi1EEEEEEEEE
	_ZTIN4inet4math16InterpolatorBaseINS_5units5valueIN7omnetpp7SimTimeENS2_5units1sEEEdEE
	_ZTIN4inet4math16InterpolatorBaseINS_5units5valueIdNS2_3powINS2_5units1sELin1ELi1EEEEEdEE
	_ZTIN4inet4math16InterpolatorBaseINS_5units5valueIdNS2_5units1mEEENS3_IdNS2_7composeINS7_INS7_INS7_IS5_NS7_INS4_2kgENS2_3powINS4_1sELin2ELi1EEEEEEES5_EENS9_ISA_Lin1ELi1EEEEENS9_ISF_Lin1ELi1EEEEEEEEE
	_ZTIN4inet4math16LeftInterpolatorINS_5units5valueIN7omnetpp7SimTimeENS2_5units1sEEEdEE
	_ZTIN4inet4math16LeftInterpolatorINS_5units5valueIdNS2_3powINS2_5units1sELin1ELi1EEEEEdEE
	_ZTIN4inet4math16MemoizedFunctionIdNS0_6DomainIJNS_5units5valueIdNS3_5units1mEEES7_S7_S7_S7_S7_NS4_IdNS3_3powINS5_1sELin1ELi1EEEEEEEEEE
	_ZTIN4inet4math17RightInterpolatorINS_5units5valueIN7omnetpp7SimTimeENS2_5units1sEEEdEE
	_ZTIN4inet4math17RightInterpolatorINS_5units5valueIdNS2_3powINS2_5units1sELin1ELi1EEEEEdEE
	_ZTIN4inet4math17UnilinearFunctionINS_5units5valueIdNS2_7composeINS4_INS4_INS2_5units1mENS4_INS5_2kgENS2_3powINS5_1sELin2ELi1EEEEEEES6_EENS8_IS9_Lin1ELi1EEEEEEENS0_6DomainIJNS3_IN7omnetpp7SimTimeES9_EEEEEEE
	_ZTIN4inet4math17UnilinearFunctionINS_5units5valueIdNS2_7composeINS4_INS4_INS2_5units1mENS4_INS5_2kgENS2_3powINS5_1sELin2ELi1EEEEEEES6_EENS8_IS9_Lin1ELi1EEEEEEENS0_6DomainIJNS3_IdS6_EESI_SI_NS3_IN7omnetpp7SimTimeES9_EEEEEEE
	_ZTIN4inet4math17UnilinearFunctionINS_5units5valueIdNS2_7composeINS4_INS4_INS4_INS2_5units1mENS4_INS5_2kgENS2_3powINS5_1sELin2ELi1EEEEEEES6_EENS8_IS9_Lin1ELi1EEEEENS8_ISE_Lin1ELi1EEEEEEENS0_6DomainIJNS3_IN7omnetpp7SimTimeES9_EEEEEEE
	_ZTIN4inet4math17UnilinearFunctionINS_5units5valueIdNS2_7composeINS4_INS4_INS4_INS2_5units1mENS4_INS5_2kgENS2_3powINS5_1sELin2ELi1EEEEEEES6_EENS8_IS9_Lin1ELi1EEEEENS8_ISE_Lin1ELi1EEEEEEENS0_6DomainIJNS3_IN7omnetpp7SimTimeES9_EENS3_IdSE_EEEEEEE
	_ZTIN4inet4math17UnilinearFunctionINS_5units5valueIdNS2_7composeINS4_INS4_INS4_INS2_5units1mENS4_INS5_2kgENS2_3powINS5_1sELin2ELi1EEEEEEES6_EENS8_IS9_Lin1ELi1EEEEENS8_ISE_Lin1ELi1EEEEEEENS0_6DomainIJNS3_IdS6_EESK_SK_NS3_IN7omnetpp7SimTimeES9_EENS3_IdSE_EEEEEEE
	_ZTIN4inet4math17UnilinearFunctionIdNS0_6DomainIJNS_5units5valueIN7omnetpp7SimTimeENS3_5units1sEEEEEEEE
	_ZTIN4inet4math17UnilinearFunctionIdNS0_6DomainIJNS_5units5valueIN7omnetpp7SimTimeENS3_5units1sEEENS4_IdNS3_3powIS8_Lin1ELi1EEEEEEEEEE
	_ZTIN4inet4math17UnilinearFunctionIdNS0_6DomainIJNS_5units5valueIdNS3_3powINS3_5units1sELin1ELi1EEEEEEEEEE
	_ZTIN4inet4math17UnilinearFunctionIdNS0_6DomainIJNS_5units5valueIdNS3_5units1mEEES7_S7_NS4_IN7omnetpp7SimTimeENS5_1sEEEEEEEE
	_ZTIN4inet4math17UnilinearFunctionIdNS0_6DomainIJNS_5units5valueIdNS3_5units1mEEES7_S7_NS4_IN7omnetpp7SimTimeENS5_1sEEENS4_IdNS3_3powISA_Lin1ELi1EEEEEEEEEE
	_ZTIN4inet4math17UnilinearFunctionIdNS0_6DomainIJNS_5units5valueIdNS3_5units1mEEES7_S7_S7_S7_S7_NS4_IdNS3_3powINS5_1sELin1ELi1EEEEEEEEEE
	_ZTIN4inet4math17UnilinearFunctionIdNS0_6DomainIJNS_5units5valueIdNS3_7composeINS3_5units1mENS3_3powINS6_1sELin1ELi1EEEEEEENS4_IdS7_EENS4_IdSA_EEEEEEE
	_ZTIN4inet4math18CloserInterpolatorINS_5units5valueIN7omnetpp7SimTimeENS2_5units1sEEEdEE
	_ZTIN4inet4math18CloserInterpolatorINS_5units5valueIdNS2_3powINS2_5units1sELin1ELi1EEEEEdEE
	_ZTIN4inet4math18Combined2DFunctionINS_5units5valueIdNS2_7composeINS4_INS4_INS4_INS2_5units1mENS4_INS5_2kgENS2_3powINS5_1sELin2ELi1EEEEEEES6_EENS8_IS9_Lin1ELi1EEEEENS8_ISE_Lin1ELi1EEEEEEENS3_IN7omnetpp7SimTimeES9_EENS3_IdSE_EEEE
	_ZTIN4inet4math18Combined2DFunctionIdNS_5units5valueIN7omnetpp7SimTimeENS2_5units1sEEENS3_IdNS2_3powIS7_Lin1ELi1EEEEEEE
	_ZTIN4inet4math18EitherInterpolatorINS_5units5valueIN7omnetpp7SimTimeENS2_5units1sEEEdEE
	_ZTIN4inet4math18EitherInterpolatorINS_5units5valueIdNS2_3powINS2_5units1sELin1ELi1EEEEEdEE
	_ZTIN4inet4math18IntegratedFunctionINS_5units5valueIdNS2_7composeINS4_INS4_INS4_INS2_5units1mENS4_INS5_2kgENS2_3powINS5_1sELin2ELi1EEEEEEES6_EENS8_IS9_Lin1ELi1EEEEENS8_ISE_Lin1ELi1EEEEEEENS0_6DomainIJNS3_IN7omnetpp7SimTimeES9_EENS3_IdSE_EEEEELi2ENS3_IdSF_EENSJ_IJSM_EEEEE
	_ZTIN4inet4math18IntegratedFunctionINS_5units5valueIdNS2_7composeINS4_INS4_INS4_INS2_5units1mENS4_INS5_2kgENS2_3powINS5_1sELin2ELi1EEEEEEES6_EENS8_IS9_Lin1ELi1EEEEENS8_ISE_Lin1ELi1EEEEEEENS0_6DomainIJNS3_IdS6_EESK_SK_NS3_IN7omnetpp7SimTimeES9_EENS3_IdSE_EEEEELi30ENS3_IdSF_EENSJ_IJSK_SK_SK_SN_EEEEE
	_ZTIN4inet4math18LinearInterpolatorINS_5units5valueIN7omnetpp7SimTimeENS2_5units1sEEENS3_IdNS2_7composeINS9_INS9_INS9_INS6_1mENS9_INS6_2kgENS2_3powIS7_Lin2ELi1EEEEEEESA_EENSC_IS7_Lin1ELi1EEEEENSC_ISH_Lin1ELi1EEEEEEEEE
	_ZTIN4inet4math18LinearInterpolatorINS_5units5valueIN7omnetpp7SimTimeENS2_5units1sEEEdEE
	_ZTIN4inet4math18LinearInterpolatorINS_5units5valueIdNS2_3powINS2_5units1sELin1ELi1EEEEEdEE
	_ZTIN4inet4math18LinearInterpolatorINS_5units5valueIdNS2_5units1mEEENS3_IdNS2_7composeINS7_INS7_INS7_IS5_NS7_INS4_2kgENS2_3powINS4_1sELin2ELi1EEEEEEES5_EENS9_ISA_Lin1ELi1EEEEENS9_ISF_Lin1ELi1EEEEEEEEE
	_ZTIN4inet4math18MultipliedFunctionINS_5units5valueIdNS2_7composeINS4_INS4_INS2_5units1mENS4_INS5_2kgENS2_3powINS5_1sELin2ELi1EEEEEEES6_EENS8_IS9_Lin1ELi1EEEEEEENS0_6DomainIJNS3_IN7omnetpp7SimTimeES9_EEEEEEE
	_ZTIN4inet4math18MultipliedFunctionINS_5units5valueIdNS2_7composeINS4_INS4_INS2_5units1mENS4_INS5_2kgENS2_3powINS5_1sELin2ELi1EEEEEEES6_EENS8_IS9_Lin1ELi1EEEEEEENS0_6DomainIJNS3_IdS6_EESI_SI_NS3_IN7omnetpp7SimTimeES9_EEEEEEE
	_ZTIN4inet4math18MultipliedFunctionINS_5units5valueIdNS2_7composeINS4_INS4_INS4_INS2_5units1mENS4_INS5_2kgENS2_3powINS5_1sELin2ELi1EEEEEEES6_EENS8_IS9_Lin1ELi1EEEEENS8_ISE_Lin1ELi1EEEEEEENS0_6DomainIJNS3_IN7omnetpp7SimTimeES9_EEEEEEE
	_ZTIN4inet4math18MultipliedFunctionINS_5units5valueIdNS2_7composeINS4_INS4_INS4_INS2_5units1mENS4_INS5_2kgENS2_3powINS5_1sELin2ELi1EEEEEEES6_EENS8_IS9_Lin1ELi1EEEEENS8_ISE_Lin1ELi1EEEEEEENS0_6DomainIJNS3_IN7omnetpp7SimTimeES9_EENS3_IdSE_EEEEEEE
	_ZTIN4inet4math18MultipliedFunctionINS_5units5valueIdNS2_7composeINS4_INS4_INS4_INS2_5units1mENS4_INS5_2kgENS2_3powINS5_1sELin2ELi1EEEEEEES6_EENS8_IS9_Lin1ELi1EEEEENS8_ISE_Lin1ELi1EEEEEEENS0_6DomainIJNS3_IdS6_EESK_SK_NS3_IN7omnetpp7SimTimeES9_EENS3_IdSE_EEEEEEE
	_ZTIN4inet4math18MultipliedFunctionIdNS0_6DomainIJNS_5units5valueIN7omnetpp7SimTimeENS3_5units1sEEEEEEEE
	_ZTIN4inet4math18MultipliedFunctionIdNS0_6DomainIJNS_5units5valueIN7omnetpp7SimTimeENS3_5units1sEEENS4_IdNS3_3powIS8_Lin1ELi1EEEEEEEEEE
	_ZTIN4inet4math18MultipliedFunctionIdNS0_6DomainIJNS_5units5valueIdNS3_3powINS3_5units1sELin1ELi1EEEEEEEEEE
	_ZTIN4inet4math18MultipliedFunctionIdNS0_6DomainIJNS_5units5valueIdNS3_5units1mEEES7_S7_NS4_IN7omnetpp7SimTimeENS5_1sEEEEEEEE
	_ZTIN4inet4math18MultipliedFunctionIdNS0_6DomainIJNS_5units5valueIdNS3_5units1mEEES7_S7_NS4_IN7omnetpp7SimTimeENS5_1sEEENS4_IdNS3_3powISA_Lin1ELi1EEEEEEEEEE
	_ZTIN4inet4math18MultipliedFunctionIdNS0_6DomainIJNS_5units5valueIdNS3_5units1mEEES7_S7_S7_S7_S7_NS4_IdNS3_3powINS5_1sELin1ELi1EEEEEEEEEE
	_ZTIN4inet4math18MultipliedFunctionIdNS0_6DomainIJNS_5units5valueIdNS3_7composeINS3_5units1mENS3_3powINS6_1sELin1ELi1EEEEEEENS4_IdS7_EENS4_IdSA_EEEEEEE
	_ZTIN4inet4math18SubtractedFunctionINS_5units5valueIdNS2_7composeINS4_INS4_INS2_5units1mENS4_INS5_2kgENS2_3powINS5_1sELin2ELi1EEEEEEES6_EENS8_IS9_Lin1ELi1EEEEEEENS0_6DomainIJNS3_IN7omnetpp7SimTimeES9_EEEEEEE
	_ZTIN4inet4math18SubtractedFunctionINS_5units5valueIdNS2_7composeINS4_INS4_INS2_5units1mENS4_INS5_2kgENS2_3powINS5_1sELin2ELi1EEEEEEES6_EENS8_IS9_Lin1ELi1EEEEEEENS0_6DomainIJNS3_IdS6_EESI_SI_NS3_IN7omnetpp7SimTimeES9_EEEEEEE
	_ZTIN4inet4math18SubtractedFunctionINS_5units5valueIdNS2_7composeINS4_INS4_INS4_INS2_5units1mENS4_INS5_2kgENS2_3powINS5_1sELin2ELi1EEEEEEES6_EENS8_IS9_Lin1ELi1EEEEENS8_ISE_Lin1ELi1EEEEEEENS0_6DomainIJNS3_IN7omnetpp7SimTimeES9_EEEEEEE
	_ZTIN4inet4math18SubtractedFunctionINS_5units5valueIdNS2_7composeINS4_INS4_INS4_INS2_5units1mENS4_INS5_2kgENS2_3powINS5_1sELin2ELi1EEEEEEES6_EENS8_IS9_Lin1ELi1EEEEENS8_ISE_Lin1ELi1EEEEEEENS0_6DomainIJNS3_IN7omnetpp7SimTimeES9_EENS3_IdSE_EEEEEEE
	_ZTIN4inet4math18SubtractedFunctionINS_5units5valueIdNS2_7composeINS4_INS4_INS4_INS2_5units1mENS4_INS5_2kgENS2_3powINS5_1sELin2ELi1EEEEEEES6_EENS8_IS9_Lin1ELi1EEEEENS8_ISE_Lin1ELi1EEEEEEENS0_6DomainIJNS3_IdS6_EESK_SK_NS3_IN7omnetpp7SimTimeES9_EENS3_IdSE_EEEEEEE
	_ZTIN4inet4math18SubtractedFunctionIdNS0_6DomainIJNS_5units5valueIN7omnetpp7SimTimeENS3_5units1sEEEEEEEE
	_ZTIN4inet4math18SubtractedFunctionIdNS0_6DomainIJNS_5units5valueIN7omnetpp7SimTimeENS3_5units1sEEENS4_IdNS3_3powIS8_Lin1ELi1EEEEEEEEEE
	_ZTIN4inet4math18SubtractedFunctionIdNS0_6DomainIJNS_5units5valueIdNS3_3powINS3_5units1sELin1ELi1EEEEEEEEEE
	_ZTIN4inet4math18SubtractedFunctionIdNS0_6DomainIJNS_5units5valueIdNS3_5units1mEEES7_S7_NS4_IN7omnetpp7SimTimeENS5_1sEEEEEEEE
	_ZTIN4inet4math18SubtractedFunctionIdNS0_6DomainIJNS_5units5valueIdNS3_5units1mEEES7_S7_NS4_IN7omnetpp7SimTimeENS5_1sEEENS4_IdNS3_3powISA_Lin1ELi1EEEEEEEEEE
	_ZTIN4inet4math18SubtractedFunctionIdNS0_6DomainIJNS_5units5valueIdNS3_5units1mEEES7_S7_S7_S7_S7_NS4_IdNS3_3powINS5_1sELin1ELi1EEEEEEEEEE
	_ZTIN4inet4math18SubtractedFunctionIdNS0_6DomainIJNS_5units5valueIdNS3_7composeINS3_5units1mENS3_3powINS6_1sELin1ELi1EEEEEEENS4_IdS7_EENS4_IdSA_EEEEEEE
	_ZTIN4inet4math19AverageInterpolatorINS_5units5valueIN7omnetpp7SimTimeENS2_5units1sEEEdEE
	_ZTIN4inet4math19AverageInterpolatorINS_5units5valueIdNS2_3powINS2_5units1sELin1ELi1EEEEEdEE
	_ZTIN4inet4math19MaximumInterpolatorINS_5units5valueIN7omnetpp7SimTimeENS2_5units1sEEEdEE
	_ZTIN4inet4math19MaximumInterpolatorINS_5units5valueIdNS2_3powINS2_5units1sELin1ELi1EEEEEdEE
	_ZTIN4inet4math19MinimumInterpolatorINS_5units5valueIN7omnetpp7SimTimeENS2_5units1sEEEdEE
	_ZTIN4inet4math19MinimumInterpolatorINS_5units5valueIdNS2_3powINS2_5units1sELin1ELi1EEEEEdEE
	_ZTIN4inet4math20ApproximatedFunctionINS_5units5valueIdNS2_7composeINS4_INS4_INS4_INS2_5units1mENS4_INS5_2kgENS2_3powINS5_1sELin2ELi1EEEEEEES6_EENS8_IS9_Lin1ELi1EEEEENS8_ISE_Lin1ELi1EEEEEEENS0_6DomainIJNS3_IdS6_EESK_SK_NS3_IN7omnetpp7SimTimeES9_EENS3_IdSE_EEEEELi0ESK_EE
	_ZTIN4inet4math20ApproximatedFunctionINS_5units5valueIdNS2_7composeINS4_INS4_INS4_INS2_5units1mENS4_INS5_2kgENS2_3powINS5_1sELin2ELi1EEEEEEES6_EENS8_IS9_Lin1ELi1EEEEENS8_ISE_Lin1ELi1EEEEEEENS0_6DomainIJNS3_IdS6_EESK_SK_NS3_IN7omnetpp7SimTimeES9_EENS3_IdSE_EEEEELi1ESK_EE
	_ZTIN4inet4math20ApproximatedFunctionIdNS0_6DomainIJNS_5units5valueIN7omnetpp7SimTimeENS3_5units1sEEENS4_IdNS3_3powIS8_Lin1ELi1EEEEEEEELi1ESC_EE
	_ZTIN4inet4math20ApproximatedFunctionIdNS0_6DomainIJNS_5units5valueIdNS3_5units1mEEES7_S7_NS4_IN7omnetpp7SimTimeENS5_1sEEENS4_IdNS3_3powISA_Lin1ELi1EEEEEEEELi4ESE_EE
	_ZTIN4inet4math20LineardbInterpolatorINS_5units5valueIN7omnetpp7SimTimeENS2_5units1sEEEdEE
	_ZTIN4inet4math20LineardbInterpolatorINS_5units5valueIdNS2_3powINS2_5units1sELin1ELi1EEEEEdEE
	_ZTIN4inet4math21DomainLimitedFunctionINS_5units5valueIdNS2_7composeINS4_INS4_INS4_INS2_5units1mENS4_INS5_2kgENS2_3powINS5_1sELin2ELi1EEEEEEES6_EENS8_IS9_Lin1ELi1EEEEENS8_ISE_Lin1ELi1EEEEEEENS0_6DomainIJNS3_IN7omnetpp7SimTimeES9_EENS3_IdSE_EEEEEEE
	_ZTIN4inet4math21DomainShiftedFunctionINS_5units5valueIdNS2_7composeINS4_INS4_INS4_INS2_5units1mENS4_INS5_2kgENS2_3powINS5_1sELin2ELi1EEEEEEES6_EENS8_IS9_Lin1ELi1EEEEENS8_ISE_Lin1ELi1EEEEEEENS0_6DomainIJNS3_IN7omnetpp7SimTimeES9_EENS3_IdSE_EEEEEEE
	_ZTIN4inet4math21DomainShiftedFunctionIdNS0_6DomainIJNS_5units5valueIN7omnetpp7SimTimeENS3_5units1sEEENS4_IdNS3_3powIS8_Lin1ELi1EEEEEEEEEE
	_ZTIN4inet4math21UnireciprocalFunctionIdNS0_6DomainIJNS_5units5valueIN7omnetpp7SimTimeENS3_5units1sEEEEEEEE
	_ZTIN4inet4math21UnireciprocalFunctionIdNS0_6DomainIJNS_5units5valueIN7omnetpp7SimTimeENS3_5units1sEEENS4_IdNS3_3powIS8_Lin1ELi1EEEEEEEEEE
	_ZTIN4inet4math21UnireciprocalFunctionIdNS0_6DomainIJNS_5units5valueIdNS3_3powINS3_5units1sELin1ELi1EEEEEEEEEE
	_ZTIN4inet4math21UnireciprocalFunctionIdNS0_6DomainIJNS_5units5valueIdNS3_5units1mEEES7_S7_NS4_IN7omnetpp7SimTimeENS5_1sEEEEEEEE
	_ZTIN4inet4math21UnireciprocalFunctionIdNS0_6DomainIJNS_5units5valueIdNS3_5units1mEEES7_S7_NS4_IN7omnetpp7SimTimeENS5_1sEEENS4_IdNS3_3powISA_Lin1ELi1EEEEEEEEEE
	_ZTIN4inet4math21UnireciprocalFunctionIdNS0_6DomainIJNS_5units5valueIdNS3_5units1mEEES7_S7_S7_S7_S7_NS4_IdNS3_3powINS5_1sELin1ELi1EEEEEEEEEE
	_ZTIN4inet4math21UnireciprocalFunctionIdNS0_6DomainIJNS_5units5valueIdNS3_7composeINS3_5units1mENS3_3powINS6_1sELin1ELi1EEEEEEENS4_IdS7_EENS4_IdSA_EEEEEEE
	_ZTIN4inet4math22Interpolated1DFunctionINS_5units5valueIdNS2_7composeINS4_INS4_INS4_INS2_5units1mENS4_INS5_2kgENS2_3powINS5_1sELin2ELi1EEEEEEES6_EENS8_IS9_Lin1ELi1EEEEENS8_ISE_Lin1ELi1EEEEEEENS3_IN7omnetpp7SimTimeES9_EEEE
	_ZTIN4inet4math22Interpolated1DFunctionIdNS_5units5valueIN7omnetpp7SimTimeENS2_5units1sEEEEE
	_ZTIN4inet4math22Interpolated1DFunctionIdNS_5units5valueIdNS2_3powINS2_5units1sELin1ELi1EEEEEEE
	_ZTIN4inet4math24ConstantInterpolatorBaseINS_5units5valueIN7omnetpp7SimTimeENS2_5units1sEEENS3_IdNS2_7composeINS9_INS9_INS9_INS6_1mENS9_INS6_2kgENS2_3powIS7_Lin2ELi1EEEEEEESA_EENSC_IS7_Lin1ELi1EEEEENSC_ISH_Lin1ELi1EEEEEEEEE
	_ZTIN4inet4math24ConstantInterpolatorBaseINS_5units5valueIN7omnetpp7SimTimeENS2_5units1sEEEdEE
	_ZTIN4inet4math24ConstantInterpolatorBaseINS_5units5valueIdNS2_3powINS2_5units1sELin1ELi1EEEEEdEE
	_ZTIN4inet4math24ConstantInterpolatorBaseINS_5units5valueIdNS2_5units1mEEENS3_IdNS2_7composeINS7_INS7_INS7_IS5_NS7_INS4_2kgENS2_3powINS4_1sELin2ELi1EEEEEEES5_EENS9_ISA_Lin1ELi1EEEEENS9_ISF_Lin1ELi1EEEEEEEEE
	_ZTIN4inet4math9IFunctionINS_5units5valueIdNS2_7composeINS4_INS4_INS2_5units1mENS4_INS5_2kgENS2_3powINS5_1sELin2ELi1EEEEEEES6_EENS8_IS9_Lin1ELi1EEEEEEENS0_6DomainIJNS3_IN7omnetpp7SimTimeES9_EEEEEEE
	_ZTIN4inet4math9IFunctionINS_5units5valueIdNS2_7composeINS4_INS4_INS2_5units1mENS4_INS5_2kgENS2_3powINS5_1sELin2ELi1EEEEEEES6_EENS8_IS9_Lin1ELi1EEEEEEENS0_6DomainIJNS3_IdS6_EESI_SI_NS3_IN7omnetpp7SimTimeES9_EEEEEEE
	_ZTIN4inet4math9IFunctionINS_5units5valueIdNS2_7composeINS4_INS4_INS4_INS2_5units1mENS4_INS5_2kgENS2_3powINS5_1sELin2ELi1EEEEEEES6_EENS8_IS9_Lin1ELi1EEEEENS8_ISE_Lin1ELi1EEEEEEENS0_6DomainIJNS3_IN7omnetpp7SimTimeES9_EEEEEEE
	_ZTIN4inet4math9IFunctionINS_5units5valueIdNS2_7composeINS4_INS4_INS4_INS2_5units1mENS4_INS5_2kgENS2_3powINS5_1sELin2ELi1EEEEEEES6_EENS8_IS9_Lin1ELi1EEEEENS8_ISE_Lin1ELi1EEEEEEENS0_6DomainIJNS3_IN7omnetpp7SimTimeES9_EENS3_IdSE_EEEEEEE
	_ZTIN4inet4math9IFunctionINS_5units5valueIdNS2_7composeINS4_INS4_INS4_INS2_5units1mENS4_INS5_2kgENS2_3powINS5_1sELin2ELi1EEEEEEES6_EENS8_IS9_Lin1ELi1EEEEENS8_ISE_Lin1ELi1EEEEEEENS0_6DomainIJNS3_IdS6_EESK_SK_NS3_IN7omnetpp7SimTimeES9_EENS3_IdSE_EEEEEEE
	_ZTIN4inet4math9IFunctionIdNS0_6DomainIJNS_10QuaternionEEEEEE
	_ZTIN4inet4math9IFunctionIdNS0_6DomainIJNS_5units5valueIN7omnetpp7SimTimeENS3_5units1sEEEEEEEE
	_ZTIN4inet4math9IFunctionIdNS0_6DomainIJNS_5units5valueIN7omnetpp7SimTimeENS3_5units1sEEENS4_IdNS3_3powIS8_Lin1ELi1EEEEEEEEEE
	_ZTIN4inet4math9IFunctionIdNS0_6DomainIJNS_5units5valueIdNS3_3powINS3_5units1sELin1ELi1EEEEEEEEEE
	_ZTIN4inet4math9IFunctionIdNS0_6DomainIJNS_5units5valueIdNS3_5units1mEEES7_S7_NS4_IN7omnetpp7SimTimeENS5_1sEEEEEEEE
	_ZTIN4inet4math9IFunctionIdNS0_6DomainIJNS_5units5valueIdNS3_5units1mEEES7_S7_NS4_IN7omnetpp7SimTimeENS5_1sEEENS4_IdNS3_3powISA_Lin1ELi1EEEEEEEEEE
	_ZTIN4inet4math9IFunctionIdNS0_6DomainIJNS_5units5valueIdNS3_5units1mEEES7_S7_S7_S7_S7_NS4_IdNS3_3powINS5_1sELin1ELi1EEEEEEEEEE
	_ZTIN4inet4math9IFunctionIdNS0_6DomainIJNS_5units5valueIdNS3_7composeINS3_5units1mENS3_3powINS6_1sELin1ELi1EEEEEEENS4_IdS7_EENS4_IdSA_EEEEEEE
	_ZTIN4inet4ospf14OspfPacketBaseE
	_ZTIN4inet4ospf14OspfPacketTypeE
	_ZTIN4inet4ospf20OspfPacketSerializerE
	_ZTIN4inet4ospf21OspfProtocolDissectorE
	_ZTIN4inet4ospf24OspfPacketBaseDescriptorE
	_ZTIN4inet4sctp10NatMessageE
	_ZTIN4inet4sctp10SctpCookieE
	_ZTIN4inet4sctp10SctpHeaderE
	_ZTIN4inet4sctp11SctpDataMsgE
	_ZTIN4inet4sctp11SctpNatHookE
	_ZTIN4inet4sctp11SctpUdpHookE
	_ZTIN4inet4sctp12SctpNatEntryE
	_ZTIN4inet4sctp12SctpNatTableE
	_ZTIN4inet4sctp13SctpAlgorithmE
	_ZTIN4inet4sctp13SctpDataChunkE
	_ZTIN4inet4sctp13SctpInitChunkE
	_ZTIN4inet4sctp13SctpParameterE
	_ZTIN4inet4sctp13SctpSackChunkE
	_ZTIN4inet4sctp14SctpAbortChunkE
	_ZTIN4inet4sctp14SctpErrorChunkE
	_ZTIN4inet4sctp14SctpResetTimerE
	_ZTIN4inet4sctp14SctpSendStreamE
	_ZTIN4inet4sctp15SctpAsconfChunkE
	_ZTIN4inet4sctp15SctpAssociationE
	_ZTIN4inet4sctp15SctpHeader_BaseE
	_ZTIN4inet4sctp16SctpCrcInsertionE
	_ZTIN4inet4sctp16SctpInitAckChunkE
	_ZTIN4inet4sctp17SctpDataVariablesE
	_ZTIN4inet4sctp17SctpPathVariablesE
	_ZTIN4inet4sctp17SctpReceiveStreamE
	_ZTIN4inet4sctp17SctpShutdownChunkE
	_ZTIN4inet4sctp18SctpAddIPParameterE
	_ZTIN4inet4sctp18SctpAsconfAckChunkE
	_ZTIN4inet4sctp18SctpCookieAckChunkE
	_ZTIN4inet4sctp18SctpHeartbeatChunkE
	_ZTIN4inet4sctp18SctpStateVariablesE
	_ZTIN4inet4sctp19SctpChunkDescriptorE
	_ZTIN4inet4sctp19SctpCookieEchoChunkE
	_ZTIN4inet4sctp19SctpErrorChunk_BaseE
	_ZTIN4inet4sctp19SctpForwardTsnChunkE
	_ZTIN4inet4sctp19SctpPacketDropChunkE
	_ZTIN4inet4sctp19SctpProtocolPrinterE
	_ZTIN4inet4sctp20NatMessageDescriptorE
	_ZTIN4inet4sctp20SctpAsconfChunk_BaseE
	_ZTIN4inet4sctp20SctpCookieDescriptorE
	_ZTIN4inet4sctp20SctpHeaderDescriptorE
	_ZTIN4inet4sctp20SctpHeaderSerializerE
	_ZTIN4inet4sctp20SctpShutdownAckChunkE
	_ZTIN4inet4sctp20SctpStreamResetChunkE
	_ZTIN4inet4sctp21SctpAlgStateVariablesE
	_ZTIN4inet4sctp21SctpDataMsgDescriptorE
	_ZTIN4inet4sctp21SctpDeleteIPParameterE
	_ZTIN4inet4sctp21SctpHeartbeatAckChunkE
	_ZTIN4inet4sctp21SctpProtocolDissectorE
	_ZTIN4inet4sctp21SctpSuccessIndicationE
	_ZTIN4inet4sctp23SctpAsconfAckChunk_BaseE
	_ZTIN4inet4sctp23SctpAuthenticationChunkE
	_ZTIN4inet4sctp23SctpDataChunkDescriptorE
	_ZTIN4inet4sctp23SctpErrorCauseParameterE
	_ZTIN4inet4sctp23SctpInitChunkDescriptorE
	_ZTIN4inet4sctp23SctpParameterDescriptorE
	_ZTIN4inet4sctp23SctpSackChunkDescriptorE
	_ZTIN4inet4sctp24SctpAbortChunkDescriptorE
	_ZTIN4inet4sctp24SctpErrorChunkDescriptorE
	_ZTIN4inet4sctp24SctpResetTimerDescriptorE
	_ZTIN4inet4sctp25SctpAsconfChunkDescriptorE
	_ZTIN4inet4sctp25SctpSetPrimaryIPParameterE
	_ZTIN4inet4sctp25SctpShutdownCompleteChunkE
	_ZTIN4inet4sctp25SctpStreamResetChunk_BaseE
	_ZTIN4inet4sctp26SctpInitAckChunkDescriptorE
	_ZTIN4inet4sctp27SctpShutdownChunkDescriptorE
	_ZTIN4inet4sctp28SctpAddIPParameterDescriptorE
	_ZTIN4inet4sctp28SctpAsconfAckChunkDescriptorE
	_ZTIN4inet4sctp28SctpCookieAckChunkDescriptorE
	_ZTIN4inet4sctp28SctpHeartbeatChunkDescriptorE
	_ZTIN4inet4sctp29SctpCookieEchoChunkDescriptorE
	_ZTIN4inet4sctp29SctpForwardTsnChunkDescriptorE
	_ZTIN4inet4sctp29SctpPacketDropChunkDescriptorE
	_ZTIN4inet4sctp29SctpSimpleErrorCauseParameterE
	_ZTIN4inet4sctp30SctpAddStreamsRequestParameterE
	_ZTIN4inet4sctp30SctpShutdownAckChunkDescriptorE
	_ZTIN4inet4sctp30SctpStreamResetChunkDescriptorE
	_ZTIN4inet4sctp31SctpDeleteIPParameterDescriptorE
	_ZTIN4inet4sctp31SctpHeartbeatAckChunkDescriptorE
	_ZTIN4inet4sctp31SctpSsnTsnResetRequestParameterE
	_ZTIN4inet4sctp31SctpSuccessIndicationDescriptorE
	_ZTIN4inet4sctp32SctpStreamResetResponseParameterE
	_ZTIN4inet4sctp32SctpSupportedExtensionsParameterE
	_ZTIN4inet4sctp33SctpAuthenticationChunkDescriptorE
	_ZTIN4inet4sctp33SctpErrorCauseParameterDescriptorE
	_ZTIN4inet4sctp35SctpSetPrimaryIPParameterDescriptorE
	_ZTIN4inet4sctp35SctpShutdownCompleteChunkDescriptorE
	_ZTIN4inet4sctp36SctpIncomingSsnResetRequestParameterE
	_ZTIN4inet4sctp36SctpOutgoingSsnResetRequestParameterE
	_ZTIN4inet4sctp39SctpSimpleErrorCauseParameterDescriptorE
	_ZTIN4inet4sctp40SctpAddStreamsRequestParameterDescriptorE
	_ZTIN4inet4sctp41SctpIncomingSsnResetRequestParameter_BaseE
	_ZTIN4inet4sctp41SctpSsnTsnResetRequestParameterDescriptorE
	_ZTIN4inet4sctp42SctpStreamResetResponseParameterDescriptorE
	_ZTIN4inet4sctp42SctpSupportedExtensionsParameterDescriptorE
	_ZTIN4inet4sctp46SctpIncomingSsnResetRequestParameterDescriptorE
	_ZTIN4inet4sctp46SctpOutgoingSsnResetRequestParameterDescriptorE
	_ZTIN4inet4sctp4SctpE
	_ZTIN4inet4sctp7SctpAlgE
	_ZTIN4inet4sctp9SctpChunkE
	_ZTIN4inet4sctp9SctpQueueE
	_ZTIN4inet5ChunkE
	_ZTIN4inet5CoordE
	_ZTIN4inet5Macho12_InitializerE
	_ZTIN4inet5Macho13_RootInstanceE
	_ZTIN4inet5Macho14_StateInstanceE
	_ZTIN4inet5Macho17_SubstateInstanceINS_3bgp3fsm11EstablishedEEE
	_ZTIN4inet5Macho17_SubstateInstanceINS_3bgp3fsm11OpenConfirmEEE
	_ZTIN4inet5Macho17_SubstateInstanceINS_3bgp3fsm4IdleEEE
	_ZTIN4inet5Macho17_SubstateInstanceINS_3bgp3fsm6ActiveEEE
	_ZTIN4inet5Macho17_SubstateInstanceINS_3bgp3fsm7ConnectEEE
	_ZTIN4inet5Macho17_SubstateInstanceINS_3bgp3fsm8OpenSentEEE
	_ZTIN4inet5Macho17_SubstateInstanceINS_3bgp3fsm8TopStateEEE
	_ZTIN4inet5Macho18_StaticInitializerE
	_ZTIN4inet5Macho19_DefaultInitializerE
	_ZTIN4inet5Macho19_HistoryInitializerE
	_ZTIN4inet5Macho19_StateSpecificationE
	_ZTIN4inet5Macho20_AdaptingInitializerE
	_ZTIN4inet5Macho7TopBaseINS_3bgp3fsm8TopStateEEE
	_ZTIN4inet5Macho9MachoLinkINS_3bgp3fsm11EstablishedENS3_8TopStateEEE
	_ZTIN4inet5Macho9MachoLinkINS_3bgp3fsm11OpenConfirmENS3_8TopStateEEE
	_ZTIN4inet5Macho9MachoLinkINS_3bgp3fsm4IdleENS3_8TopStateEEE
	_ZTIN4inet5Macho9MachoLinkINS_3bgp3fsm6ActiveENS3_8TopStateEEE
	_ZTIN4inet5Macho9MachoLinkINS_3bgp3fsm7ConnectENS3_8TopStateEEE
	_ZTIN4inet5Macho9MachoLinkINS_3bgp3fsm8OpenSentENS3_8TopStateEEE
	_ZTIN4inet5Macho9MachoLinkINS_3bgp3fsm8TopStateENS0_7TopBaseIS4_EEEE
	_ZTIN4inet5PimDm17PimDmOutInterfaceE
	_ZTIN4inet5PimDm17UpstreamInterfaceE
	_ZTIN4inet5PimDm19DownstreamInterfaceE
	_ZTIN4inet5PimDm5RouteE
	_ZTIN4inet5PimDmE
	_ZTIN4inet5PimSm14PimsmInterfaceE
	_ZTIN4inet5PimSm17PimSmOutInterfaceE
	_ZTIN4inet5PimSm17UpstreamInterfaceE
	_ZTIN4inet5PimSm19DownstreamInterfaceE
	_ZTIN4inet5PimSm5RouteE
	_ZTIN4inet5PimSmE
	_ZTIN4inet5PlaneE
	_ZTIN4inet5PrismE
	_ZTIN4inet5RipAfE
	_ZTIN4inet5power11IEnergySinkE
	_ZTIN4inet5power13ICcEnergySinkE
	_ZTIN4inet5power13IEnergySourceE
	_ZTIN4inet5power13IEpEnergySinkE
	_ZTIN4inet5power14EnergySinkBaseE
	_ZTIN4inet5power14IEnergyStorageE
	_ZTIN4inet5power15ICcEnergySourceE
	_ZTIN4inet5power15IEnergyConsumerE
	_ZTIN4inet5power15IEpEnergySourceE
	_ZTIN4inet5power15SimpleCcBatteryE
	_ZTIN4inet5power16CcEnergySinkBaseE
	_ZTIN4inet5power16EnergySourceBaseE
	_ZTIN4inet5power16EpEnergySinkBaseE
	_ZTIN4inet5power16ICcEnergyStorageE
	_ZTIN4inet5power16IEnergyGeneratorE
	_ZTIN4inet5power16IEpEnergyStorageE
	_ZTIN4inet5power17ICcEnergyConsumerE
	_ZTIN4inet5power17IEnergyManagementE
	_ZTIN4inet5power17IEpEnergyConsumerE
	_ZTIN4inet5power18CcEnergySourceBaseE
	_ZTIN4inet5power18EpEnergySourceBaseE
	_ZTIN4inet5power18ICcEnergyGeneratorE
	_ZTIN4inet5power18IEpEnergyGeneratorE
	_ZTIN4inet5power19CcEnergyStorageBaseE
	_ZTIN4inet5power19EpEnergyStorageBaseE
	_ZTIN4inet5power19IEpEnergyManagementE
	_ZTIN4inet5power20IdealEpEnergyStorageE
	_ZTIN4inet5power21SimpleEpEnergyStorageE
	_ZTIN4inet5power24SimpleEpEnergyManagementE
	_ZTIN4inet5power27AlternatingEpEnergyConsumerE
	_ZTIN4inet5power28AlternatingEpEnergyGeneratorE
	_ZTIN4inet5units5valueIdNS0_3powINS0_5units1sELin1ELi1EEEEE
	_ZTIN4inet5units5valueIdNS0_5units1AEEE
	_ZTIN4inet5units5valueIdNS0_5units1mEEE
	_ZTIN4inet5units5valueIdNS0_5units3radEEE
	_ZTIN4inet5units5valueIdNS0_7composeINS0_5units1bENS0_3powINS3_1sELin1ELi1EEEEEEE
	_ZTIN4inet5units5valueIdNS0_7composeINS0_5units1mENS0_3powINS3_1sELin1ELi1EEEEEEE
	_ZTIN4inet5units5valueIdNS0_7composeINS0_5units1sENS3_1AEEEEE
	_ZTIN4inet5units5valueIdNS0_7composeINS2_INS0_5units1mENS2_INS3_2kgENS0_3powINS3_1sELin2ELi1EEEEEEES4_EEEE
	_ZTIN4inet5units5valueIdNS0_7composeINS2_INS2_INS0_5units1mENS2_INS3_2kgENS0_3powINS3_1sELin2ELi1EEEEEEES4_EENS6_IS7_Lin1ELi1EEEEEEE
	_ZTIN4inet5units5valueIxNS0_5units1bEEE
	_ZTIN4inet5units5valueIxNS0_8intscaleINS0_5units1bELi1ELi8EEEEE
	_ZTIN4inet5utils7filters10TimerEventE
	_ZTIN4inet5utils7filters12XCoordFilterE
	_ZTIN4inet5utils7filters12YCoordFilterE
	_ZTIN4inet5utils7filters12ZCoordFilterE
	_ZTIN4inet5utils7filters13DataAgeFilterE
	_ZTIN4inet5utils7filters14VoidPtrWrapperE
	_ZTIN4inet5utils7filters16MessageAgeFilterE
	_ZTIN4inet5utils7filters16ThroughputFilterE
	_ZTIN4inet5utils7filters17ElapsedTimeFilterE
	_ZTIN4inet5utils7filters17LocalSignalFilterE
	_ZTIN4inet5utils7filters17MobilityPosFilterE
	_ZTIN4inet5utils7filters18MessageTsAgeFilterE
	_ZTIN4inet5utils7filters18QueueingTimeFilterE
	_ZTIN4inet5utils7filters20LiveThroughputFilterE
	_ZTIN4inet5utils7filters20cPointerResultFilterE
	_ZTIN4inet5utils7filters22PacketDropReasonFilterE
	_ZTIN4inet5utils7filters23MessageSourceAddrFilterE
	_ZTIN4inet5utils7filters27OtherPacketDropReasonFilterE
	_ZTIN4inet5utils7filters28MinimumSnirFromSnirIndFilterE
	_ZTIN4inet5utils7filters29ReceptionMinSignalPowerFilterE
	_ZTIN4inet5utils7filters31UndefinedPacketDropReasonFilterE
	_ZTIN4inet5utils7filters32CongestionPacketDropReasonFilterE
	_ZTIN4inet5utils7filters33NoPortFoundPacketDropReasonFilterE
	_ZTIN4inet5utils7filters34BitErrorRateFromErrorRateIndFilterE
	_ZTIN4inet5utils7filters34NoRouteFoundPacketDropReasonFilterE
	_ZTIN4inet5utils7filters35InterfaceDownPacketDropReasonFilterE
	_ZTIN4inet5utils7filters35QueueOverflowPacketDropReasonFilterE
	_ZTIN4inet5utils7filters37ApplicationPacketSequenceNumberFilterE
	_ZTIN4inet5utils7filters37HopLimitReachedPacketDropReasonFilterE
	_ZTIN4inet5utils7filters37LifetimeExpiredPacketDropReasonFilterE
	_ZTIN4inet5utils7filters37NoProtocolFoundPacketDropReasonFilterE
	_ZTIN4inet5utils7filters37PacketErrorRateFromErrorRateIndFilterE
	_ZTIN4inet5utils7filters37SymbolErrorRateFromErrorRateIndFilterE
	_ZTIN4inet5utils7filters38NoInterfaceFoundPacketDropReasonFilterE
	_ZTIN4inet5utils7filters38NotAddressedToUsPacketDropReasonFilterE
	_ZTIN4inet5utils7filters39DuplicateDetectedPacketDropReasonFilterE
	_ZTIN4inet5utils7filters39RetryLimitReachedPacketDropReasonFilterE
	_ZTIN4inet5utils7filters40ForwardingDisabledPacketDropReasonFilterE
	_ZTIN4inet5utils7filters41IncorrectlyReceivedPacketDropReasonFilterE
	_ZTIN4inet5utils7filters45AddressResolutionFailedPacketDropReasonFilterE
	_ZTIN4inet6CuboidE
	_ZTIN4inet6EcnIndE
	_ZTIN4inet6EcnReqE
	_ZTIN4inet6EroObjE
	_ZTIN4inet6FecTlvE
	_ZTIN4inet6IRouteE
	_ZTIN4inet6Icmpv6E
	_ZTIN4inet6Igmpv213HostGroupDataE
	_ZTIN4inet6Igmpv215RouterGroupDataE
	_ZTIN4inet6Igmpv217HostInterfaceDataE
	_ZTIN4inet6Igmpv219RouterInterfaceDataE
	_ZTIN4inet6Igmpv2E
	_ZTIN4inet6Igmpv312SourceRecordE
	_ZTIN4inet6Igmpv313HostGroupDataE
	_ZTIN4inet6Igmpv315RouterGroupDataE
	_ZTIN4inet6Igmpv317HostInterfaceDataE
	_ZTIN4inet6Igmpv319RouterInterfaceDataE
	_ZTIN4inet6Igmpv3E
	_ZTIN4inet6LdpIniE
	_ZTIN4inet6PacketE
	_ZTIN4inet6RsvpTeE
	_ZTIN4inet6SphereE
	_ZTIN4inet6TagSetE
	_ZTIN4inet6TosIndE
	_ZTIN4inet6TosReqE
	_ZTIN4inet6ospfv210NetworkLsaE
	_ZTIN4inet6ospfv210Ospfv2AreaE
	_ZTIN4inet6ospfv210Ospfv2LinkE
	_ZTIN4inet6ospfv210SummaryLsaE
	_ZTIN4inet6ospfv211RoutingInfoE
	_ZTIN4inet6ospfv212HelloHandlerE
	_ZTIN4inet6ospfv212Ospfv2PacketE
	_ZTIN4inet6ospfv213AsExternalLsaE
	_ZTIN4inet6ospfv213NeighborStateE
	_ZTIN4inet6ospfv213Ospfv2LsaTypeE
	_ZTIN4inet6ospfv213Ospfv2OptionsE
	_ZTIN4inet6ospfv213Ospfv2TosDataE
	_ZTIN4inet6ospfv214MessageHandlerE
	_ZTIN4inet6ospfv215IMessageHandlerE
	_ZTIN4inet6ospfv215LsaTrackingInfoE
	_ZTIN4inet6ospfv215Ospfv2DdOptionsE
	_ZTIN4inet6ospfv215Ospfv2InterfaceE
	_ZTIN4inet6ospfv215Ospfv2LsaHeaderE
	_ZTIN4inet6ospfv215Ospfv2RouterLsaE
	_ZTIN4inet6ospfv216Ospfv2LsaRequestE
	_ZTIN4inet6ospfv216Ospfv2NetworkLsaE
	_ZTIN4inet6ospfv216Ospfv2SummaryLsaE
	_ZTIN4inet6ospfv217NeighborStateDownE
	_ZTIN4inet6ospfv217NeighborStateFullE
	_ZTIN4inet6ospfv217NeighborStateInitE
	_ZTIN4inet6ospfv217Ospfv2HelloPacketE
	_ZTIN4inet6ospfv218InterfaceStateDownE
	_ZTIN4inet6ospfv218Ospfv2ConfigReaderE
	_ZTIN4inet6ospfv219NeighborStateTwoWayE
	_ZTIN4inet6ospfv219Ospfv2AsExternalLsaE
	_ZTIN4inet6ospfv219Ospfv2LsaDescriptorE
	_ZTIN4inet6ospfv220InterfaceStateBackupE
	_ZTIN4inet6ospfv220NeighborStateAttemptE
	_ZTIN4inet6ospfv220NeighborStateLoadingE
	_ZTIN4inet6ospfv220Ospfv2InterfaceStateE
	_ZTIN4inet6ospfv220Ospfv2LinkDescriptorE
	_ZTIN4inet6ospfv221InterfaceStateWaitingE
	_ZTIN4inet6ospfv221NeighborStateExchangeE
	_ZTIN4inet6ospfv221Ospfv2ExternalTosInfoE
	_ZTIN4inet6ospfv222InterfaceStateLoopbackE
	_ZTIN4inet6ospfv222LinkStateUpdateHandlerE
	_ZTIN4inet6ospfv222Ospfv2PacketDescriptorE
	_ZTIN4inet6ospfv222Ospfv2PacketSerializerE
	_ZTIN4inet6ospfv223LinkStateRequestHandlerE
	_ZTIN4inet6ospfv223Ospfv2OptionsDescriptorE
	_ZTIN4inet6ospfv223Ospfv2RoutingTableEntryE
	_ZTIN4inet6ospfv223Ospfv2TosDataDescriptorE
	_ZTIN4inet6ospfv225Ospfv2DdOptionsDescriptorE
	_ZTIN4inet6ospfv225Ospfv2LsaHeaderDescriptorE
	_ZTIN4inet6ospfv225Ospfv2RouterLsaDescriptorE
	_ZTIN4inet6ospfv226DatabaseDescriptionHandlerE
	_ZTIN4inet6ospfv226InterfaceStatePointToPointE
	_ZTIN4inet6ospfv226NeighborStateExchangeStartE
	_ZTIN4inet6ospfv226Ospfv2LsaRequestDescriptorE
	_ZTIN4inet6ospfv226Ospfv2NetworkLsaDescriptorE
	_ZTIN4inet6ospfv226Ospfv2SummaryLsaDescriptorE
	_ZTIN4inet6ospfv227Ospfv2AsExternalLsaContentsE
	_ZTIN4inet6ospfv227Ospfv2HelloPacketDescriptorE
	_ZTIN4inet6ospfv227Ospfv2LinkStateUpdatePacketE
	_ZTIN4inet6ospfv228Ospfv2LinkStateRequestPacketE
	_ZTIN4inet6ospfv229Ospfv2AsExternalLsaDescriptorE
	_ZTIN4inet6ospfv230InterfaceStateDesignatedRouterE
	_ZTIN4inet6ospfv231LinkStateAcknowledgementHandlerE
	_ZTIN4inet6ospfv231Ospfv2DatabaseDescriptionPacketE
	_ZTIN4inet6ospfv231Ospfv2ExternalTosInfoDescriptorE
	_ZTIN4inet6ospfv233InterfaceStateNotDesignatedRouterE
	_ZTIN4inet6ospfv236Ospfv2LinkStateAcknowledgementPacketE
	_ZTIN4inet6ospfv237Ospfv2AsExternalLsaContentsDescriptorE
	_ZTIN4inet6ospfv237Ospfv2LinkStateUpdatePacketDescriptorE
	_ZTIN4inet6ospfv238Ospfv2LinkStateRequestPacketDescriptorE
	_ZTIN4inet6ospfv241Ospfv2DatabaseDescriptionPacketDescriptorE
	_ZTIN4inet6ospfv246Ospfv2LinkStateAcknowledgementPacketDescriptorE
	_ZTIN4inet6ospfv26Ospfv2E
	_ZTIN4inet6ospfv26RouterE
	_ZTIN4inet6ospfv28LinkTypeE
	_ZTIN4inet6ospfv28NeighborE
	_ZTIN4inet6ospfv29Ospfv2LsaE
	_ZTIN4inet6ospfv29RouterLsaE
	_ZTIN4inet6ospfv310NetworkLSAE
	_ZTIN4inet6ospfv310Ospfv3AreaE
	_ZTIN4inet6ospfv311RoutingInfoE
	_ZTIN4inet6ospfv312Ospfv3PacketE
	_ZTIN4inet6ospfv313Ospfv3LinkLsaE
	_ZTIN4inet6ospfv313Ospfv3NssaLsaE
	_ZTIN4inet6ospfv313Ospfv3OptionsE
	_ZTIN4inet6ospfv313Ospfv3ProcessE
	_ZTIN4inet6ospfv314Ospfv3InstanceE
	_ZTIN4inet6ospfv314Ospfv3NeighborE
	_ZTIN4inet6ospfv314Ospfv3SplitterE
	_ZTIN4inet6ospfv315LSATrackingInfoE
	_ZTIN4inet6ospfv315Ospfv3DdOptionsE
	_ZTIN4inet6ospfv315Ospfv3InterfaceE
	_ZTIN4inet6ospfv315Ospfv3LsRequestE
	_ZTIN4inet6ospfv315Ospfv3LsaHeaderE
	_ZTIN4inet6ospfv315Ospfv3RouterLsaE
	_ZTIN4inet6ospfv316Ospfv3LsaPrefix0E
	_ZTIN4inet6ospfv316Ospfv3NetworkLsaE
	_ZTIN4inet6ospfv317Ospfv3HelloPacketE
	_ZTIN4inet6ospfv318InterAreaPrefixLSAE
	_ZTIN4inet6ospfv318IntraAreaPrefixLSAE
	_ZTIN4inet6ospfv319Ospfv3AsExternalLsaE
	_ZTIN4inet6ospfv319Ospfv3LsaDescriptorE
	_ZTIN4inet6ospfv319Ospfv3NeighborStateE
	_ZTIN4inet6ospfv319Ospfv3RouterLsaBodyE
	_ZTIN4inet6ospfv320Ospfv3InterfaceStateE
	_ZTIN4inet6ospfv321Ospfv3LsaPrefixMetricE
	_ZTIN4inet6ospfv322Ospfv3InterfacePassiveE
	_ZTIN4inet6ospfv322Ospfv3InterfaceStateDrE
	_ZTIN4inet6ospfv322Ospfv3PacketDescriptorE
	_ZTIN4inet6ospfv323Ospfv3LinkLsaDescriptorE
	_ZTIN4inet6ospfv323Ospfv3NeighborState2WayE
	_ZTIN4inet6ospfv323Ospfv3NeighborStateDownE
	_ZTIN4inet6ospfv323Ospfv3NeighborStateFullE
	_ZTIN4inet6ospfv323Ospfv3NeighborStateInitE
	_ZTIN4inet6ospfv323Ospfv3NssaLsaDescriptorE
	_ZTIN4inet6ospfv323Ospfv3OptionsDescriptorE
	_ZTIN4inet6ospfv323Ospfv3RoutingTableEntryE
	_ZTIN4inet6ospfv324Ospfv3InterAreaPrefixLsaE
	_ZTIN4inet6ospfv324Ospfv3InterAreaRouterLsaE
	_ZTIN4inet6ospfv324Ospfv3InterfaceStateDownE
	_ZTIN4inet6ospfv324Ospfv3IntraAreaPrefixLsaE
	_ZTIN4inet6ospfv325Ospfv3DdOptionsDescriptorE
	_ZTIN4inet6ospfv325Ospfv3LsRequestDescriptorE
	_ZTIN4inet6ospfv325Ospfv3LsaHeaderDescriptorE
	_ZTIN4inet6ospfv325Ospfv3RouterLsaDescriptorE
	_ZTIN4inet6ospfv326Ospfv3InterfaceStateBackupE
	_ZTIN4inet6ospfv326Ospfv3LsaPrefix0DescriptorE
	_ZTIN4inet6ospfv326Ospfv3NeighborStateAttemptE
	_ZTIN4inet6ospfv326Ospfv3NeighborStateExStartE
	_ZTIN4inet6ospfv326Ospfv3NeighborStateLoadingE
	_ZTIN4inet6ospfv326Ospfv3NetworkLsaDescriptorE
	_ZTIN4inet6ospfv327Ospfv3HelloPacketDescriptorE
	_ZTIN4inet6ospfv327Ospfv3InterfaceStateDrOtherE
	_ZTIN4inet6ospfv327Ospfv3InterfaceStateWaitingE
	_ZTIN4inet6ospfv327Ospfv3Ipv4RoutingTableEntryE
	_ZTIN4inet6ospfv327Ospfv3LinkStateUpdatePacketE
	_ZTIN4inet6ospfv327Ospfv3NeighborStateExchangeE
	_ZTIN4inet6ospfv328Ospfv3InterfaceStateLoopbackE
	_ZTIN4inet6ospfv328Ospfv3LinkStateRequestPacketE
	_ZTIN4inet6ospfv329Ospfv3AsExternalLsaDescriptorE
	_ZTIN4inet6ospfv329Ospfv3RouterLsaBodyDescriptorE
	_ZTIN4inet6ospfv331Ospfv3DatabaseDescriptionPacketE
	_ZTIN4inet6ospfv331Ospfv3LsaPrefixMetricDescriptorE
	_ZTIN4inet6ospfv332Ospfv3InterfaceStatePointToPointE
	_ZTIN4inet6ospfv334Ospfv3InterAreaPrefixLsaDescriptorE
	_ZTIN4inet6ospfv334Ospfv3InterAreaRouterLsaDescriptorE
	_ZTIN4inet6ospfv334Ospfv3IntraAreaPrefixLsaDescriptorE
	_ZTIN4inet6ospfv336Ospfv3LinkStateAcknowledgementPacketE
	_ZTIN4inet6ospfv337Ospfv3LinkStateUpdatePacketDescriptorE
	_ZTIN4inet6ospfv338Ospfv3LinkStateRequestPacketDescriptorE
	_ZTIN4inet6ospfv341Ospfv3DatabaseDescriptionPacketDescriptorE
	_ZTIN4inet6ospfv346Ospfv3LinkStateAcknowledgementPacketDescriptorE
	_ZTIN4inet6ospfv37LinkLSAE
	_ZTIN4inet6ospfv39Ospfv3LsaE
	_ZTIN4inet6ospfv39RouterLSAE
	_ZTIN4inet6xMIPv612TimerIfEntryE
	_ZTIN4inet6xMIPv615BcExpiryIfEntryE
	_ZTIN4inet6xMIPv616BulExpiryIfEntryE
	_ZTIN4inet6xMIPv617BrTransmitIfEntryE
	_ZTIN4inet6xMIPv617BuTransmitIfEntryE
	_ZTIN4inet6xMIPv618TokenExpiryIfEntryE
	_ZTIN4inet6xMIPv623TestInitTransmitIfEntryE
	_ZTIN4inet6xMIPv6E
	_ZTIN4inet7BpduCfgE
	_ZTIN4inet7BpduTcnE
	_ZTIN4inet7BvhTreeE
	_ZTIN4inet7CrcModeE
	_ZTIN4inet7DscpIndE
	_ZTIN4inet7DscpReqE
	_ZTIN4inet7FcsModeE
	_ZTIN4inet7ISocketE
	_ZTIN4inet7MessageE
	_ZTIN4inet7PimBase10RouteEntryE
	_ZTIN4inet7PimBase14SourceAndGroupE
	_ZTIN4inet7PimBase9InterfaceE
	_ZTIN4inet7PimBaseE
	_ZTIN4inet7PingAppE
	_ZTIN4inet7PolygonE
	_ZTIN4inet7RateTagE
	_ZTIN4inet7RequestE
	_ZTIN4inet7SnirIndE
	_ZTIN4inet7StpBaseE
	_ZTIN4inet7TagBaseE
	_ZTIN4inet7UdpSinkE
	_ZTIN4inet7VlanIndE
	_ZTIN4inet7VlanReqE
	_ZTIN4inet8BMacTypeE
	_ZTIN4inet8BaStatusE
	_ZTIN4inet8BeStatusE
	_ZTIN4inet8BpduBaseE
	_ZTIN4inet8BpduTypeE
	_ZTIN4inet8EtherBusE
	_ZTIN4inet8EtherHubE
	_ZTIN4inet8EtherMacE
	_ZTIN4inet8FloodingE
	_ZTIN4inet8HomeTestE
	_ZTIN4inet8IVisitorE
	_ZTIN4inet8IcmpTypeE
	_ZTIN4inet8IgmpTypeE
	_ZTIN4inet8L3SocketE
	_ZTIN4inet8LMacTypeE
	_ZTIN4inet8LdpHelloE
	_ZTIN4inet8LibTable8LibEntryE
	_ZTIN4inet8LibTableE
	_ZTIN4inet8LoopbackE
	_ZTIN4inet8PimGraftE
	_ZTIN4inet8PimHelloE
	_ZTIN4inet8ProtocolE
	_ZTIN4inet8RipEntryE
	_ZTIN4inet8RipRouteE
	_ZTIN4inet8SctpPeerE
	_ZTIN4inet8Topology4LinkE
	_ZTIN4inet8Topology4NodeE
	_ZTIN4inet8TopologyE
	_ZTIN4inet8queueing10PacketGateE
	_ZTIN4inet8queueing10RedDropperE
	_ZTIN4inet8queueing11IPacketSinkE
	_ZTIN4inet8queueing11PacketQueueE
	_ZTIN4inet8queueing11RateLimiterE
	_ZTIN4inet8queueing12IPacketMeterE
	_ZTIN4inet8queueing12IPacketQueueE
	_ZTIN4inet8queueing12PacketBufferE
	_ZTIN4inet8queueing12PacketClonerE
	_ZTIN4inet8queueing12PacketFilterE
	_ZTIN4inet8queueing12PacketServerE
	_ZTIN4inet8queueing12PacketTaggerE
	_ZTIN4inet8queueing12WrrSchedulerE
	_ZTIN4inet8queueing12cPacketQueueE
	_ZTIN4inet8queueing13IPacketBuffer9ICallbackE
	_ZTIN4inet8queueing13IPacketBufferE
	_ZTIN4inet8queueing13IPacketFilterE
	_ZTIN4inet8queueing13IPacketMarkerE
	_ZTIN4inet8queueing13IPacketSourceE
	_ZTIN4inet8queueing13PacketDelayerE
	_ZTIN4inet8queueing13PacketLabelerE
	_ZTIN4inet8queueing13WrrClassifierE
	_ZTIN4inet8queueing14LabelSchedulerE
	_ZTIN4inet8queueing14PacketSinkBaseE
	_ZTIN4inet8queueing15AnyPacketFilterE
	_ZTIN4inet8queueing15LabelClassifierE
	_ZTIN4inet8queueing15MarkovSchedulerE
	_ZTIN4inet8queueing15PacketMeterBaseE
	_ZTIN4inet8queueing15PacketQueueBaseE
	_ZTIN4inet8queueing15PacketSchedulerE
	_ZTIN4inet8queueing16ActivePacketSinkE
	_ZTIN4inet8queueing16MarkovClassifierE
	_ZTIN4inet8queueing16PacketBufferBaseE
	_ZTIN4inet8queueing16PacketClassifierE
	_ZTIN4inet8queueing16PacketDuplicatorE
	_ZTIN4inet8queueing16PacketFilterBaseE
	_ZTIN4inet8queueing16PacketMarkerBaseE
	_ZTIN4inet8queueing16PacketServerBaseE
	_ZTIN4inet8queueing16PacketSourceBaseE
	_ZTIN4inet8queueing16PacketTaggerBaseE
	_ZTIN4inet8queueing16TokenBasedServerE
	_ZTIN4inet8queueing17EmptyPacketSourceE
	_ZTIN4inet8queueing17IActivePacketSinkE
	_ZTIN4inet8queueing17IPacketCollectionE
	_ZTIN4inet8queueing17IPacketDuplicatorE
	_ZTIN4inet8queueing17PacketLabelerBaseE
	_ZTIN4inet8queueing17PacketMultiplexerE
	_ZTIN4inet8queueing17PassivePacketSinkE
	_ZTIN4inet8queueing17PrioritySchedulerE
	_ZTIN4inet8queueing18ActivePacketSourceE
	_ZTIN4inet8queueing18ContentBasedFilterE
	_ZTIN4inet8queueing18ContentBasedTaggerE
	_ZTIN4inet8queueing18IPassivePacketSinkE
	_ZTIN4inet8queueing18PriorityClassifierE
	_ZTIN4inet8queueing18TokenGeneratorBaseE
	_ZTIN4inet8queueing19CompoundPacketQueueE
	_ZTIN4inet8queueing19ContentBasedLabelerE
	_ZTIN4inet8queueing19IActivePacketSourceE
	_ZTIN4inet8queueing19OrdinalBasedDropperE
	_ZTIN4inet8queueing19PacketDataSchedulerE
	_ZTIN4inet8queueing19PacketDemultiplexerE
	_ZTIN4inet8queueing19PacketProcessorBaseE
	_ZTIN4inet8queueing19PacketSchedulerBaseE
	_ZTIN4inet8queueing19PassivePacketSourceE
	_ZTIN4inet8queueing20IPassivePacketSourceE
	_ZTIN4inet8queueing20PacketClassifierBaseE
	_ZTIN4inet8queueing20PacketDataClassifierE
	_ZTIN4inet8queueing20PacketDataComparatorE
	_ZTIN4inet8queueing20PacketDuplicatorBaseE
	_ZTIN4inet8queueing21CPacketFilterFunctionE
	_ZTIN4inet8queueing21ContentBasedSchedulerE
	_ZTIN4inet8queueing21IPacketFilterFunctionE
	_ZTIN4inet8queueing21PassivePacketSinkBaseE
	_ZTIN4inet8queueing22CPacketDropperFunctionE
	_ZTIN4inet8queueing22ContentBasedClassifierE
	_ZTIN4inet8queueing22IPacketDropperFunctionE
	_ZTIN4inet8queueing22IPacketQueueingElementE
	_ZTIN4inet8queueing22OrdinalBasedDuplicatorE
	_ZTIN4inet8queueing22PcapFilePacketConsumerE
	_ZTIN4inet8queueing22PcapFilePacketProducerE
	_ZTIN4inet8queueing23FunctionBasedComparatorE
	_ZTIN4inet8queueing23TimeBasedTokenGeneratorE
	_ZTIN4inet8queueing24CPacketSchedulerFunctionE
	_ZTIN4inet8queueing24IPacketSchedulerFunctionE
	_ZTIN4inet8queueing24QueueBasedTokenGeneratorE
	_ZTIN4inet8queueing25CPacketClassifierFunctionE
	_ZTIN4inet8queueing25CPacketComparatorFunctionE
	_ZTIN4inet8queueing25IPacketClassifierFunctionE
	_ZTIN4inet8queueing25IPacketComparatorFunctionE
	_ZTIN4inet8queueing25PacketBasedTokenGeneratorE
	_ZTIN4inet8queueing25PacketQueueingElementBaseE
	_ZTIN4inet8queueing25SignalBasedTokenGeneratorE
	_ZTIN4inet8queueing27PacketUserPrioritySchedulerE
	_ZTIN4inet8queueing28PacketAtCollectionEndDropperE
	_ZTIN4inet8queueing28PacketCreationTimeComparatorE
	_ZTIN4inet8queueing28PacketUserPriorityClassifierE
	_ZTIN4inet8queueing30PacketAtCollectionBeginDropperE
	_ZTIN4inet8queueing32PacketCharacterOrEnterClassifierE
	_ZTIN4inet8queueing36PacketWithLowestOwnerModuleIdDropperE
	_ZTIN4inet8queueing37PacketWithHighestOwnerModuleIdDropperE
	_ZTIN4inet8queueing6cQueue10ComparatorE
	_ZTIN4inet8queueing6cQueueE
	_ZTIN4inet8queueing9EcnMarkerE
	_ZTIN4inet8queueing9RateMeterE
	_ZTIN4inet9AckingMacE
	_ZTIN4inet9ArpOpcodeE
	_ZTIN4inet9ArpPacketE
	_ZTIN4inet9BarFigureE
	_ZTIN4inet9BitVectorE
	_ZTIN4inet9BitsChunkE
	_ZTIN4inet9CsmaCaMacE
	_ZTIN4inet9DhcpLeaseE
	_ZTIN4inet9DsdvHelloE
	_ZTIN4inet9GlobalArp13ArpCacheEntryE
	_ZTIN4inet9GlobalArpE
	_ZTIN4inet9IMobilityE
	_ZTIN4inet9IgmpQueryE
	_ZTIN4inet9Ipv4RouteE
	_ZTIN4inet9Ipv6NdMtuE
	_ZTIN4inet9Ipv6RouteE
	_ZTIN4inet9L3AddressE
	_ZTIN4inet9L4PortIndE
	_ZTIN4inet9L4PortReqE
	_ZTIN4inet9LabelsTagE
	_ZTIN4inet9LdpNotifyE
	_ZTIN4inet9LdpPacketE
	_ZTIN4inet9PimAssertE
	_ZTIN4inet9PimPacketE
	_ZTIN4inet9PppHeaderE
	_ZTIN4inet9RipPacketE
	_ZTIN4inet9ShapeBaseE
	_ZTIN4inet9SocketIndE
	_ZTIN4inet9SocketReqE
	_ZTIN4inet9StpTesterE
	_ZTIN4inet9TcpSocket25ReceiveQueueBasedCallbackE
	_ZTIN4inet9TcpSocket9ICallbackE
	_ZTIN4inet9TcpSocketE
	_ZTIN4inet9TelnetAppE
	_ZTIN4inet9TunSocket9ICallbackE
	_ZTIN4inet9TunSocketE
	_ZTIN4inet9TunnelAppE
	_ZTIN4inet9UdpHeaderE
	_ZTIN4inet9UdpSocket9ICallbackE
	_ZTIN4inet9UdpSocketE
	_ZTIN4inet9WiseRouteE
	_ZTIN4inet9XMacTypesE
	_ZTIN4inet9httptools10HttpServerE
	_ZTIN4inet9httptools10rdConstantE
	_ZTIN4inet9httptools11HttpBrowserE
	_ZTIN4inet9httptools11rdHistogramE
	_ZTIN4inet9httptools12HttpNodeBaseE
	_ZTIN4inet9httptools13rdExponentialE
	_ZTIN4inet9httptools14HttpControllerE
	_ZTIN4inet9httptools14HttpServerBaseE
	_ZTIN4inet9httptools15HttpBaseMessageE
	_ZTIN4inet9httptools15HttpBrowserBaseE
	_ZTIN4inet9httptools15HttpContentTypeE
	_ZTIN4inet9httptools15HttpServerEvilAE
	_ZTIN4inet9httptools15HttpServerEvilBE
	_ZTIN4inet9httptools16HttpReplyMessageE
	_ZTIN4inet9httptools16HttpServerDirectE
	_ZTIN4inet9httptools17HttpBrowserDirectE
	_ZTIN4inet9httptools18HttpRequestMessageE
	_ZTIN4inet9httptools21HttpServerDirectEvilAE
	_ZTIN4inet9httptools21HttpServerDirectEvilBE
	_ZTIN4inet9httptools25HttpBaseMessageDescriptorE
	_ZTIN4inet9httptools25HttpServerStatusUpdateMsgE
	_ZTIN4inet9httptools26HttpReplyMessageDescriptorE
	_ZTIN4inet9httptools28HttpRequestMessageDescriptorE
	_ZTIN4inet9httptools35HttpServerStatusUpdateMsgDescriptorE
	_ZTIN4inet9httptools6rdZipfE
	_ZTIN4inet9httptools8rdNormalE
	_ZTIN4inet9httptools8rdObjectE
	_ZTIN4inet9httptools9rdUniformE
	_ZTIN4inet9ieee8021110AckHandler6StatusE
	_ZTIN4inet9ieee8021110AckHandlerE
	_ZTIN4inet9ieee8021110Contention5StateE
	_ZTIN4inet9ieee8021110ContentionE
	_ZTIN4inet9ieee8021110ICtsPolicyE
	_ZTIN4inet9ieee8021110IRtsPolicyE
	_ZTIN4inet9ieee8021110OptionalFsE
	_ZTIN4inet9ieee8021111IAckHandlerE
	_ZTIN4inet9ieee8021111IContention9ICallbackE
	_ZTIN4inet9ieee8021111IContentionE
	_ZTIN4inet9ieee8021111IReassemblyE
	_ZTIN4inet9ieee8021111ReceiveStepE
	_ZTIN4inet9ieee8021111RepeatingFsE
	_ZTIN4inet9ieee8021112CtsProcedureE
	_ZTIN4inet9ieee8021112IRateControlE
	_ZTIN4inet9ieee8021112IReceiveStepE
	_ZTIN4inet9ieee8021112Ieee80211MacE
	_ZTIN4inet9ieee8021112Ieee80211Mib14BssStationTypeE
	_ZTIN4inet9ieee8021112Ieee80211Mib15BssMemberStatusE
	_ZTIN4inet9ieee8021112Ieee80211Mib4ModeE
	_ZTIN4inet9ieee8021112Ieee80211MibE
	_ZTIN4inet9ieee8021112ManagementFsE
	_ZTIN4inet9ieee8021112QosCtsPolicyE
	_ZTIN4inet9ieee8021112QosRtsPolicyE
	_ZTIN4inet9ieee8021112RtsProcedureE
	_ZTIN4inet9ieee8021112SequentialFsE
	_ZTIN4inet9ieee8021112TransmitStepE
	_ZTIN4inet9ieee8021113FragmentationE
	_ZTIN4inet9ieee8021113ICtsProcedureE
	_ZTIN4inet9ieee8021113IIeee80211LlcE
	_ZTIN4inet9ieee8021113IRtsProcedureE
	_ZTIN4inet9ieee8021113ITransmitStepE
	_ZTIN4inet9ieee8021113QosAckHandler6StatusE
	_ZTIN4inet9ieee8021113QosAckHandlerE
	_ZTIN4inet9ieee8021113RateSelectionE
	_ZTIN4inet9ieee8021113ReceiveBufferE
	_ZTIN4inet9ieee8021113TxopProcedure19ProtectionMechanismE
	_ZTIN4inet9ieee8021113TxopProcedureE
	_ZTIN4inet9ieee8021114AccessCategoryE
	_ZTIN4inet9ieee8021114AlternativesFsE
	_ZTIN4inet9ieee8021114BlockAckRecordE
	_ZTIN4inet9ieee8021114FragFrameAckFsE
	_ZTIN4inet9ieee8021114IChannelAccess9ICallbackE
	_ZTIN4inet9ieee8021114IChannelAccessE
	_ZTIN4inet9ieee8021114IFragmentationE
	_ZTIN4inet9ieee8021114IFrameSequenceE
	_ZTIN4inet9ieee8021114IRateSelectionE
	_ZTIN4inet9ieee8021114Ieee80211DelbaE
	_ZTIN4inet9ieee8021114LastFrameAckFsE
	_ZTIN4inet9ieee8021114LlcProtocolTagE
	_ZTIN4inet9ieee8021114SequenceNumberE
	_ZTIN4inet9ieee8021115AarfRateControlE
	_ZTIN4inet9ieee8021115BasicReassemblyE
	_ZTIN4inet9ieee8021115DefragmentationE
	_ZTIN4inet9ieee8021115Ieee80211LlcEpdE
	_ZTIN4inet9ieee8021115Ieee80211LlcLpdE
	_ZTIN4inet9ieee8021115Ieee80211MgmtAp19NotificationInfoStaE
	_ZTIN4inet9ieee8021115Ieee80211MgmtAp7StaInfoE
	_ZTIN4inet9ieee8021115Ieee80211MgmtApE
	_ZTIN4inet9ieee8021115Ieee80211PortalE
	_ZTIN4inet9ieee8021115ManagementAckFsE
	_ZTIN4inet9ieee8021115ModeSetListenerE
	_ZTIN4inet9ieee8021115MpduAggregationE
	_ZTIN4inet9ieee8021115MsduAggregationE
	_ZTIN4inet9ieee8021115OnoeRateControlE
	_ZTIN4inet9ieee8021115RateControlBaseE
	_ZTIN4inet9ieee8021115RtsTransmitStepE
	_ZTIN4inet9ieee8021116IDefragmentationE
	_ZTIN4inet9ieee8021116IMpduAggregationE
	_ZTIN4inet9ieee8021116IMsduAggregationE
	_ZTIN4inet9ieee8021116Ieee80211BssTypeE
	_ZTIN4inet9ieee8021116Ieee80211MgmtSta12ScanningInfoE
	_ZTIN4inet9ieee8021116Ieee80211MgmtSta16AssociatedApInfoE
	_ZTIN4inet9ieee8021116Ieee80211MgmtSta6ApInfoE
	_ZTIN4inet9ieee8021116Ieee80211MgmtStaE
	_ZTIN4inet9ieee8021116InProgressFramesE
	_ZTIN4inet9ieee8021116QosRateSelectionE
	_ZTIN4inet9ieee8021117IDuplicateRemovalE
	_ZTIN4inet9ieee8021117IQosRateSelectionE
	_ZTIN4inet9ieee8021117Ieee80211AckFrameE
	_ZTIN4inet9ieee8021117Ieee80211AgentStaE
	_ZTIN4inet9ieee8021117Ieee80211BlockAckE
	_ZTIN4inet9ieee8021117Ieee80211CtsFrameE
	_ZTIN4inet9ieee8021117Ieee80211MgmtBaseE
	_ZTIN4inet9ieee8021117Ieee80211RtsFrameE
	_ZTIN4inet9ieee8021117MpduDeaggregationE
	_ZTIN4inet9ieee8021117MsduDeaggregationE
	_ZTIN4inet9ieee8021118BlockAckReorderingE
	_ZTIN4inet9ieee8021118IFrameSequenceStepE
	_ZTIN4inet9ieee8021118IMpduDeaggregationE
	_ZTIN4inet9ieee8021118IMsduDeaggregationE
	_ZTIN4inet9ieee8021118IProcedureCallbackE
	_ZTIN4inet9ieee8021118IRecoveryProcedure13ICwCalculatorE
	_ZTIN4inet9ieee8021118IRecoveryProcedureE
	_ZTIN4inet9ieee8021118Ieee80211FrameTypeE
	_ZTIN4inet9ieee8021118Ieee80211MacHeaderE
	_ZTIN4inet9ieee8021118Ieee80211MgmtAdhocE
	_ZTIN4inet9ieee8021118Ieee80211MgmtFrameE
	_ZTIN4inet9ieee8021118RecipientAckPolicyE
	_ZTIN4inet9ieee8021118TxopDurationFilterE
	_ZTIN4inet9ieee8021119IRecipientAckPolicyE
	_ZTIN4inet9ieee8021119Ieee80211DataHeaderE
	_ZTIN4inet9ieee8021119Ieee80211MacTrailerE
	_ZTIN4inet9ieee8021119Ieee80211MgmtApBaseE
	_ZTIN4inet9ieee8021119Ieee80211MgmtHeaderE
	_ZTIN4inet9ieee8021119Ieee80211ReasonCodeE
	_ZTIN4inet9ieee8021119Ieee80211StatusCodeE
	_ZTIN4inet9ieee8021119OriginatorAckPolicyE
	_ZTIN4inet9ieee8021119QoSDuplicateRemovalE
	_ZTIN4inet9ieee8021120FrameSequenceContextE
	_ZTIN4inet9ieee8021120FrameSequenceHandlerE
	_ZTIN4inet9ieee8021120IFragmentationPolicyE
	_ZTIN4inet9ieee8021120IOriginatorAckPolicyE
	_ZTIN4inet9ieee8021120Ieee80211ActionFrameE
	_ZTIN4inet9ieee8021120Ieee80211BeaconFrameE
	_ZTIN4inet9ieee8021120Ieee80211BlockAckReqE
	_ZTIN4inet9ieee8021120Ieee80211PrimConfirmE
	_ZTIN4inet9ieee8021120Ieee80211PrimRequestE
	_ZTIN4inet9ieee8021120Ieee80211RetryFilterE
	_ZTIN4inet9ieee8021120QosRecoveryProcedureE
	_ZTIN4inet9ieee8021120SequenceControlFieldE
	_ZTIN4inet9ieee8021121BlockAckReqBlockAckFsE
	_ZTIN4inet9ieee8021121ICoordinationFunctionE
	_ZTIN4inet9ieee8021121IFrameSequenceHandler9ICallbackE
	_ZTIN4inet9ieee8021121IFrameSequenceHandlerE
	_ZTIN4inet9ieee8021121Ieee80211AddbaRequestE
	_ZTIN4inet9ieee8021121ReceiveStepDescriptorE
	_ZTIN4inet9ieee8021121RecipientAckProcedureE
	_ZTIN4inet9ieee8021121RecipientQosAckPolicyE
	_ZTIN4inet9ieee8021122IMpduAggregationPolicyE
	_ZTIN4inet9ieee8021122IMsduAggregationPolicyE
	_ZTIN4inet9ieee8021122IRecipientAckProcedureE
	_ZTIN4inet9ieee8021122IRecipientQosAckPolicyE
	_ZTIN4inet9ieee8021122Ieee80211AddbaResponseE
	_ZTIN4inet9ieee8021122Ieee80211BasicBlockAckE
	_ZTIN4inet9ieee8021122Ieee80211UnicastFilterE
	_ZTIN4inet9ieee8021122LegacyDuplicateRemovalE
	_ZTIN4inet9ieee8021122MgmtOverDataClassifierE
	_ZTIN4inet9ieee8021122MgmtOverDataComparatorE
	_ZTIN4inet9ieee8021122OriginatorQosAckPolicyE
	_ZTIN4inet9ieee8021122TransmitStepDescriptorE
	_ZTIN4inet9ieee8021123EdcaCollisionControllerE
	_ZTIN4inet9ieee8021123IOriginatorQoSAckPolicyE
	_ZTIN4inet9ieee8021123Ieee80211NotRetryFilterE
	_ZTIN4inet9ieee8021123Ieee80211PrimResultCodeE
	_ZTIN4inet9ieee8021123NonQosRecoveryProcedureE
	_ZTIN4inet9ieee8021123RecipientMacDataServiceE
	_ZTIN4inet9ieee8021124BasicFragmentationPolicyE
	_ZTIN4inet9ieee8021124IEdcaCollisionControllerE
	_ZTIN4inet9ieee8021124IRecipientMacDataServiceE
	_ZTIN4inet9ieee8021124ITransmitLifetimeHandlerE
	_ZTIN4inet9ieee8021124Ieee80211BroadcastFilterE
	_ZTIN4inet9ieee8021124Ieee80211DelbaDescriptorE
	_ZTIN4inet9ieee8021124Ieee80211MulticastFilterE
	_ZTIN4inet9ieee8021124LlcProtocolTagDescriptorE
	_ZTIN4inet9ieee8021124OriginatorMacDataServiceE
	_ZTIN4inet9ieee8021125IOriginatorMacDataServiceE
	_ZTIN4inet9ieee8021125ISequenceNumberAssignmentE
	_ZTIN4inet9ieee8021125Ieee80211BasicBlockAckReqE
	_ZTIN4inet9ieee8021125Ieee80211DataOrMgmtHeaderE
	_ZTIN4inet9ieee8021125Ieee80211MgmtApSimplifiedE
	_ZTIN4inet9ieee8021125Ieee80211MultiTidBlockAckE
	_ZTIN4inet9ieee8021125Ieee80211OneAddressHeaderE
	_ZTIN4inet9ieee8021125Ieee80211Prim_ScanConfirmE
	_ZTIN4inet9ieee8021125Ieee80211Prim_ScanRequestE
	_ZTIN4inet9ieee8021125Ieee80211TwoAddressHeaderE
	_ZTIN4inet9ieee8021125SingleProtectionMechanismE
	_ZTIN4inet9ieee8021126BasicMpduAggregationPolicyE
	_ZTIN4inet9ieee8021126BasicMsduAggregationPolicyE
	_ZTIN4inet9ieee8021126DcfTransmitLifetimeHandlerE
	_ZTIN4inet9ieee8021126Ieee80211MgmtStaSimplifiedE
	_ZTIN4inet9ieee8021126Ieee80211ProbeRequestFrameE
	_ZTIN4inet9ieee8021126InProgressFramesDescriptorE
	_ZTIN4inet9ieee8021126RecipientBlockAckAgreementE
	_ZTIN4inet9ieee8021126RecipientBlockAckProcedureE
	_ZTIN4inet9ieee8021126RecipientQosMacDataServiceE
	_ZTIN4inet9ieee8021127EdcaTransmitLifetimeHandlerE
	_ZTIN4inet9ieee8021127FrameSequenceDurationFilterE
	_ZTIN4inet9ieee8021127IRecipientBlockAckProcedureE
	_ZTIN4inet9ieee8021127IRecipientQosMacDataServiceE
	_ZTIN4inet9ieee8021127Ieee80211AckFrameDescriptorE
	_ZTIN4inet9ieee8021127Ieee80211BlockAckDescriptorE
	_ZTIN4inet9ieee8021127Ieee80211CompressedBlockAckE
	_ZTIN4inet9ieee8021127Ieee80211CtsFrameDescriptorE
	_ZTIN4inet9ieee8021127Ieee80211HandoverParametersE
	_ZTIN4inet9ieee8021127Ieee80211MacProtocolPrinterE
	_ZTIN4inet9ieee8021127Ieee80211MpduSubframeHeaderE
	_ZTIN4inet9ieee8021127Ieee80211MsduSubframeHeaderE
	_ZTIN4inet9ieee8021127Ieee80211ProbeResponseFrameE
	_ZTIN4inet9ieee8021127Ieee80211RtsFrameDescriptorE
	_ZTIN4inet9ieee8021127OriginatorBlockAckAgreementE
	_ZTIN4inet9ieee8021127OriginatorBlockAckProcedureE
	_ZTIN4inet9ieee8021127OriginatorQosMacDataServiceE
	_ZTIN4inet9ieee8021127QoSSequenceNumberAssignmentE
	_ZTIN4inet9ieee8021128IFrameSequenceStepDescriptorE
	_ZTIN4inet9ieee8021128IOriginatorBlockAckProcedureE
	_ZTIN4inet9ieee8021128Ieee80211AuthenticationFrameE
	_ZTIN4inet9ieee8021128Ieee80211DisassociationFrameE
	_ZTIN4inet9ieee8021128Ieee80211MacHeaderDescriptorE
	_ZTIN4inet9ieee8021128Ieee80211MacHeaderSerializerE
	_ZTIN4inet9ieee8021128Ieee80211MgmtFrameDescriptorE
	_ZTIN4inet9ieee8021128Ieee80211MgmtFrameSerializerE
	_ZTIN4inet9ieee8021128Ieee80211MgmtProtocolPrinterE
	_ZTIN4inet9ieee8021128Ieee80211MultiTidBlockAckReqE
	_ZTIN4inet9ieee8021128Ieee80211Prim_BssDescriptionE
	_ZTIN4inet9ieee8021129FrameSequenceNumPacketsFilterE
	_ZTIN4inet9ieee8021129Ieee80211DataHeaderDescriptorE
	_ZTIN4inet9ieee8021129Ieee80211MacTrailerDescriptorE
	_ZTIN4inet9ieee8021129Ieee80211MacTrailerSerializerE
	_ZTIN4inet9ieee8021129Ieee80211MgmtHeaderDescriptorE
	_ZTIN4inet9ieee8021129LegacySequenceNumberAssigmentE
	_ZTIN4inet9ieee8021129OriginatorProtectionMechanismE
	_ZTIN4inet9ieee802112DsE
	_ZTIN4inet9ieee802112RxE
	_ZTIN4inet9ieee802112TxE
	_ZTIN4inet9ieee8021130FrameSequenceContextDescriptorE
	_ZTIN4inet9ieee8021130Ieee80211ActionFrameDescriptorE
	_ZTIN4inet9ieee8021130Ieee80211BeaconFrameDescriptorE
	_ZTIN4inet9ieee8021130Ieee80211BlockAckReqDescriptorE
	_ZTIN4inet9ieee8021130Ieee80211CapabilityInformationE
	_ZTIN4inet9ieee8021130Ieee80211CompressedBlockAckReqE
	_ZTIN4inet9ieee8021130Ieee80211DeauthenticationFrameE
	_ZTIN4inet9ieee8021130Ieee80211PrimConfirmDescriptorE
	_ZTIN4inet9ieee8021130Ieee80211PrimRequestDescriptorE
	_ZTIN4inet9ieee8021130Ieee80211Prim_AssociateConfirmE
	_ZTIN4inet9ieee8021130Ieee80211Prim_AssociateRequestE
	_ZTIN4inet9ieee8021130Ieee80211SupportedRatesElementE
	_ZTIN4inet9ieee8021130NonQoSSequenceNumberAssignmentE
	_ZTIN4inet9ieee8021131Ieee80211AddbaRequestDescriptorE
	_ZTIN4inet9ieee8021132Ieee80211AddbaResponseDescriptorE
	_ZTIN4inet9ieee8021132Ieee80211AssociationRequestFrameE
	_ZTIN4inet9ieee8021132Ieee80211BasicBlockAckDescriptorE
	_ZTIN4inet9ieee8021132Ieee80211Prim_ReassociateConfirmE
	_ZTIN4inet9ieee8021132Ieee80211Prim_ReassociateRequestE
	_ZTIN4inet9ieee8021132RecipientBlockAckAgreementPolicyE
	_ZTIN4inet9ieee8021133IBlockAckAgreementHandlerCallbackE
	_ZTIN4inet9ieee8021133IRecipientBlockAckAgreementPolicyE
	_ZTIN4inet9ieee8021133Ieee80211AssociationResponseFrameE
	_ZTIN4inet9ieee8021133Ieee80211EtherTypeProtocolPrinterE
	_ZTIN4inet9ieee8021133Ieee80211Prim_AuthenticateConfirmE
	_ZTIN4inet9ieee8021133Ieee80211Prim_AuthenticateRequestE
	_ZTIN4inet9ieee8021133Ieee80211Prim_DisassociateRequestE
	_ZTIN4inet9ieee8021133OriginatorBlockAckAgreementPolicyE
	_ZTIN4inet9ieee8021133RecipientBlockAckAgreementHandlerE
	_ZTIN4inet9ieee8021134IOriginatorBlockAckAgreementPolicyE
	_ZTIN4inet9ieee8021134IRecipientBlockAckAgreementHandlerE
	_ZTIN4inet9ieee8021134Ieee80211EtherTypeHeaderSerializerE
	_ZTIN4inet9ieee8021134Ieee80211ReassociationRequestFrameE
	_ZTIN4inet9ieee8021134OriginatorBlockAckAgreementHandlerE
	_ZTIN4inet9ieee8021135IOriginatorBlockAckAgreementHandlerE
	_ZTIN4inet9ieee8021135Ieee80211BasicBlockAckReqDescriptorE
	_ZTIN4inet9ieee8021135Ieee80211DataOrMgmtHeaderDescriptorE
	_ZTIN4inet9ieee8021135Ieee80211EtherTypeProtocolDissectorE
	_ZTIN4inet9ieee8021135Ieee80211MultiTidBlockAckDescriptorE
	_ZTIN4inet9ieee8021135Ieee80211OneAddressHeaderDescriptorE
	_ZTIN4inet9ieee8021135Ieee80211Prim_DeauthenticateRequestE
	_ZTIN4inet9ieee8021135Ieee80211Prim_ScanConfirmDescriptorE
	_ZTIN4inet9ieee8021135Ieee80211Prim_ScanRequestDescriptorE
	_ZTIN4inet9ieee8021135Ieee80211ReassociationResponseFrameE
	_ZTIN4inet9ieee8021135Ieee80211TwoAddressHeaderDescriptorE
	_ZTIN4inet9ieee8021136Ieee80211ProbeRequestFrameDescriptorE
	_ZTIN4inet9ieee8021137Ieee80211CompressedBlockAckDescriptorE
	_ZTIN4inet9ieee8021137Ieee80211HandoverParametersDescriptorE
	_ZTIN4inet9ieee8021137Ieee80211MpduSubframeHeaderDescriptorE
	_ZTIN4inet9ieee8021137Ieee80211MpduSubframeHeaderSerializerE
	_ZTIN4inet9ieee8021137Ieee80211MsduSubframeHeaderDescriptorE
	_ZTIN4inet9ieee8021137Ieee80211MsduSubframeHeaderSerializerE
	_ZTIN4inet9ieee8021137Ieee80211ProbeResponseFrameDescriptorE
	_ZTIN4inet9ieee8021138Ieee80211AuthenticationFrameDescriptorE
	_ZTIN4inet9ieee8021138Ieee80211DisassociationFrameDescriptorE
	_ZTIN4inet9ieee8021138Ieee80211MultiTidBlockAckReqDescriptorE
	_ZTIN4inet9ieee8021138Ieee80211Prim_BssDescriptionDescriptorE
	_ZTIN4inet9ieee8021138MgmtOverMulticastOverUnicastClassifierE
	_ZTIN4inet9ieee8021138MgmtOverMulticastOverUnicastComparatorE
	_ZTIN4inet9ieee802113DcfE
	_ZTIN4inet9ieee802113HcfE
	_ZTIN4inet9ieee802113IDsE
	_ZTIN4inet9ieee802113IRxE
	_ZTIN4inet9ieee802113ITx9ICallbackE
	_ZTIN4inet9ieee802113ITxE
	_ZTIN4inet9ieee802113McfE
	_ZTIN4inet9ieee802113PcfE
	_ZTIN4inet9ieee8021140Ieee80211CapabilityInformationDescriptorE
	_ZTIN4inet9ieee8021140Ieee80211CompressedBlockAckReqDescriptorE
	_ZTIN4inet9ieee8021140Ieee80211DeauthenticationFrameDescriptorE
	_ZTIN4inet9ieee8021140Ieee80211Prim_AssociateConfirmDescriptorE
	_ZTIN4inet9ieee8021140Ieee80211Prim_AssociateRequestDescriptorE
	_ZTIN4inet9ieee8021140Ieee80211SupportedRatesElementDescriptorE
	_ZTIN4inet9ieee8021142Ieee80211AssociationRequestFrameDescriptorE
	_ZTIN4inet9ieee8021142Ieee80211Prim_ReassociateConfirmDescriptorE
	_ZTIN4inet9ieee8021142Ieee80211Prim_ReassociateRequestDescriptorE
	_ZTIN4inet9ieee8021143Ieee80211AssociationResponseFrameDescriptorE
	_ZTIN4inet9ieee8021143Ieee80211Prim_AuthenticateConfirmDescriptorE
	_ZTIN4inet9ieee8021143Ieee80211Prim_AuthenticateRequestDescriptorE
	_ZTIN4inet9ieee8021143Ieee80211Prim_DisassociateRequestDescriptorE
	_ZTIN4inet9ieee8021144Ieee80211ReassociationRequestFrameDescriptorE
	_ZTIN4inet9ieee8021145Ieee80211Prim_DeauthenticateRequestDescriptorE
	_ZTIN4inet9ieee8021145Ieee80211ReassociationResponseFrameDescriptorE
	_ZTIN4inet9ieee802114DcafE
	_ZTIN4inet9ieee802114EdcaE
	_ZTIN4inet9ieee802114HccaE
	_ZTIN4inet9ieee802115AckFsE
	_ZTIN4inet9ieee802115CtsFsE
	_ZTIN4inet9ieee802115DcfFsE
	_ZTIN4inet9ieee802115EdcafE
	_ZTIN4inet9ieee802115HcfFsE
	_ZTIN4inet9ieee802115McfFsE
	_ZTIN4inet9ieee802115PcfFsE
	_ZTIN4inet9ieee802115RtsFsE
	_ZTIN4inet9ieee802116DataFsE
	_ZTIN4inet9ieee802116TxOpFsE
	_ZTIN4inet9ieee802118HtTxOpFsE
	_ZTIN4inet9ieee802118RtsCtsFsE
	_ZTIN4inet9ieee802119AckPolicyE
	_ZTIN4inet9ieee802119CtsPolicyE
	_ZTIN4inet9ieee802119RtsPolicyE
	_ZTIN4inet9ieee802119SelfCtsFsE
	_ZTIN7omnetpp10cWatchBaseE
	_ZTIN7omnetpp11cIconFigureE
	_ZTIN7omnetpp11cTextFigureE
	_ZTIN7omnetpp11cWatch_boolE
	_ZTIN7omnetpp11noncopyableE
	_ZTIN7omnetpp13cRuntimeErrorE
	_ZTIN7omnetpp14cObjectOsgNodeE
	_ZTIN7omnetpp14cStdMapWatcherIN4inet10MacAddressENS1_15MacAddressTable12AddressEntryENS3_10MacCompareEEE
	_ZTIN7omnetpp14cStdMapWatcherIN4inet10MacAddressENS1_9ieee8021112Ieee80211Mib15BssMemberStatusESt4lessIS2_EEE
	_ZTIN7omnetpp14cStdMapWatcherIN4inet10MacAddressENS1_9ieee8021115Ieee80211MgmtAp7StaInfoENS4_10MacCompareEEE
	_ZTIN7omnetpp14cStdMapWatcherIN4inet10MacAddressEPKNS1_13physicallayer14IIeee80211ModeESt4lessIS2_EEE
	_ZTIN7omnetpp14cStdMapWatcherIN4inet11Ipv4AddressENS1_9DhcpLeaseESt4lessIS2_EEE
	_ZTIN7omnetpp14cStdMapWatcherIN4inet11Ipv4AddressENS_12cPacketQueueESt4lessIS2_EEE
	_ZTIN7omnetpp14cStdMapWatcherIN4inet11Ipv4AddressEPNS1_3Arp13ArpCacheEntryESt4lessIS2_EEE
	_ZTIN7omnetpp14cStdMapWatcherIN4inet11Ipv6AddressENS1_12BindingCache17BindingCacheEntryESt4lessIS2_EEE
	_ZTIN7omnetpp14cStdMapWatcherIN4inet11Ipv6AddressENS1_16Ipv6RoutingTable14DestCacheEntryESt4lessIS2_EEE
	_ZTIN7omnetpp14cStdMapWatcherIN4inet11Ipv6AddressENS1_17BindingUpdateList22BindingUpdateListEntryESt4lessIS2_EEE
	_ZTIN7omnetpp14cStdMapWatcherIN4inet17MessageDispatcher3KeyEiSt4lessIS3_EEE
	_ZTIN7omnetpp14cStdMapWatcherIN4inet18Ipv6NeighbourCache3KeyENS2_9NeighbourESt4lessIS3_EEE
	_ZTIN7omnetpp14cStdMapWatcherIN4inet3tcp3Tcp8SockPairEPNS2_13TcpConnectionESt4lessIS4_EEE
	_ZTIN7omnetpp14cStdMapWatcherIN4inet7PimBase14SourceAndGroupEPNS1_5PimDm5RouteESt4lessIS3_EEE
	_ZTIN7omnetpp14cStdMapWatcherIN4inet7PimBase14SourceAndGroupEPNS1_5PimSm5RouteESt4lessIS3_EEE
	_ZTIN7omnetpp14cStdMapWatcherIN4inet9L3AddressEPNS1_9GlobalArp13ArpCacheEntryESt4lessIS2_EEE
	_ZTIN7omnetpp14cStdMapWatcherIN4inet9ieee8021120SequenceControlFieldENS2_10AckHandler6StatusESt4lessIS3_EEE
	_ZTIN7omnetpp14cStdMapWatcherIN4inet9ieee8021120SequenceControlFieldEiSt4lessIS3_EEE
	_ZTIN7omnetpp14cStdMapWatcherISt4pairIN4inet10MacAddressENS2_9ieee8021120SequenceControlFieldEENS4_13QosAckHandler6StatusESt4lessIS6_EEE
	_ZTIN7omnetpp14cStdMapWatcherISt4pairIN4inet10MacAddressES1_IaNS2_9ieee8021120SequenceControlFieldEEENS4_13QosAckHandler6StatusESt4lessIS7_EEE
	_ZTIN7omnetpp14cStdMapWatcherISt4pairIaN4inet9ieee8021120SequenceControlFieldEEiSt4lessIS5_EEE
	_ZTIN7omnetpp14cStdMapWatcherIiN4inet11Ipv6AddressESt4lessIiEEE
	_ZTIN7omnetpp14cStdMapWatcherIiN4inet13Ipv6Tunneling6TunnelESt4lessIiEEE
	_ZTIN7omnetpp14cStdMapWatcherIiNSt7__cxx114listIPN4inet3Udp8SockDescESaIS6_EEESt4lessIiEEE
	_ZTIN7omnetpp14cStdMapWatcherIiPN4inet11Ieee8022Llc16SocketDescriptorESt4lessIiEEE
	_ZTIN7omnetpp14cStdMapWatcherIiPN4inet3Udp8SockDescESt4lessIiEEE
	_ZTIN7omnetpp14cStdMapWatcherIiPN4inet3tcp13TcpConnectionESt4lessIiEEE
	_ZTIN7omnetpp14cStdMapWatcherIiPN4inet4Ipv416SocketDescriptorESt4lessIiEEE
	_ZTIN7omnetpp14cStdMapWatcherIiPN4inet6Igmpv217HostInterfaceDataESt4lessIiEEE
	_ZTIN7omnetpp14cStdMapWatcherIiPN4inet6Igmpv219RouterInterfaceDataESt4lessIiEEE
	_ZTIN7omnetpp14cStdMapWatcherIiPN4inet6Igmpv317HostInterfaceDataESt4lessIiEEE
	_ZTIN7omnetpp14cStdMapWatcherIiPN4inet6Igmpv319RouterInterfaceDataESt4lessIiEEE
	_ZTIN7omnetpp14cStdMapWatcherIiPN4inet7ISocketESt4lessIiEEE
	_ZTIN7omnetpp14cStdMapWatcherIiSt6vectorIPN4inet11PimNeighborESaIS4_EESt4lessIiEEE
	_ZTIN7omnetpp14cStdMapWatcherIiiSt4lessIiEEE
	_ZTIN7omnetpp14cStdMapWatcherIlN4inet20UdpVideoStreamServer15VideoStreamDataESt4lessIlEEE
	_ZTIN7omnetpp14cStdMapWatcherImPN4inet3bgp10BgpSessionESt4lessImEEE
	_ZTIN7omnetpp14cStdSetWatcherIPKN4inet8ProtocolEEE
	_ZTIN7omnetpp15cMessagePrinterE
	_ZTIN7omnetpp15cStdListWatcherIN4inet9ieee8021116Ieee80211MgmtSta6ApInfoEEE
	_ZTIN7omnetpp16cMatchExpression9MatchableE
	_ZTIN7omnetpp16cMatchableStringE
	_ZTIN7omnetpp17cStdVectorWatcherIN4inet11Ipv6AddressEEE
	_ZTIN7omnetpp17cStdVectorWatcherIN4inet14RsvpClassifier8FecEntryEEE
	_ZTIN7omnetpp17cStdVectorWatcherIN4inet15TeLinkStateInfoEEE
	_ZTIN7omnetpp17cStdVectorWatcherIN4inet17RipInterfaceEntryEEE
	_ZTIN7omnetpp17cStdVectorWatcherIN4inet3Ldp10fec_bind_tEEE
	_ZTIN7omnetpp17cStdVectorWatcherIN4inet3Ldp13pending_req_tEEE
	_ZTIN7omnetpp17cStdVectorWatcherIN4inet3Ldp5fec_tEEE
	_ZTIN7omnetpp17cStdVectorWatcherIN4inet3Ldp9peer_infoEEE
	_ZTIN7omnetpp17cStdVectorWatcherIN4inet8LibTable8LibEntryEEE
	_ZTIN7omnetpp17cStdVectorWatcherIPN4inet12NextHopRouteEEE
	_ZTIN7omnetpp17cStdVectorWatcherIPN4inet12PimInterfaceEEE
	_ZTIN7omnetpp17cStdVectorWatcherIPN4inet14InterfaceEntryEEE
	_ZTIN7omnetpp17cStdVectorWatcherIPN4inet18Ipv4MulticastRouteEEE
	_ZTIN7omnetpp17cStdVectorWatcherIPN4inet21NextHopMulticastRouteEEE
	_ZTIN7omnetpp17cStdVectorWatcherIPN4inet3bgp20BgpRoutingTableEntryEEE
	_ZTIN7omnetpp17cStdVectorWatcherIPN4inet6ospfv210NetworkLsaEEE
	_ZTIN7omnetpp17cStdVectorWatcherIPN4inet6ospfv210Ospfv2AreaEEE
	_ZTIN7omnetpp17cStdVectorWatcherIPN4inet6ospfv210SummaryLsaEEE
	_ZTIN7omnetpp17cStdVectorWatcherIPN4inet6ospfv213AsExternalLsaEEE
	_ZTIN7omnetpp17cStdVectorWatcherIPN4inet6ospfv215Ospfv2InterfaceEEE
	_ZTIN7omnetpp17cStdVectorWatcherIPN4inet6ospfv223Ospfv2RoutingTableEntryEEE
	_ZTIN7omnetpp17cStdVectorWatcherIPN4inet6ospfv29RouterLsaEEE
	_ZTIN7omnetpp17cStdVectorWatcherIPN4inet6ospfv310Ospfv3AreaEEE
	_ZTIN7omnetpp17cStdVectorWatcherIPN4inet6ospfv313Ospfv3ProcessEEE
	_ZTIN7omnetpp17cStdVectorWatcherIPN4inet6ospfv314Ospfv3InstanceEEE
	_ZTIN7omnetpp17cStdVectorWatcherIPN4inet6ospfv315Ospfv3InterfaceEEE
	_ZTIN7omnetpp17cStdVectorWatcherIPN4inet6ospfv323Ospfv3RoutingTableEntryEEE
	_ZTIN7omnetpp17cStdVectorWatcherIPN4inet6ospfv327Ospfv3Ipv4RoutingTableEntryEEE
	_ZTIN7omnetpp17cStdVectorWatcherIPN4inet8RipRouteEEE
	_ZTIN7omnetpp17cStdVectorWatcherIPN4inet9Ipv4RouteEEE
	_ZTIN7omnetpp17cStdVectorWatcherIPN4inet9Ipv6RouteEEE
	_ZTIN7omnetpp17cStdVectorWatcherIiEE
	_ZTIN7omnetpp17cWatch_cObjectPtrE
	_ZTIN7omnetpp18cITimestampedValueE
	_ZTIN7omnetpp21cGenericReadonlyWatchIN4inet10DhcpClient11ClientStateEEE
	_ZTIN7omnetpp21cGenericReadonlyWatchIN4inet10MacAddressEEE
	_ZTIN7omnetpp21cGenericReadonlyWatchIN4inet10NodeStatus5StateEEE
	_ZTIN7omnetpp21cGenericReadonlyWatchIN4inet10QuaternionEEE
	_ZTIN7omnetpp21cGenericReadonlyWatchIN4inet11Ipv4AddressEEE
	_ZTIN7omnetpp21cGenericReadonlyWatchIN4inet12EtherMacBase15MacReceiveStateEEE
	_ZTIN7omnetpp21cGenericReadonlyWatchIN4inet12EtherMacBase16MacTransmitStateEEE
	_ZTIN7omnetpp21cGenericReadonlyWatchIN4inet12MobilityBase12BorderPolicyEEE
	_ZTIN7omnetpp21cGenericReadonlyWatchIN4inet13PositionTableEEE
	_ZTIN7omnetpp21cGenericReadonlyWatchIN4inet13physicallayer12IRadioSignal10SignalPartEEE
	_ZTIN7omnetpp21cGenericReadonlyWatchIN4inet13physicallayer6IRadio14ReceptionStateEEE
	_ZTIN7omnetpp21cGenericReadonlyWatchIN4inet13physicallayer6IRadio17TransmissionStateEEE
	_ZTIN7omnetpp21cGenericReadonlyWatchIN4inet13physicallayer6IRadio9RadioModeEEE
	_ZTIN7omnetpp21cGenericReadonlyWatchIN4inet15OperationalBase5StateEEE
	_ZTIN7omnetpp21cGenericReadonlyWatchIN4inet4BMac6StatesEEE
	_ZTIN7omnetpp21cGenericReadonlyWatchIN4inet4LMac6StatesEEE
	_ZTIN7omnetpp21cGenericReadonlyWatchIN4inet4XMac6StatesEEE
	_ZTIN7omnetpp21cGenericReadonlyWatchIN4inet5CoordEEE
	_ZTIN7omnetpp21cGenericReadonlyWatchIN4inet5units5valueIdNS2_5units1AEEEEE
	_ZTIN7omnetpp21cGenericReadonlyWatchIN4inet5units5valueIdNS2_5units1mEEEEE
	_ZTIN7omnetpp21cGenericReadonlyWatchIN4inet5units5valueIdNS2_5units3radEEEEE
	_ZTIN7omnetpp21cGenericReadonlyWatchIN4inet5units5valueIdNS2_7composeINS2_5units1mENS2_3powINS5_1sELin1ELi1EEEEEEEEE
	_ZTIN7omnetpp21cGenericReadonlyWatchIN4inet5units5valueIdNS2_7composeINS2_5units1sENS5_1AEEEEEEE
	_ZTIN7omnetpp21cGenericReadonlyWatchIN4inet5units5valueIdNS2_7composeINS4_INS2_5units1mENS4_INS5_2kgENS2_3powINS5_1sELin2ELi1EEEEEEES6_EEEEEE
	_ZTIN7omnetpp21cGenericReadonlyWatchIN4inet5units5valueIdNS2_7composeINS4_INS4_INS2_5units1mENS4_INS5_2kgENS2_3powINS5_1sELin2ELi1EEEEEEES6_EENS8_IS9_Lin1ELi1EEEEEEEEE
	_ZTIN7omnetpp21cGenericReadonlyWatchIN4inet5units5valueIxNS2_5units1bEEEEE
	_ZTIN7omnetpp21cGenericReadonlyWatchIN4inet5units5valueIxNS2_8intscaleINS2_5units1bELi1ELi8EEEEEEE
	_ZTIN7omnetpp21cGenericReadonlyWatchIN4inet9L3AddressEEE
	_ZTIN7omnetpp21cGenericReadonlyWatchIN4inet9ieee8021112Ieee80211Mib14BssStationTypeEEE
	_ZTIN7omnetpp21cGenericReadonlyWatchIN4inet9ieee8021112Ieee80211Mib4ModeEEE
	_ZTIN7omnetpp21cGenericReadonlyWatchIN4inet9ieee8021113TxopProcedure19ProtectionMechanismEEE
	_ZTIN7omnetpp21cGenericReadonlyWatchIN4inet9ieee8021114AccessCategoryEEE
	_ZTIN7omnetpp21cGenericReadonlyWatchIN4inet9ieee8021116Ieee80211MgmtSta12ScanningInfoEEE
	_ZTIN7omnetpp21cGenericReadonlyWatchIN4inet9ieee8021116Ieee80211MgmtSta16AssociatedApInfoEEE
	_ZTIN7omnetpp21cGenericReadonlyWatchINS_4cFSMEEE
	_ZTIN7omnetpp21cGenericReadonlyWatchINS_7SimTimeEEE
	_ZTIN7omnetpp21cGenericReadonlyWatchIPKcEE
	_ZTIN7omnetpp21cGenericReadonlyWatchIxEE
	_ZTIN7omnetpp21cStdPointerMapWatcherIN4inet11Ipv4AddressEPNS1_3Arp13ArpCacheEntryESt4lessIS2_EEE
	_ZTIN7omnetpp21cStdPointerMapWatcherIN4inet3tcp3Tcp8SockPairEPNS2_13TcpConnectionESt4lessIS4_EEE
	_ZTIN7omnetpp21cStdPointerMapWatcherIN4inet7PimBase14SourceAndGroupEPNS1_5PimDm5RouteESt4lessIS3_EEE
	_ZTIN7omnetpp21cStdPointerMapWatcherIN4inet7PimBase14SourceAndGroupEPNS1_5PimSm5RouteESt4lessIS3_EEE
	_ZTIN7omnetpp21cStdPointerMapWatcherIN4inet9L3AddressEPNS1_9GlobalArp13ArpCacheEntryESt4lessIS2_EEE
	_ZTIN7omnetpp21cStdPointerMapWatcherIiPN4inet11Ieee8022Llc16SocketDescriptorESt4lessIiEEE
	_ZTIN7omnetpp21cStdPointerMapWatcherIiPN4inet3Udp8SockDescESt4lessIiEEE
	_ZTIN7omnetpp21cStdPointerMapWatcherIiPN4inet3tcp13TcpConnectionESt4lessIiEEE
	_ZTIN7omnetpp21cStdPointerMapWatcherIiPN4inet6Igmpv217HostInterfaceDataESt4lessIiEEE
	_ZTIN7omnetpp21cStdPointerMapWatcherIiPN4inet6Igmpv219RouterInterfaceDataESt4lessIiEEE
	_ZTIN7omnetpp21cStdPointerMapWatcherIiPN4inet6Igmpv317HostInterfaceDataESt4lessIiEEE
	_ZTIN7omnetpp21cStdPointerMapWatcherIiPN4inet6Igmpv319RouterInterfaceDataESt4lessIiEEE
	_ZTIN7omnetpp21cStdPointerMapWatcherIiPN4inet7ISocketESt4lessIiEEE
	_ZTIN7omnetpp21cStdPointerMapWatcherImPN4inet3bgp10BgpSessionESt4lessImEEE
	_ZTIN7omnetpp21cStdPointerSetWatcherIPKN4inet8ProtocolEEE
	_ZTIN7omnetpp21cTerminationExceptionE
	_ZTIN7omnetpp23cGenericAssignableWatchIdEE
	_ZTIN7omnetpp23cGenericAssignableWatchIiEE
	_ZTIN7omnetpp23cGenericAssignableWatchIjEE
	_ZTIN7omnetpp23cGenericAssignableWatchIlEE
	_ZTIN7omnetpp23cGenericAssignableWatchImEE
	_ZTIN7omnetpp23cGenericAssignableWatchItEE
	_ZTIN7omnetpp23cPathChangeNotificationE
	_ZTIN7omnetpp24cModelChangeNotificationE
	_ZTIN7omnetpp24cPostPathCutNotificationE
	_ZTIN7omnetpp24cStdPointerVectorWatcherIPN4inet12NextHopRouteEEE
	_ZTIN7omnetpp24cStdPointerVectorWatcherIPN4inet14InterfaceEntryEEE
	_ZTIN7omnetpp24cStdPointerVectorWatcherIPN4inet18Ipv4MulticastRouteEEE
	_ZTIN7omnetpp24cStdPointerVectorWatcherIPN4inet21NextHopMulticastRouteEEE
	_ZTIN7omnetpp24cStdPointerVectorWatcherIPN4inet3bgp20BgpRoutingTableEntryEEE
	_ZTIN7omnetpp24cStdPointerVectorWatcherIPN4inet6ospfv210NetworkLsaEEE
	_ZTIN7omnetpp24cStdPointerVectorWatcherIPN4inet6ospfv210Ospfv2AreaEEE
	_ZTIN7omnetpp24cStdPointerVectorWatcherIPN4inet6ospfv210SummaryLsaEEE
	_ZTIN7omnetpp24cStdPointerVectorWatcherIPN4inet6ospfv213AsExternalLsaEEE
	_ZTIN7omnetpp24cStdPointerVectorWatcherIPN4inet6ospfv215Ospfv2InterfaceEEE
	_ZTIN7omnetpp24cStdPointerVectorWatcherIPN4inet6ospfv223Ospfv2RoutingTableEntryEEE
	_ZTIN7omnetpp24cStdPointerVectorWatcherIPN4inet6ospfv29RouterLsaEEE
	_ZTIN7omnetpp24cStdPointerVectorWatcherIPN4inet6ospfv310Ospfv3AreaEEE
	_ZTIN7omnetpp24cStdPointerVectorWatcherIPN4inet6ospfv313Ospfv3ProcessEEE
	_ZTIN7omnetpp24cStdPointerVectorWatcherIPN4inet6ospfv314Ospfv3InstanceEEE
	_ZTIN7omnetpp24cStdPointerVectorWatcherIPN4inet6ospfv315Ospfv3InterfaceEEE
	_ZTIN7omnetpp24cStdPointerVectorWatcherIPN4inet6ospfv323Ospfv3RoutingTableEntryEEE
	_ZTIN7omnetpp24cStdPointerVectorWatcherIPN4inet6ospfv327Ospfv3Ipv4RoutingTableEntryEEE
	_ZTIN7omnetpp24cStdPointerVectorWatcherIPN4inet8RipRouteEEE
	_ZTIN7omnetpp24cStdPointerVectorWatcherIPN4inet9Ipv4RouteEEE
	_ZTIN7omnetpp24cStdPointerVectorWatcherIPN4inet9Ipv6RouteEEE
	_ZTIN7omnetpp26cPostModuleAddNotificationE
	_ZTIN7omnetpp27cPostPathCreateNotificationE
	_ZTIN7omnetpp28cPostGateConnectNotificationE
	_ZTIN7omnetpp28cPreModuleDeleteNotificationE
	_ZTIN7omnetpp32cPostParameterChangeNotificationE
	_ZTIN7omnetpp33cPostGateVectorResizeNotificationE
	_ZTIN7omnetpp7SimTimeE
	_ZTIN7osgText4TextE
	_ZTIN7osgText8TextBaseE
	_ZTINSt7__cxx1110_List_baseIPN4inet3Udp8SockDescESaIS4_EEE
	_ZTINSt7__cxx114listIPN4inet3Udp8SockDescESaIS4_EEE
	_ZTIPKN4inet10GpsrOptionE
	_ZTIPKN4inet10Ipv4HeaderE
	_ZTIPKN4inet10visualizer25Ieee80211CanvasVisualizer28Ieee80211CanvasVisualizationE
	_ZTIPKN4inet11SctpInfoReqE
	_ZTIPKN4inet12Igmpv3ReportE
	_ZTIPKN4inet13Ipv4OptionEndE
	_ZTIPKN4inet13Ipv4OptionNopE
	_ZTIPKN4inet13TedChangeInfoE
	_ZTIPKN4inet13physicallayer10ApskSymbolE
	_ZTIPKN4inet13physicallayer11ApskEncoderE
	_ZTIPKN4inet13physicallayer11ScalarNoiseE
	_ZTIPKN4inet13physicallayer12IRadioMediumE
	_ZTIPKN4inet13physicallayer13BandListeningE
	_ZTIPKN4inet13physicallayer13IScalarSignalE
	_ZTIPKN4inet13physicallayer13UnitDiskNoiseE
	_ZTIPKN4inet13physicallayer14IIeee80211ModeE
	_ZTIPKN4inet13physicallayer15ScalarReceptionE
	_ZTIPKN4inet13physicallayer16DimensionalNoiseE
	_ZTIPKN4inet13physicallayer16Ieee80211ChannelE
	_ZTIPKN4inet13physicallayer16Ieee80211ModeSetE
	_ZTIPKN4inet13physicallayer16LayeredReceptionE
	_ZTIPKN4inet13physicallayer17ConvolutionalCodeE
	_ZTIPKN4inet13physicallayer17FlatReceptionBaseE
	_ZTIPKN4inet13physicallayer17INarrowbandSignalE
	_ZTIPKN4inet13physicallayer17Ieee80211OfdmModeE
	_ZTIPKN4inet13physicallayer17UnitDiskReceptionE
	_ZTIPKN4inet13physicallayer18AdditiveScramblingE
	_ZTIPKN4inet13physicallayer18ApskModulationBaseE
	_ZTIPKN4inet13physicallayer18IDimensionalSignalE
	_ZTIPKN4inet13physicallayer19FlatTransmitterBaseE
	_ZTIPKN4inet13physicallayer19Ieee80211OfdmSymbolE
	_ZTIPKN4inet13physicallayer19LayeredTransmissionE
	_ZTIPKN4inet13physicallayer19NarrowbandNoiseBaseE
	_ZTIPKN4inet13physicallayer19UnitDiskTransmitterE
	_ZTIPKN4inet13physicallayer20DimensionalReceptionE
	_ZTIPKN4inet13physicallayer20FlatTransmissionBaseE
	_ZTIPKN4inet13physicallayer20TransmissionBitModelE
	_ZTIPKN4inet13physicallayer20UnitDiskTransmissionE
	_ZTIPKN4inet13physicallayer21IReceptionAnalogModelE
	_ZTIPKN4inet13physicallayer21Ieee80211ReceiverBaseE
	_ZTIPKN4inet13physicallayer22DimensionalAnalogModelE
	_ZTIPKN4inet13physicallayer22NarrowbandReceiverBaseE
	_ZTIPKN4inet13physicallayer23DimensionalTransmissionE
	_ZTIPKN4inet13physicallayer23NarrowbandReceptionBaseE
	_ZTIPKN4inet13physicallayer23TransmissionPacketModelE
	_ZTIPKN4inet13physicallayer23TransmissionSymbolModelE
	_ZTIPKN4inet13physicallayer24ITransmissionAnalogModelE
	_ZTIPKN4inet13physicallayer24Ieee80211TransmitterBaseE
	_ZTIPKN4inet13physicallayer25Ieee80211OfdmInterleavingE
	_ZTIPKN4inet13physicallayer25Ieee80211TransmissionBaseE
	_ZTIPKN4inet13physicallayer25NarrowbandTransmitterBaseE
	_ZTIPKN4inet13physicallayer26Ieee80211OfdmDecoderModuleE
	_ZTIPKN4inet13physicallayer26Ieee80211OfdmEncoderModuleE
	_ZTIPKN4inet13physicallayer26NarrowbandTransmissionBaseE
	_ZTIPKN4inet13physicallayer28Ieee80211OfdmModulatorModuleE
	_ZTIPKN4inet13physicallayer30Ieee80211OfdmDemodulatorModuleE
	_ZTIPKN4inet13physicallayer31Ieee80211LayeredOfdmTransmitterE
	_ZTIPKN4inet13physicallayer32ScalarReceptionSignalAnalogModelE
	_ZTIPKN4inet13physicallayer35ScalarTransmissionSignalAnalogModelE
	_ZTIPKN4inet13physicallayer36Ieee80211OfdmTransmissionSymbolModelE
	_ZTIPKN4inet13physicallayer40DimensionalTransmissionSignalAnalogModelE
	_ZTIPKN4inet13physicallayer5RadioE
	_ZTIPKN4inet13physicallayer6IRadioE
	_ZTIPKN4inet13physicallayer6SignalE
	_ZTIPKN4inet14HoldtimeOptionE
	_ZTIPKN4inet14InterfaceEntryE
	_ZTIPKN4inet16DrPriorityOptionE
	_ZTIPKN4inet17Ipv6RoutingHeaderE
	_ZTIPKN4inet18EthernetPauseFrameE
	_ZTIPKN4inet18GenerationIdOptionE
	_ZTIPKN4inet18Icmpv6EchoReplyMsgE
	_ZTIPKN4inet18Ipv4OptionStreamIdE
	_ZTIPKN4inet18Ipv6FragmentHeaderE
	_ZTIPKN4inet18Mipv6HaInformationE
	_ZTIPKN4inet19Ipv4OptionTimestampE
	_ZTIPKN4inet19physicalenvironment15IPhysicalObjectE
	_ZTIPKN4inet20Icmpv6EchoRequestMsgE
	_ZTIPKN4inet21Icmpv6TimeExceededMsgE
	_ZTIPKN4inet21Ipv4OptionRecordRouteE
	_ZTIPKN4inet21Ipv4OptionRouterAlertE
	_ZTIPKN4inet22Ipv4MulticastGroupInfoE
	_ZTIPKN4inet22Ipv6RouterSolicitationE
	_ZTIPKN4inet23Ipv6NdPrefixInformationE
	_ZTIPKN4inet23Ipv6RouterAdvertisementE
	_ZTIPKN4inet24Icmpv6DestUnreachableMsgE
	_ZTIPKN4inet24Ipv6AuthenticationHeaderE
	_ZTIPKN4inet25Ipv6HopByHopOptionsHeaderE
	_ZTIPKN4inet25Ipv6NeighbourSolicitationE
	_ZTIPKN4inet26Ipv6NeighbourAdvertisementE
	_ZTIPKN4inet27InterfaceEntryChangeDetailsE
	_ZTIPKN4inet28Ipv4MulticastGroupSourceInfoE
	_ZTIPKN4inet28Ipv6DestinationOptionsHeaderE
	_ZTIPKN4inet28Ipv6NdSourceLinkLayerAddressE
	_ZTIPKN4inet28Ipv6NdTargetLinkLayerAddressE
	_ZTIPKN4inet28Mipv6NdAdvertisementIntervalE
	_ZTIPKN4inet34Ipv6NdSourceTargetLinkLayerAddressE
	_ZTIPKN4inet38Ipv6EncapsulatingSecurityPayloadHeaderE
	_ZTIPKN4inet3bgp14BgpOpenMessageE
	_ZTIPKN4inet3bgp16BgpUpdateMessageE
	_ZTIPKN4inet3bgp19BgpKeepAliveMessageE
	_ZTIPKN4inet3bgp29BgpUpdatePathAttributesAsPathE
	_ZTIPKN4inet3bgp29BgpUpdatePathAttributesOriginE
	_ZTIPKN4inet3bgp30BgpUpdatePathAttributesNextHopE
	_ZTIPKN4inet3bgp32BgpUpdatePathAttributesLocalPrefE
	_ZTIPKN4inet3bgp33BgpUpdatePathAttributesAggregatorE
	_ZTIPKN4inet3bgp36BgpUpdatePathAttributesMultiExitDiscE
	_ZTIPKN4inet3bgp38BgpUpdatePathAttributesAtomicAggregateE
	_ZTIPKN4inet3rtp15ReceptionReportE
	_ZTIPKN4inet3rtp8SdesItemE
	_ZTIPKN4inet3rtp9SdesChunkE
	_ZTIPKN4inet3tcp12TcpOptionEndE
	_ZTIPKN4inet3tcp12TcpOptionNopE
	_ZTIPKN4inet3tcp13TcpOptionSackE
	_ZTIPKN4inet3tcp18TcpOptionTimestampE
	_ZTIPKN4inet3tcp20TcpOptionWindowScaleE
	_ZTIPKN4inet3tcp22TcpOptionSackPermittedE
	_ZTIPKN4inet3tcp23TcpOptionMaxSegmentSizeE
	_ZTIPKN4inet4sctp13SctpDataChunkE
	_ZTIPKN4inet4sctp13SctpInitChunkE
	_ZTIPKN4inet4sctp13SctpParameterE
	_ZTIPKN4inet4sctp13SctpSackChunkE
	_ZTIPKN4inet4sctp14SctpAbortChunkE
	_ZTIPKN4inet4sctp14SctpErrorChunkE
	_ZTIPKN4inet4sctp16SctpInitAckChunkE
	_ZTIPKN4inet4sctp17SctpShutdownChunkE
	_ZTIPKN4inet4sctp18SctpHeartbeatChunkE
	_ZTIPKN4inet4sctp19SctpCookieEchoChunkE
	_ZTIPKN4inet4sctp20SctpStreamResetChunkE
	_ZTIPKN4inet4sctp25SctpShutdownCompleteChunkE
	_ZTIPKN4inet4sctp29SctpSimpleErrorCauseParameterE
	_ZTIPKN4inet4sctp30SctpAddStreamsRequestParameterE
	_ZTIPKN4inet4sctp31SctpSsnTsnResetRequestParameterE
	_ZTIPKN4inet4sctp32SctpStreamResetResponseParameterE
	_ZTIPKN4inet4sctp36SctpIncomingSsnResetRequestParameterE
	_ZTIPKN4inet4sctp36SctpOutgoingSsnResetRequestParameterE
	_ZTIPKN4inet4sctp9SctpChunkE
	_ZTIPKN4inet5power17ICcEnergyConsumerE
	_ZTIPKN4inet5power17IEpEnergyConsumerE
	_ZTIPKN4inet5power18ICcEnergyGeneratorE
	_ZTIPKN4inet5power18IEpEnergyGeneratorE
	_ZTIPKN4inet6IRouteE
	_ZTIPKN4inet6PacketE
	_ZTIPKN4inet6ospfv210NetworkLsaE
	_ZTIPKN4inet6ospfv210SummaryLsaE
	_ZTIPKN4inet6ospfv213AsExternalLsaE
	_ZTIPKN4inet6ospfv215Ospfv2RouterLsaE
	_ZTIPKN4inet6ospfv216Ospfv2NetworkLsaE
	_ZTIPKN4inet6ospfv216Ospfv2SummaryLsaE
	_ZTIPKN4inet6ospfv219Ospfv2AsExternalLsaE
	_ZTIPKN4inet6ospfv29RouterLsaE
	_ZTIPKN4inet6ospfv324Ospfv3InterAreaPrefixLsaE
	_ZTIPKN4inet8ProtocolE
	_ZTIPKN4inet9IgmpQueryE
	_ZTIPKN4inet9Ipv4RouteE
	_ZTIPKN4inet9Ipv6NdMtuE
	_ZTIPKN7omnetpp13cSimpleModuleE
	_ZTIPKN7omnetpp7cModuleE
	_ZTIPKN7omnetpp7cObjectE
	_ZTIPN3osg5GeodeE
	_ZTIPN4inet10GpsrOptionE
	_ZTIPN4inet10IndicationE
	_ZTIPN4inet10Ipv4OptionE
	_ZTIPN4inet10Ipv4SocketE
	_ZTIPN4inet10NodeStatusE
	_ZTIPN4inet10SctpRtoReqE
	_ZTIPN4inet10TcpCommandE
	_ZTIPN4inet10TcpEchoAppE
	_ZTIPN4inet10TcpSinkAppE
	_ZTIPN4inet10visualizer27NetworkNodeOsgVisualizationE
	_ZTIPN4inet10visualizer30NetworkNodeCanvasVisualizationE
	_ZTIPN4inet11HelloOptionE
	_ZTIPN4inet11Ieee8022Llc16SocketDescriptorE
	_ZTIPN4inet11PimNeighborE
	_ZTIPN4inet11PsbTimerMsgE
	_ZTIPN4inet11SctpOpenReqE
	_ZTIPN4inet11SctpSendReqE
	_ZTIPN4inet12Ipv6NdOptionE
	_ZTIPN4inet12NextHopRouteE
	_ZTIPN4inet12PcapRecorder7IHelperE
	_ZTIPN4inet12PimInterfaceE
	_ZTIPN4inet12SctpPathInfoE
	_ZTIPN4inet12SctpResetReqE
	_ZTIPN4inet13HelloTimerMsgE
	_ZTIPN4inet13NetfilterBase8HookBaseE
	_ZTIPN4inet13PathNotifyMsgE
	_ZTIPN4inet13PsbTimeoutMsgE
	_ZTIPN4inet13RsbTimeoutMsgE
	_ZTIPN4inet13ScenarioTimerE
	_ZTIPN4inet13SignallingMsgE
	_ZTIPN4inet13TcpStatusInfoE
	_ZTIPN4inet13TlvOptionBaseE
	_ZTIPN4inet13physicallayer10IReceptionE
	_ZTIPN4inet13physicallayer11IModulationE
	_ZTIPN4inet13physicallayer11RadioMediumE
	_ZTIPN4inet13physicallayer12IAnalogModelE
	_ZTIPN4inet13physicallayer12IPropagationE
	_ZTIPN4inet13physicallayer12IRadioMediumE
	_ZTIPN4inet13physicallayer12ITransmitterE
	_ZTIPN4inet13physicallayer13ITransmissionE
	_ZTIPN4inet13physicallayer14IIeee80211BandE
	_ZTIPN4inet13physicallayer14Ieee80211HtmcsE
	_ZTIPN4inet13physicallayer15Ieee80211VhtmcsE
	_ZTIPN4inet13physicallayer16Ieee80211ChannelE
	_ZTIPN4inet13physicallayer16Ieee80211ModeSetE
	_ZTIPN4inet13physicallayer17IMediumLimitCacheE
	_ZTIPN4inet13physicallayer19ICommunicationCacheE
	_ZTIPN4inet13physicallayer21ConfigureRadioCommandE
	_ZTIPN4inet13physicallayer30Ieee80211ConfigureRadioCommandE
	_ZTIPN4inet13physicallayer5RadioE
	_ZTIPN4inet13physicallayer6IRadioE
	_ZTIPN4inet13physicallayer6SignalE
	_ZTIPN4inet13physicallayer8IAntennaE
	_ZTIPN4inet13physicallayer9IPathLossE
	_ZTIPN4inet13physicallayer9IReceiverE
	_ZTIPN4inet14EthernetSignalE
	_ZTIPN4inet14INetworkSocketE
	_ZTIPN4inet14InterfaceEntryE
	_ZTIPN4inet14TcpConnectInfoE
	_ZTIPN4inet14TcpOpenCommandE
	_ZTIPN4inet14UdpBindCommandE
	_ZTIPN4inet15HelloTimeoutMsgE
	_ZTIPN4inet15IInterfaceTableE
	_ZTIPN4inet15Ieee8021qHeaderE
	_ZTIPN4inet16BoxedLabelFigureE
	_ZTIPN4inet16IIndicatorFigureE
	_ZTIPN4inet16PacketDrillEventE
	_ZTIPN4inet16TcpAcceptCommandE
	_ZTIPN4inet16TcpAvailableInfoE
	_ZTIPN4inet16UdpSetTosCommandE
	_ZTIPN4inet17IIpv4RoutingTableE
	_ZTIPN4inet17Ipv6NdControlInfoE
	_ZTIPN4inet17LabeledIconFigureE
	_ZTIPN4inet17PacketDrillStructE
	_ZTIPN4inet17PacketDropDetailsE
	_ZTIPN4inet17RsbCommitTimerMsgE
	_ZTIPN4inet17SctpSimpleMessageE
	_ZTIPN4inet17TcpServerSocketIoE
	_ZTIPN4inet17UdpConnectCommandE
	_ZTIPN4inet17UdpSetDscpCommandE
	_ZTIPN4inet18Ipv4MulticastRouteE
	_ZTIPN4inet18LifecycleOperationE
	_ZTIPN4inet18RsbRefreshTimerMsgE
	_ZTIPN4inet19Ipv6ExtensionHeaderE
	_ZTIPN4inet19TcpServerThreadBaseE
	_ZTIPN4inet19UdpSetOptionCommandE
	_ZTIPN4inet20PacketDrillSctpChunkE
	_ZTIPN4inet20PacketDrillTcpOptionE
	_ZTIPN4inet21InterfaceProtocolDataE
	_ZTIPN4inet21NextHopMulticastRouteE
	_ZTIPN4inet21PacketDrillExpressionE
	_ZTIPN4inet22UdpSetBroadcastCommandE
	_ZTIPN4inet23Ipv4NetworkConfiguratorE
	_ZTIPN4inet23UdpSetTimeToLiveCommandE
	_ZTIPN4inet24PacketDrillSctpParameterE
	_ZTIPN4inet25Ipv6HopByHopOptionsHeaderE
	_ZTIPN4inet25UdpSetReuseAddressCommandE
	_ZTIPN4inet25WeightedHistogramRecorder7cWeightE
	_ZTIPN4inet26UdpSetMulticastLoopCommandE
	_ZTIPN4inet27InterfaceEntryChangeDetailsE
	_ZTIPN4inet29UdpJoinMulticastGroupsCommandE
	_ZTIPN4inet30UdpJoinMulticastSourcesCommandE
	_ZTIPN4inet30UdpLeaveMulticastGroupsCommandE
	_ZTIPN4inet31UdpBlockMulticastSourcesCommandE
	_ZTIPN4inet31UdpLeaveMulticastSourcesCommandE
	_ZTIPN4inet31UdpSetMulticastInterfaceCommandE
	_ZTIPN4inet33UdpUnblockMulticastSourcesCommandE
	_ZTIPN4inet34UdpSetMulticastSourceFilterCommandE
	_ZTIPN4inet3Arp13ArpCacheEntryE
	_ZTIPN4inet3PimE
	_ZTIPN4inet3Udp8SockDescE
	_ZTIPN4inet3bgp10BgpSessionE
	_ZTIPN4inet3bgp20BgpRoutingTableEntryE
	_ZTIPN4inet3bgp23BgpUpdatePathAttributesE
	_ZTIPN4inet3bgp24BgpOptionalParameterBaseE
	_ZTIPN4inet3osg13TopLevelSceneE
	_ZTIPN4inet3osg15SimulationSceneE
	_ZTIPN4inet3rtp10RtpProfileE
	_ZTIPN4inet3rtp14RtpControlInfoE
	_ZTIPN4inet3rtp14RtpInnerPacketE
	_ZTIPN4inet3rtp15RtpReceiverInfoE
	_ZTIPN4inet3rtp16RtpPayloadSenderE
	_ZTIPN4inet3rtp17RtpCiEnterSessionE
	_ZTIPN4inet3rtp17RtpCiLeaveSessionE
	_ZTIPN4inet3rtp17RtpCiSenderStatusE
	_ZTIPN4inet3rtp18RtpCiSenderControlE
	_ZTIPN4inet3rtp18RtpParticipantInfoE
	_ZTIPN4inet3rtp18RtpPayloadReceiverE
	_ZTIPN4inet3rtp19RtpCiSessionEnteredE
	_ZTIPN4inet3rtp22RtpSenderStatusMessageE
	_ZTIPN4inet3rtp23RtpCiCreateSenderModuleE
	_ZTIPN4inet3rtp23RtpCiDeleteSenderModuleE
	_ZTIPN4inet3rtp23RtpSenderControlMessageE
	_ZTIPN4inet3rtp8SdesItemE
	_ZTIPN4inet3tcp12TcpAlgorithmE
	_ZTIPN4inet3tcp12TcpSendQueueE
	_ZTIPN4inet3tcp13TcpConnectionE
	_ZTIPN4inet3tcp15TcpReceiveQueueE
	_ZTIPN4inet3tcp9TcpOptionE
	_ZTIPN4inet4IArp12NotificationE
	_ZTIPN4inet4Ipv416SocketDescriptorE
	_ZTIPN4inet4Ipv617ScheduledDatagramE
	_ZTIPN4inet4aodv13AodvRouteDataE
	_ZTIPN4inet4aodv19PacketHolderMessageE
	_ZTIPN4inet4dymo13DymoRouteDataE
	_ZTIPN4inet4sctp10SctpCookieE
	_ZTIPN4inet4sctp10SctpHeaderE
	_ZTIPN4inet4sctp11SctpDataMsgE
	_ZTIPN4inet4sctp13SctpAlgorithmE
	_ZTIPN4inet4sctp13SctpDataChunkE
	_ZTIPN4inet4sctp13SctpInitChunkE
	_ZTIPN4inet4sctp13SctpParameterE
	_ZTIPN4inet4sctp13SctpSackChunkE
	_ZTIPN4inet4sctp14SctpAbortChunkE
	_ZTIPN4inet4sctp14SctpErrorChunkE
	_ZTIPN4inet4sctp14SctpResetTimerE
	_ZTIPN4inet4sctp15SctpAsconfChunkE
	_ZTIPN4inet4sctp16SctpInitAckChunkE
	_ZTIPN4inet4sctp17SctpShutdownChunkE
	_ZTIPN4inet4sctp18SctpAddIPParameterE
	_ZTIPN4inet4sctp18SctpAsconfAckChunkE
	_ZTIPN4inet4sctp18SctpCookieAckChunkE
	_ZTIPN4inet4sctp18SctpHeartbeatChunkE
	_ZTIPN4inet4sctp19SctpCookieEchoChunkE
	_ZTIPN4inet4sctp19SctpForwardTsnChunkE
	_ZTIPN4inet4sctp19SctpPacketDropChunkE
	_ZTIPN4inet4sctp20SctpShutdownAckChunkE
	_ZTIPN4inet4sctp20SctpStreamResetChunkE
	_ZTIPN4inet4sctp21SctpDeleteIPParameterE
	_ZTIPN4inet4sctp21SctpHeartbeatAckChunkE
	_ZTIPN4inet4sctp21SctpSuccessIndicationE
	_ZTIPN4inet4sctp23SctpAuthenticationChunkE
	_ZTIPN4inet4sctp23SctpErrorCauseParameterE
	_ZTIPN4inet4sctp25SctpSetPrimaryIPParameterE
	_ZTIPN4inet4sctp25SctpShutdownCompleteChunkE
	_ZTIPN4inet4sctp29SctpSimpleErrorCauseParameterE
	_ZTIPN4inet4sctp30SctpAddStreamsRequestParameterE
	_ZTIPN4inet4sctp31SctpSsnTsnResetRequestParameterE
	_ZTIPN4inet4sctp32SctpStreamResetResponseParameterE
	_ZTIPN4inet4sctp36SctpIncomingSsnResetRequestParameterE
	_ZTIPN4inet4sctp36SctpOutgoingSsnResetRequestParameterE
	_ZTIPN4inet4sctp4SctpE
	_ZTIPN4inet4sctp9SctpQueueE
	_ZTIPN4inet5PimDm5RouteE
	_ZTIPN4inet5PimDmE
	_ZTIPN4inet5PimSm19DownstreamInterfaceE
	_ZTIPN4inet5PimSm5RouteE
	_ZTIPN4inet5PimSmE
	_ZTIPN4inet5power15ICcEnergySourceE
	_ZTIPN4inet5power16IEpEnergyStorageE
	_ZTIPN4inet6Igmpv217HostInterfaceDataE
	_ZTIPN4inet6Igmpv219RouterInterfaceDataE
	_ZTIPN4inet6Igmpv317HostInterfaceDataE
	_ZTIPN4inet6Igmpv319RouterInterfaceDataE
	_ZTIPN4inet6PacketE
	_ZTIPN4inet6ospfv210NetworkLsaE
	_ZTIPN4inet6ospfv210Ospfv2AreaE
	_ZTIPN4inet6ospfv210SummaryLsaE
	_ZTIPN4inet6ospfv211RoutingInfoE
	_ZTIPN4inet6ospfv213AsExternalLsaE
	_ZTIPN4inet6ospfv215Ospfv2InterfaceE
	_ZTIPN4inet6ospfv215Ospfv2RouterLsaE
	_ZTIPN4inet6ospfv216Ospfv2NetworkLsaE
	_ZTIPN4inet6ospfv216Ospfv2SummaryLsaE
	_ZTIPN4inet6ospfv219Ospfv2AsExternalLsaE
	_ZTIPN4inet6ospfv223Ospfv2RoutingTableEntryE
	_ZTIPN4inet6ospfv29Ospfv2LsaE
	_ZTIPN4inet6ospfv29RouterLsaE
	_ZTIPN4inet6ospfv310NetworkLSAE
	_ZTIPN4inet6ospfv310Ospfv3AreaE
	_ZTIPN4inet6ospfv311RoutingInfoE
	_ZTIPN4inet6ospfv313Ospfv3LinkLsaE
	_ZTIPN4inet6ospfv313Ospfv3ProcessE
	_ZTIPN4inet6ospfv314Ospfv3InstanceE
	_ZTIPN4inet6ospfv315Ospfv3InterfaceE
	_ZTIPN4inet6ospfv315Ospfv3RouterLsaE
	_ZTIPN4inet6ospfv316Ospfv3NetworkLsaE
	_ZTIPN4inet6ospfv323Ospfv3RoutingTableEntryE
	_ZTIPN4inet6ospfv324Ospfv3InterAreaPrefixLsaE
	_ZTIPN4inet6ospfv324Ospfv3IntraAreaPrefixLsaE
	_ZTIPN4inet6ospfv327Ospfv3Ipv4RoutingTableEntryE
	_ZTIPN4inet6ospfv39RouterLSAE
	_ZTIPN4inet6xMIPv615BcExpiryIfEntryE
	_ZTIPN4inet6xMIPv616BulExpiryIfEntryE
	_ZTIPN4inet6xMIPv617BuTransmitIfEntryE
	_ZTIPN4inet6xMIPv618TokenExpiryIfEntryE
	_ZTIPN4inet6xMIPv623TestInitTransmitIfEntryE
	_ZTIPN4inet7ISocketE
	_ZTIPN4inet7MessageE
	_ZTIPN4inet7RequestE
	_ZTIPN4inet8ProtocolE
	_ZTIPN4inet8RipRouteE
	_ZTIPN4inet8queueing12IPacketQueueE
	_ZTIPN4inet8queueing17IActivePacketSinkE
	_ZTIPN4inet8queueing17IPacketCollectionE
	_ZTIPN4inet8queueing18IPassivePacketSinkE
	_ZTIPN4inet8queueing19IActivePacketSourceE
	_ZTIPN4inet8queueing20IPassivePacketSourceE
	_ZTIPN4inet8queueing21IPacketFilterFunctionE
	_ZTIPN4inet8queueing22IPacketDropperFunctionE
	_ZTIPN4inet8queueing22IPacketQueueingElementE
	_ZTIPN4inet8queueing24IPacketSchedulerFunctionE
	_ZTIPN4inet8queueing25IPacketClassifierFunctionE
	_ZTIPN4inet8queueing25IPacketComparatorFunctionE
	_ZTIPN4inet9AckingMacE
	_ZTIPN4inet9GlobalArp13ArpCacheEntryE
	_ZTIPN4inet9IMobilityE
	_ZTIPN4inet9Ipv4RouteE
	_ZTIPN4inet9Ipv6RouteE
	_ZTIPN4inet9TcpSocketE
	_ZTIPN4inet9httptools25HttpServerStatusUpdateMsgE
	_ZTIPN4inet9httptools6rdZipfE
	_ZTIPN4inet9httptools9rdUniformE
	_ZTIPN4inet9ieee8021110AckHandlerE
	_ZTIPN4inet9ieee8021110ICtsPolicyE
	_ZTIPN4inet9ieee8021110IRtsPolicyE
	_ZTIPN4inet9ieee8021111IAckHandlerE
	_ZTIPN4inet9ieee8021111IContentionE
	_ZTIPN4inet9ieee8021112IReceiveStepE
	_ZTIPN4inet9ieee8021112Ieee80211MacE
	_ZTIPN4inet9ieee8021112Ieee80211MibE
	_ZTIPN4inet9ieee8021112TransmitStepE
	_ZTIPN4inet9ieee8021113IIeee80211LlcE
	_ZTIPN4inet9ieee8021113ITransmitStepE
	_ZTIPN4inet9ieee8021113QosAckHandlerE
	_ZTIPN4inet9ieee8021113TxopProcedureE
	_ZTIPN4inet9ieee8021114IRateSelectionE
	_ZTIPN4inet9ieee8021115Ieee80211MgmtApE
	_ZTIPN4inet9ieee8021115RtsTransmitStepE
	_ZTIPN4inet9ieee8021116Ieee80211MgmtSta6ApInfoE
	_ZTIPN4inet9ieee8021116InProgressFramesE
	_ZTIPN4inet9ieee8021117IQosRateSelectionE
	_ZTIPN4inet9ieee8021118IRecoveryProcedure13ICwCalculatorE
	_ZTIPN4inet9ieee8021119IRecipientAckPolicyE
	_ZTIPN4inet9ieee8021120FrameSequenceContextE
	_ZTIPN4inet9ieee8021120IFragmentationPolicyE
	_ZTIPN4inet9ieee8021120IOriginatorAckPolicyE
	_ZTIPN4inet9ieee8021120QosRecoveryProcedureE
	_ZTIPN4inet9ieee8021122IRecipientQosAckPolicyE
	_ZTIPN4inet9ieee8021123IOriginatorQoSAckPolicyE
	_ZTIPN4inet9ieee8021123NonQosRecoveryProcedureE
	_ZTIPN4inet9ieee8021124IEdcaCollisionControllerE
	_ZTIPN4inet9ieee8021124IRecipientMacDataServiceE
	_ZTIPN4inet9ieee8021125IOriginatorMacDataServiceE
	_ZTIPN4inet9ieee8021125SingleProtectionMechanismE
	_ZTIPN4inet9ieee8021127IRecipientQosMacDataServiceE
	_ZTIPN4inet9ieee8021129OriginatorProtectionMechanismE
	_ZTIPN4inet9ieee802113DcfE
	_ZTIPN4inet9ieee802113HcfE
	_ZTIPN4inet9ieee802113IDsE
	_ZTIPN4inet9ieee802113IRxE
	_ZTIPN4inet9ieee802113ITxE
	_ZTIPN4inet9ieee802114DcafE
	_ZTIPN4inet9ieee802114EdcaE
	_ZTIPN4inet9ieee802114HccaE
	_ZTIPN4inet9ieee802115EdcafE
	_ZTIPN7omnetpp11cLineFigureE
	_ZTIPN7omnetpp11cXMLElementE
	_ZTIPN7omnetpp12cLabelFigureE
	_ZTIPN7omnetpp12cOwnedObjectE
	_ZTIPN7omnetpp13cSimpleModuleE
	_ZTIPN7omnetpp16cDatarateChannelE
	_ZTIPN7omnetpp18cITimestampedValueE
	_ZTIPN7omnetpp19cAbstractTextFigureE
	_ZTIPN7omnetpp7cFigureE
	_ZTIPN7omnetpp7cModuleE
	_ZTIPN7omnetpp7cPacketE
	_ZTIPN7omnetpp8cMessageE
	_ZTIPN7osgText4TextE
	_ZTIPSt6vectorIN4inet13physicallayer16Ieee80211ModeSetESaIS2_EE
	_ZTISt12_Vector_baseIN4inet11Ipv4AddressESaIS1_EE
	_ZTISt12_Vector_baseIN4inet13physicallayer16Ieee80211ModeSetESaIS2_EE
	_ZTISt12_Vector_baseIN4inet16FlowDescriptor_tESaIS1_EE
	_ZTISt12_Vector_baseIN4inet6EroObjESaIS1_EE
	_ZTISt12_Vector_baseIN4inet9L3AddressESaIS1_EE
	_ZTISt12_Vector_baseIPN4inet11PimNeighborESaIS2_EE
	_ZTISt4pairIN4inet10MacAddressENS0_9ieee8021120SequenceControlFieldEE
	_ZTISt4pairIN4inet10MacAddressES_IaNS0_9ieee8021120SequenceControlFieldEEE
	_ZTISt4pairIaN4inet9ieee8021120SequenceControlFieldEE
	_ZTISt6vectorIN4inet11Ipv4AddressESaIS1_EE
	_ZTISt6vectorIN4inet13physicallayer16Ieee80211ModeSetESaIS2_EE
	_ZTISt6vectorIN4inet16FlowDescriptor_tESaIS1_EE
	_ZTISt6vectorIN4inet6EroObjESaIS1_EE
	_ZTISt6vectorIN4inet9L3AddressESaIS1_EE
	_ZTISt6vectorIPN4inet11PimNeighborESaIS2_EE
	_ZTISt7complexIdE
	_ZTIZN4inet10visualizer23StatisticVisualizerBase13receiveSignalEPN7omnetpp10cComponentEiPKcPNS2_7cObjectEEUlPNS2_10cIListenerEE_
	_ZTIZN4inet10visualizer23StatisticVisualizerBase13receiveSignalEPN7omnetpp10cComponentEiPNS2_7cObjectES6_EUlPNS2_10cIListenerEE_
	_ZTIZN4inet10visualizer23StatisticVisualizerBase13receiveSignalEPN7omnetpp10cComponentEiRKNS2_7SimTimeEPNS2_7cObjectEEUlPNS2_10cIListenerEE_
	_ZTIZN4inet10visualizer23StatisticVisualizerBase13receiveSignalEPN7omnetpp10cComponentEibPNS2_7cObjectEEUlPNS2_10cIListenerEE_
	_ZTIZN4inet10visualizer23StatisticVisualizerBase13receiveSignalEPN7omnetpp10cComponentEidPNS2_7cObjectEEUlPNS2_10cIListenerEE_
	_ZTIZN4inet10visualizer23StatisticVisualizerBase13receiveSignalEPN7omnetpp10cComponentEilPNS2_7cObjectEEUlPNS2_10cIListenerEE_
	_ZTIZN4inet10visualizer23StatisticVisualizerBase13receiveSignalEPN7omnetpp10cComponentEimPNS2_7cObjectEEUlPNS2_10cIListenerEE_
	_ZTIZN4inet4math14iterateCornersINS_5units5valueIN7omnetpp7SimTimeENS2_5units1sEEEJEEEvRKNS0_8IntervalIJT_DpT0_EEESt8functionIFvRKNS0_5PointIJSA_SC_EEEEEEUlRKNSH_IJEEEE_
	_ZTIZN4inet4math14iterateCornersINS_5units5valueIN7omnetpp7SimTimeENS2_5units1sEEEJNS3_IdNS2_3powIS7_Lin1ELi1EEEEEEEEvRKNS0_8IntervalIJT_DpT0_EEESt8functionIFvRKNS0_5PointIJSD_SF_EEEEEEUlRKNSK_IJSB_EEEE_
	_ZTIZN4inet4math14iterateCornersINS_5units5valueIdNS2_3powINS2_5units1sELin1ELi1EEEEEJEEEvRKNS0_8IntervalIJT_DpT0_EEESt8functionIFvRKNS0_5PointIJSA_SC_EEEEEEUlRKNSH_IJEEEE_
	_ZTIZN4inet4math14iterateCornersINS_5units5valueIdNS2_5units1mEEEJNS3_IN7omnetpp7SimTimeENS4_1sEEEEEEvRKNS0_8IntervalIJT_DpT0_EEESt8functionIFvRKNS0_5PointIJSC_SE_EEEEEEUlRKNSJ_IJSA_EEEE_
	_ZTIZN4inet4math14iterateCornersINS_5units5valueIdNS2_5units1mEEEJNS3_IN7omnetpp7SimTimeENS4_1sEEENS3_IdNS2_3powIS9_Lin1ELi1EEEEEEEEvRKNS0_8IntervalIJT_DpT0_EEESt8functionIFvRKNS0_5PointIJSF_SH_EEEEEEUlRKNSM_IJSA_SD_EEEE_
	_ZTIZN4inet4math14iterateCornersINS_5units5valueIdNS2_5units1mEEEJNS3_IdNS2_3powINS4_1sELin1ELi1EEEEEEEEvRKNS0_8IntervalIJT_DpT0_EEESt8functionIFvRKNS0_5PointIJSC_SE_EEEEEEUlRKNSJ_IJSA_EEEE_
	_ZTIZN4inet4math14iterateCornersINS_5units5valueIdNS2_5units1mEEEJS6_NS3_IN7omnetpp7SimTimeENS4_1sEEEEEEvRKNS0_8IntervalIJT_DpT0_EEESt8functionIFvRKNS0_5PointIJSC_SE_EEEEEEUlRKNSJ_IJS6_SA_EEEE_
	_ZTIZN4inet4math14iterateCornersINS_5units5valueIdNS2_5units1mEEEJS6_NS3_IN7omnetpp7SimTimeENS4_1sEEENS3_IdNS2_3powIS9_Lin1ELi1EEEEEEEEvRKNS0_8IntervalIJT_DpT0_EEESt8functionIFvRKNS0_5PointIJSF_SH_EEEEEEUlRKNSM_IJS6_SA_SD_EEEE_
	_ZTIZN4inet4math14iterateCornersINS_5units5valueIdNS2_5units1mEEEJS6_NS3_IdNS2_3powINS4_1sELin1ELi1EEEEEEEEvRKNS0_8IntervalIJT_DpT0_EEESt8functionIFvRKNS0_5PointIJSC_SE_EEEEEEUlRKNSJ_IJS6_SA_EEEE_
	_ZTIZN4inet4math14iterateCornersINS_5units5valueIdNS2_5units1mEEEJS6_S6_NS3_IN7omnetpp7SimTimeENS4_1sEEEEEEvRKNS0_8IntervalIJT_DpT0_EEESt8functionIFvRKNS0_5PointIJSC_SE_EEEEEEUlRKNSJ_IJS6_S6_SA_EEEE_
	_ZTIZN4inet4math14iterateCornersINS_5units5valueIdNS2_5units1mEEEJS6_S6_NS3_IN7omnetpp7SimTimeENS4_1sEEENS3_IdNS2_3powIS9_Lin1ELi1EEEEEEEEvRKNS0_8IntervalIJT_DpT0_EEESt8functionIFvRKNS0_5PointIJSF_SH_EEEEEEUlRKNSM_IJS6_S6_SA_SD_EEEE_
	_ZTIZN4inet4math14iterateCornersINS_5units5valueIdNS2_5units1mEEEJS6_S6_NS3_IdNS2_3powINS4_1sELin1ELi1EEEEEEEEvRKNS0_8IntervalIJT_DpT0_EEESt8functionIFvRKNS0_5PointIJSC_SE_EEEEEEUlRKNSJ_IJS6_S6_SA_EEEE_
	_ZTIZN4inet4math14iterateCornersINS_5units5valueIdNS2_5units1mEEEJS6_S6_S6_NS3_IdNS2_3powINS4_1sELin1ELi1EEEEEEEEvRKNS0_8IntervalIJT_DpT0_EEESt8functionIFvRKNS0_5PointIJSC_SE_EEEEEEUlRKNSJ_IJS6_S6_S6_SA_EEEE_
	_ZTIZN4inet4math14iterateCornersINS_5units5valueIdNS2_5units1mEEEJS6_S6_S6_S6_NS3_IdNS2_3powINS4_1sELin1ELi1EEEEEEEEvRKNS0_8IntervalIJT_DpT0_EEESt8functionIFvRKNS0_5PointIJSC_SE_EEEEEEUlRKNSJ_IJS6_S6_S6_S6_SA_EEEE_
	_ZTIZN4inet4math14iterateCornersINS_5units5valueIdNS2_5units1mEEEJS6_S6_S6_S6_S6_NS3_IdNS2_3powINS4_1sELin1ELi1EEEEEEEEvRKNS0_8IntervalIJT_DpT0_EEESt8functionIFvRKNS0_5PointIJSC_SE_EEEEEEUlRKNSJ_IJS6_S6_S6_S6_S6_SA_EEEE_
	_ZTIZN4inet4math14iterateCornersINS_5units5valueIdNS2_7composeINS2_5units1mENS2_3powINS5_1sELin1ELi1EEEEEEEJNS3_IdS6_EENS3_IdS9_EEEEEvRKNS0_8IntervalIJT_DpT0_EEESt8functionIFvRKNS0_5PointIJSF_SH_EEEEEEUlRKNSM_IJSC_SD_EEEE_
	_ZTIZNK4inet13physicallayer28BackgroundNoisePowerFunction9partitionERKNS_4math8IntervalIJNS_5units5valueIdNS4_5units1mEEES8_S8_NS5_IN7omnetpp7SimTimeENS6_1sEEENS5_IdNS4_3powISB_Lin1ELi1EEEEEEEESt8functionIFvSI_PKNS2_9IFunctionINS5_IdNS4_7composeINSL_INSL_INSL_IS7_NSL_INS6_2kgENSD_ISB_Lin2ELi1EEEEEEES7_EESE_EENSD_ISE_Lin1ELi1EEEEEEENS2_6DomainIJS8_S8_S8_SC_SF_EEEEEEEEUlRKNS3_IJSC_SF_EEEPKNSK_ISU_NSV_IJSC_SF_EEEEEE_
	_ZTIZNK4inet13physicallayer35PropagatedTransmissionPowerFunction9partitionERKNS_4math8IntervalIJNS_5units5valueIdNS4_5units1mEEES8_S8_NS5_IN7omnetpp7SimTimeENS6_1sEEENS5_IdNS4_3powISB_Lin1ELi1EEEEEEEESt8functionIFvSI_PKNS2_9IFunctionINS5_IdNS4_7composeINSL_INSL_INSL_IS7_NSL_INS6_2kgENSD_ISB_Lin2ELi1EEEEEEES7_EESE_EENSD_ISE_Lin1ELi1EEEEEEENS2_6DomainIJS8_S8_S8_SC_SF_EEEEEEEEUlRKNS3_IJSC_SF_EEEPKNSK_ISU_NSV_IJSC_SF_EEEEEE_
	_ZTIZNK4inet4math12FunctionBaseINS_5units5valueIdNS2_7composeINS4_INS4_INS2_5units1mENS4_INS5_2kgENS2_3powINS5_1sELin2ELi1EEEEEEES6_EENS8_IS9_Lin1ELi1EEEEEEENS0_6DomainIJNS3_IN7omnetpp7SimTimeES9_EEEEEE11getIntegralERKNS0_8IntervalIJSK_EEEEUlSQ_PKNS0_9IFunctionISG_SL_EEE_
	_ZTIZNK4inet4math12FunctionBaseINS_5units5valueIdNS2_7composeINS4_INS4_INS2_5units1mENS4_INS5_2kgENS2_3powINS5_1sELin2ELi1EEEEEEES6_EENS8_IS9_Lin1ELi1EEEEEEENS0_6DomainIJNS3_IN7omnetpp7SimTimeES9_EEEEEE14printPartitionERSoRKNS0_8IntervalIJSK_EEEiEUlRKNS0_5PointIJSK_EEEE_
	_ZTIZNK4inet4math12FunctionBaseINS_5units5valueIdNS2_7composeINS4_INS4_INS2_5units1mENS4_INS5_2kgENS2_3powINS5_1sELin2ELi1EEEEEEES6_EENS8_IS9_Lin1ELi1EEEEEEENS0_6DomainIJNS3_IN7omnetpp7SimTimeES9_EEEEEE17printPartitioningERSoRKNS0_8IntervalIJSK_EEEiEUlSR_PKNS0_9IFunctionISG_SL_EEE_
	_ZTIZNK4inet4math12FunctionBaseINS_5units5valueIdNS2_7composeINS4_INS4_INS2_5units1mENS4_INS5_2kgENS2_3powINS5_1sELin2ELi1EEEEEEES6_EENS8_IS9_Lin1ELi1EEEEEEENS0_6DomainIJNS3_IN7omnetpp7SimTimeES9_EEEEEE6getMaxERKNS0_8IntervalIJSK_EEEEUlSQ_PKNS0_9IFunctionISG_SL_EEE_
	_ZTIZNK4inet4math12FunctionBaseINS_5units5valueIdNS2_7composeINS4_INS4_INS2_5units1mENS4_INS5_2kgENS2_3powINS5_1sELin2ELi1EEEEEEES6_EENS8_IS9_Lin1ELi1EEEEEEENS0_6DomainIJNS3_IN7omnetpp7SimTimeES9_EEEEEE6getMinERKNS0_8IntervalIJSK_EEEEUlSQ_PKNS0_9IFunctionISG_SL_EEE_
	_ZTIZNK4inet4math12FunctionBaseINS_5units5valueIdNS2_7composeINS4_INS4_INS2_5units1mENS4_INS5_2kgENS2_3powINS5_1sELin2ELi1EEEEEEES6_EENS8_IS9_Lin1ELi1EEEEEEENS0_6DomainIJNS3_IN7omnetpp7SimTimeES9_EEEEEE8isFiniteERKNS0_8IntervalIJSK_EEEEUlSQ_PKNS0_9IFunctionISG_SL_EEE_
	_ZTIZNK4inet4math12FunctionBaseINS_5units5valueIdNS2_7composeINS4_INS4_INS2_5units1mENS4_INS5_2kgENS2_3powINS5_1sELin2ELi1EEEEEEES6_EENS8_IS9_Lin1ELi1EEEEEEENS0_6DomainIJNS3_IN7omnetpp7SimTimeES9_EEEEEE9isNonZeroERKNS0_8IntervalIJSK_EEEEUlSQ_PKNS0_9IFunctionISG_SL_EEE_
	_ZTIZNK4inet4math12FunctionBaseINS_5units5valueIdNS2_7composeINS4_INS4_INS2_5units1mENS4_INS5_2kgENS2_3powINS5_1sELin2ELi1EEEEEEES6_EENS8_IS9_Lin1ELi1EEEEEEENS0_6DomainIJNS3_IdS6_EESI_SI_NS3_IN7omnetpp7SimTimeES9_EEEEEE11getIntegralERKNS0_8IntervalIJSI_SI_SI_SL_EEEEUlSR_PKNS0_9IFunctionISG_SM_EEE_
	_ZTIZNK4inet4math12FunctionBaseINS_5units5valueIdNS2_7composeINS4_INS4_INS2_5units1mENS4_INS5_2kgENS2_3powINS5_1sELin2ELi1EEEEEEES6_EENS8_IS9_Lin1ELi1EEEEEEENS0_6DomainIJNS3_IdS6_EESI_SI_NS3_IN7omnetpp7SimTimeES9_EEEEEE14printPartitionERSoRKNS0_8IntervalIJSI_SI_SI_SL_EEEiEUlRKNS0_5PointIJSI_SI_SI_SL_EEEE_
	_ZTIZNK4inet4math12FunctionBaseINS_5units5valueIdNS2_7composeINS4_INS4_INS2_5units1mENS4_INS5_2kgENS2_3powINS5_1sELin2ELi1EEEEEEES6_EENS8_IS9_Lin1ELi1EEEEEEENS0_6DomainIJNS3_IdS6_EESI_SI_NS3_IN7omnetpp7SimTimeES9_EEEEEE17printPartitioningERSoRKNS0_8IntervalIJSI_SI_SI_SL_EEEiEUlSS_PKNS0_9IFunctionISG_SM_EEE_
	_ZTIZNK4inet4math12FunctionBaseINS_5units5valueIdNS2_7composeINS4_INS4_INS2_5units1mENS4_INS5_2kgENS2_3powINS5_1sELin2ELi1EEEEEEES6_EENS8_IS9_Lin1ELi1EEEEEEENS0_6DomainIJNS3_IdS6_EESI_SI_NS3_IN7omnetpp7SimTimeES9_EEEEEE6getMaxERKNS0_8IntervalIJSI_SI_SI_SL_EEEEUlSR_PKNS0_9IFunctionISG_SM_EEE_
	_ZTIZNK4inet4math12FunctionBaseINS_5units5valueIdNS2_7composeINS4_INS4_INS2_5units1mENS4_INS5_2kgENS2_3powINS5_1sELin2ELi1EEEEEEES6_EENS8_IS9_Lin1ELi1EEEEEEENS0_6DomainIJNS3_IdS6_EESI_SI_NS3_IN7omnetpp7SimTimeES9_EEEEEE6getMinERKNS0_8IntervalIJSI_SI_SI_SL_EEEEUlSR_PKNS0_9IFunctionISG_SM_EEE_
	_ZTIZNK4inet4math12FunctionBaseINS_5units5valueIdNS2_7composeINS4_INS4_INS2_5units1mENS4_INS5_2kgENS2_3powINS5_1sELin2ELi1EEEEEEES6_EENS8_IS9_Lin1ELi1EEEEEEENS0_6DomainIJNS3_IdS6_EESI_SI_NS3_IN7omnetpp7SimTimeES9_EEEEEE8isFiniteERKNS0_8IntervalIJSI_SI_SI_SL_EEEEUlSR_PKNS0_9IFunctionISG_SM_EEE_
	_ZTIZNK4inet4math12FunctionBaseINS_5units5valueIdNS2_7composeINS4_INS4_INS2_5units1mENS4_INS5_2kgENS2_3powINS5_1sELin2ELi1EEEEEEES6_EENS8_IS9_Lin1ELi1EEEEEEENS0_6DomainIJNS3_IdS6_EESI_SI_NS3_IN7omnetpp7SimTimeES9_EEEEEE9isNonZeroERKNS0_8IntervalIJSI_SI_SI_SL_EEEEUlSR_PKNS0_9IFunctionISG_SM_EEE_
	_ZTIZNK4inet4math12FunctionBaseINS_5units5valueIdNS2_7composeINS4_INS4_INS4_INS2_5units1mENS4_INS5_2kgENS2_3powINS5_1sELin2ELi1EEEEEEES6_EENS8_IS9_Lin1ELi1EEEEENS8_ISE_Lin1ELi1EEEEEEENS0_6DomainIJNS3_IN7omnetpp7SimTimeES9_EEEEEE11getIntegralERKNS0_8IntervalIJSM_EEEEUlSS_PKNS0_9IFunctionISI_SN_EEE_
	_ZTIZNK4inet4math12FunctionBaseINS_5units5valueIdNS2_7composeINS4_INS4_INS4_INS2_5units1mENS4_INS5_2kgENS2_3powINS5_1sELin2ELi1EEEEEEES6_EENS8_IS9_Lin1ELi1EEEEENS8_ISE_Lin1ELi1EEEEEEENS0_6DomainIJNS3_IN7omnetpp7SimTimeES9_EEEEEE14printPartitionERSoRKNS0_8IntervalIJSM_EEEiEUlRKNS0_5PointIJSM_EEEE_
	_ZTIZNK4inet4math12FunctionBaseINS_5units5valueIdNS2_7composeINS4_INS4_INS4_INS2_5units1mENS4_INS5_2kgENS2_3powINS5_1sELin2ELi1EEEEEEES6_EENS8_IS9_Lin1ELi1EEEEENS8_ISE_Lin1ELi1EEEEEEENS0_6DomainIJNS3_IN7omnetpp7SimTimeES9_EEEEEE17printPartitioningERSoRKNS0_8IntervalIJSM_EEEiEUlST_PKNS0_9IFunctionISI_SN_EEE_
	_ZTIZNK4inet4math12FunctionBaseINS_5units5valueIdNS2_7composeINS4_INS4_INS4_INS2_5units1mENS4_INS5_2kgENS2_3powINS5_1sELin2ELi1EEEEEEES6_EENS8_IS9_Lin1ELi1EEEEENS8_ISE_Lin1ELi1EEEEEEENS0_6DomainIJNS3_IN7omnetpp7SimTimeES9_EEEEEE6getMaxERKNS0_8IntervalIJSM_EEEEUlSS_PKNS0_9IFunctionISI_SN_EEE_
	_ZTIZNK4inet4math12FunctionBaseINS_5units5valueIdNS2_7composeINS4_INS4_INS4_INS2_5units1mENS4_INS5_2kgENS2_3powINS5_1sELin2ELi1EEEEEEES6_EENS8_IS9_Lin1ELi1EEEEENS8_ISE_Lin1ELi1EEEEEEENS0_6DomainIJNS3_IN7omnetpp7SimTimeES9_EEEEEE6getMinERKNS0_8IntervalIJSM_EEEEUlSS_PKNS0_9IFunctionISI_SN_EEE_
	_ZTIZNK4inet4math12FunctionBaseINS_5units5valueIdNS2_7composeINS4_INS4_INS4_INS2_5units1mENS4_INS5_2kgENS2_3powINS5_1sELin2ELi1EEEEEEES6_EENS8_IS9_Lin1ELi1EEEEENS8_ISE_Lin1ELi1EEEEEEENS0_6DomainIJNS3_IN7omnetpp7SimTimeES9_EEEEEE8isFiniteERKNS0_8IntervalIJSM_EEEEUlSS_PKNS0_9IFunctionISI_SN_EEE_
	_ZTIZNK4inet4math12FunctionBaseINS_5units5valueIdNS2_7composeINS4_INS4_INS4_INS2_5units1mENS4_INS5_2kgENS2_3powINS5_1sELin2ELi1EEEEEEES6_EENS8_IS9_Lin1ELi1EEEEENS8_ISE_Lin1ELi1EEEEEEENS0_6DomainIJNS3_IN7omnetpp7SimTimeES9_EEEEEE9isNonZeroERKNS0_8IntervalIJSM_EEEEUlSS_PKNS0_9IFunctionISI_SN_EEE_
	_ZTIZNK4inet4math12FunctionBaseINS_5units5valueIdNS2_7composeINS4_INS4_INS4_INS2_5units1mENS4_INS5_2kgENS2_3powINS5_1sELin2ELi1EEEEEEES6_EENS8_IS9_Lin1ELi1EEEEENS8_ISE_Lin1ELi1EEEEEEENS0_6DomainIJNS3_IN7omnetpp7SimTimeES9_EENS3_IdSE_EEEEEE11getIntegralERKNS0_8IntervalIJSM_SN_EEEEUlST_PKNS0_9IFunctionISI_SO_EEE_
	_ZTIZNK4inet4math12FunctionBaseINS_5units5valueIdNS2_7composeINS4_INS4_INS4_INS2_5units1mENS4_INS5_2kgENS2_3powINS5_1sELin2ELi1EEEEEEES6_EENS8_IS9_Lin1ELi1EEEEENS8_ISE_Lin1ELi1EEEEEEENS0_6DomainIJNS3_IN7omnetpp7SimTimeES9_EENS3_IdSE_EEEEEE14printPartitionERSoRKNS0_8IntervalIJSM_SN_EEEiEUlRKNS0_5PointIJSM_SN_EEEE_
	_ZTIZNK4inet4math12FunctionBaseINS_5units5valueIdNS2_7composeINS4_INS4_INS4_INS2_5units1mENS4_INS5_2kgENS2_3powINS5_1sELin2ELi1EEEEEEES6_EENS8_IS9_Lin1ELi1EEEEENS8_ISE_Lin1ELi1EEEEEEENS0_6DomainIJNS3_IN7omnetpp7SimTimeES9_EENS3_IdSE_EEEEEE17printPartitioningERSoRKNS0_8IntervalIJSM_SN_EEEiEUlSU_PKNS0_9IFunctionISI_SO_EEE_
	_ZTIZNK4inet4math12FunctionBaseINS_5units5valueIdNS2_7composeINS4_INS4_INS4_INS2_5units1mENS4_INS5_2kgENS2_3powINS5_1sELin2ELi1EEEEEEES6_EENS8_IS9_Lin1ELi1EEEEENS8_ISE_Lin1ELi1EEEEEEENS0_6DomainIJNS3_IN7omnetpp7SimTimeES9_EENS3_IdSE_EEEEEE6getMaxERKNS0_8IntervalIJSM_SN_EEEEUlST_PKNS0_9IFunctionISI_SO_EEE_
	_ZTIZNK4inet4math12FunctionBaseINS_5units5valueIdNS2_7composeINS4_INS4_INS4_INS2_5units1mENS4_INS5_2kgENS2_3powINS5_1sELin2ELi1EEEEEEES6_EENS8_IS9_Lin1ELi1EEEEENS8_ISE_Lin1ELi1EEEEEEENS0_6DomainIJNS3_IN7omnetpp7SimTimeES9_EENS3_IdSE_EEEEEE6getMinERKNS0_8IntervalIJSM_SN_EEEEUlST_PKNS0_9IFunctionISI_SO_EEE_
	_ZTIZNK4inet4math12FunctionBaseINS_5units5valueIdNS2_7composeINS4_INS4_INS4_INS2_5units1mENS4_INS5_2kgENS2_3powINS5_1sELin2ELi1EEEEEEES6_EENS8_IS9_Lin1ELi1EEEEENS8_ISE_Lin1ELi1EEEEEEENS0_6DomainIJNS3_IN7omnetpp7SimTimeES9_EENS3_IdSE_EEEEEE8isFiniteERKNS0_8IntervalIJSM_SN_EEEEUlST_PKNS0_9IFunctionISI_SO_EEE_
	_ZTIZNK4inet4math12FunctionBaseINS_5units5valueIdNS2_7composeINS4_INS4_INS4_INS2_5units1mENS4_INS5_2kgENS2_3powINS5_1sELin2ELi1EEEEEEES6_EENS8_IS9_Lin1ELi1EEEEENS8_ISE_Lin1ELi1EEEEEEENS0_6DomainIJNS3_IN7omnetpp7SimTimeES9_EENS3_IdSE_EEEEEE9isNonZeroERKNS0_8IntervalIJSM_SN_EEEEUlST_PKNS0_9IFunctionISI_SO_EEE_
	_ZTIZNK4inet4math12FunctionBaseINS_5units5valueIdNS2_7composeINS4_INS4_INS4_INS2_5units1mENS4_INS5_2kgENS2_3powINS5_1sELin2ELi1EEEEEEES6_EENS8_IS9_Lin1ELi1EEEEENS8_ISE_Lin1ELi1EEEEEEENS0_6DomainIJNS3_IdS6_EESK_SK_NS3_IN7omnetpp7SimTimeES9_EENS3_IdSE_EEEEEE11getIntegralERKNS0_8IntervalIJSK_SK_SK_SN_SO_EEEEUlSU_PKNS0_9IFunctionISI_SP_EEE_
	_ZTIZNK4inet4math12FunctionBaseINS_5units5valueIdNS2_7composeINS4_INS4_INS4_INS2_5units1mENS4_INS5_2kgENS2_3powINS5_1sELin2ELi1EEEEEEES6_EENS8_IS9_Lin1ELi1EEEEENS8_ISE_Lin1ELi1EEEEEEENS0_6DomainIJNS3_IdS6_EESK_SK_NS3_IN7omnetpp7SimTimeES9_EENS3_IdSE_EEEEEE14printPartitionERSoRKNS0_8IntervalIJSK_SK_SK_SN_SO_EEEiEUlRKNS0_5PointIJSK_SK_SK_SN_SO_EEEE_
	_ZTIZNK4inet4math12FunctionBaseINS_5units5valueIdNS2_7composeINS4_INS4_INS4_INS2_5units1mENS4_INS5_2kgENS2_3powINS5_1sELin2ELi1EEEEEEES6_EENS8_IS9_Lin1ELi1EEEEENS8_ISE_Lin1ELi1EEEEEEENS0_6DomainIJNS3_IdS6_EESK_SK_NS3_IN7omnetpp7SimTimeES9_EENS3_IdSE_EEEEEE17printPartitioningERSoRKNS0_8IntervalIJSK_SK_SK_SN_SO_EEEiEUlSV_PKNS0_9IFunctionISI_SP_EEE_
	_ZTIZNK4inet4math12FunctionBaseINS_5units5valueIdNS2_7composeINS4_INS4_INS4_INS2_5units1mENS4_INS5_2kgENS2_3powINS5_1sELin2ELi1EEEEEEES6_EENS8_IS9_Lin1ELi1EEEEENS8_ISE_Lin1ELi1EEEEEEENS0_6DomainIJNS3_IdS6_EESK_SK_NS3_IN7omnetpp7SimTimeES9_EENS3_IdSE_EEEEEE6getMaxERKNS0_8IntervalIJSK_SK_SK_SN_SO_EEEEUlSU_PKNS0_9IFunctionISI_SP_EEE_
	_ZTIZNK4inet4math12FunctionBaseINS_5units5valueIdNS2_7composeINS4_INS4_INS4_INS2_5units1mENS4_INS5_2kgENS2_3powINS5_1sELin2ELi1EEEEEEES6_EENS8_IS9_Lin1ELi1EEEEENS8_ISE_Lin1ELi1EEEEEEENS0_6DomainIJNS3_IdS6_EESK_SK_NS3_IN7omnetpp7SimTimeES9_EENS3_IdSE_EEEEEE6getMinERKNS0_8IntervalIJSK_SK_SK_SN_SO_EEEEUlSU_PKNS0_9IFunctionISI_SP_EEE_
	_ZTIZNK4inet4math12FunctionBaseINS_5units5valueIdNS2_7composeINS4_INS4_INS4_INS2_5units1mENS4_INS5_2kgENS2_3powINS5_1sELin2ELi1EEEEEEES6_EENS8_IS9_Lin1ELi1EEEEENS8_ISE_Lin1ELi1EEEEEEENS0_6DomainIJNS3_IdS6_EESK_SK_NS3_IN7omnetpp7SimTimeES9_EENS3_IdSE_EEEEEE8isFiniteERKNS0_8IntervalIJSK_SK_SK_SN_SO_EEEEUlSU_PKNS0_9IFunctionISI_SP_EEE_
	_ZTIZNK4inet4math12FunctionBaseINS_5units5valueIdNS2_7composeINS4_INS4_INS4_INS2_5units1mENS4_INS5_2kgENS2_3powINS5_1sELin2ELi1EEEEEEES6_EENS8_IS9_Lin1ELi1EEEEENS8_ISE_Lin1ELi1EEEEEEENS0_6DomainIJNS3_IdS6_EESK_SK_NS3_IN7omnetpp7SimTimeES9_EENS3_IdSE_EEEEEE9isNonZeroERKNS0_8IntervalIJSK_SK_SK_SN_SO_EEEEUlSU_PKNS0_9IFunctionISI_SP_EEE_
	_ZTIZNK4inet4math12FunctionBaseIdNS0_6DomainIJNS_5units5valueIN7omnetpp7SimTimeENS3_5units1sEEEEEEE11getIntegralERKNS0_8IntervalIJS9_EEEEUlSF_PKNS0_9IFunctionIdSA_EEE_
	_ZTIZNK4inet4math12FunctionBaseIdNS0_6DomainIJNS_5units5valueIN7omnetpp7SimTimeENS3_5units1sEEEEEEE14printPartitionERSoRKNS0_8IntervalIJS9_EEEiEUlRKNS0_5PointIJS9_EEEE_
	_ZTIZNK4inet4math12FunctionBaseIdNS0_6DomainIJNS_5units5valueIN7omnetpp7SimTimeENS3_5units1sEEEEEEE17printPartitioningERSoRKNS0_8IntervalIJS9_EEEiEUlSG_PKNS0_9IFunctionIdSA_EEE_
	_ZTIZNK4inet4math12FunctionBaseIdNS0_6DomainIJNS_5units5valueIN7omnetpp7SimTimeENS3_5units1sEEEEEEE6getMaxERKNS0_8IntervalIJS9_EEEEUlSF_PKNS0_9IFunctionIdSA_EEE_
	_ZTIZNK4inet4math12FunctionBaseIdNS0_6DomainIJNS_5units5valueIN7omnetpp7SimTimeENS3_5units1sEEEEEEE6getMinERKNS0_8IntervalIJS9_EEEEUlSF_PKNS0_9IFunctionIdSA_EEE_
	_ZTIZNK4inet4math12FunctionBaseIdNS0_6DomainIJNS_5units5valueIN7omnetpp7SimTimeENS3_5units1sEEEEEEE8isFiniteERKNS0_8IntervalIJS9_EEEEUlSF_PKNS0_9IFunctionIdSA_EEE_
	_ZTIZNK4inet4math12FunctionBaseIdNS0_6DomainIJNS_5units5valueIN7omnetpp7SimTimeENS3_5units1sEEEEEEE9isNonZeroERKNS0_8IntervalIJS9_EEEEUlSF_PKNS0_9IFunctionIdSA_EEE_
	_ZTIZNK4inet4math12FunctionBaseIdNS0_6DomainIJNS_5units5valueIN7omnetpp7SimTimeENS3_5units1sEEENS4_IdNS3_3powIS8_Lin1ELi1EEEEEEEEE11getIntegralERKNS0_8IntervalIJS9_SC_EEEEUlSI_PKNS0_9IFunctionIdSD_EEE_
	_ZTIZNK4inet4math12FunctionBaseIdNS0_6DomainIJNS_5units5valueIN7omnetpp7SimTimeENS3_5units1sEEENS4_IdNS3_3powIS8_Lin1ELi1EEEEEEEEE14printPartitionERSoRKNS0_8IntervalIJS9_SC_EEEiEUlRKNS0_5PointIJS9_SC_EEEE_
	_ZTIZNK4inet4math12FunctionBaseIdNS0_6DomainIJNS_5units5valueIN7omnetpp7SimTimeENS3_5units1sEEENS4_IdNS3_3powIS8_Lin1ELi1EEEEEEEEE17printPartitioningERSoRKNS0_8IntervalIJS9_SC_EEEiEUlSJ_PKNS0_9IFunctionIdSD_EEE_
	_ZTIZNK4inet4math12FunctionBaseIdNS0_6DomainIJNS_5units5valueIN7omnetpp7SimTimeENS3_5units1sEEENS4_IdNS3_3powIS8_Lin1ELi1EEEEEEEEE6getMaxERKNS0_8IntervalIJS9_SC_EEEEUlSI_PKNS0_9IFunctionIdSD_EEE_
	_ZTIZNK4inet4math12FunctionBaseIdNS0_6DomainIJNS_5units5valueIN7omnetpp7SimTimeENS3_5units1sEEENS4_IdNS3_3powIS8_Lin1ELi1EEEEEEEEE6getMinERKNS0_8IntervalIJS9_SC_EEEEUlSI_PKNS0_9IFunctionIdSD_EEE_
	_ZTIZNK4inet4math12FunctionBaseIdNS0_6DomainIJNS_5units5valueIN7omnetpp7SimTimeENS3_5units1sEEENS4_IdNS3_3powIS8_Lin1ELi1EEEEEEEEE8isFiniteERKNS0_8IntervalIJS9_SC_EEEEUlSI_PKNS0_9IFunctionIdSD_EEE_
	_ZTIZNK4inet4math12FunctionBaseIdNS0_6DomainIJNS_5units5valueIN7omnetpp7SimTimeENS3_5units1sEEENS4_IdNS3_3powIS8_Lin1ELi1EEEEEEEEE9isNonZeroERKNS0_8IntervalIJS9_SC_EEEEUlSI_PKNS0_9IFunctionIdSD_EEE_
	_ZTIZNK4inet4math12FunctionBaseIdNS0_6DomainIJNS_5units5valueIdNS3_3powINS3_5units1sELin1ELi1EEEEEEEEE11getIntegralERKNS0_8IntervalIJS9_EEEEUlSF_PKNS0_9IFunctionIdSA_EEE_
	_ZTIZNK4inet4math12FunctionBaseIdNS0_6DomainIJNS_5units5valueIdNS3_3powINS3_5units1sELin1ELi1EEEEEEEEE14printPartitionERSoRKNS0_8IntervalIJS9_EEEiEUlRKNS0_5PointIJS9_EEEE_
	_ZTIZNK4inet4math12FunctionBaseIdNS0_6DomainIJNS_5units5valueIdNS3_3powINS3_5units1sELin1ELi1EEEEEEEEE17printPartitioningERSoRKNS0_8IntervalIJS9_EEEiEUlSG_PKNS0_9IFunctionIdSA_EEE_
	_ZTIZNK4inet4math12FunctionBaseIdNS0_6DomainIJNS_5units5valueIdNS3_3powINS3_5units1sELin1ELi1EEEEEEEEE6getMaxERKNS0_8IntervalIJS9_EEEEUlSF_PKNS0_9IFunctionIdSA_EEE_
	_ZTIZNK4inet4math12FunctionBaseIdNS0_6DomainIJNS_5units5valueIdNS3_3powINS3_5units1sELin1ELi1EEEEEEEEE6getMinERKNS0_8IntervalIJS9_EEEEUlSF_PKNS0_9IFunctionIdSA_EEE_
	_ZTIZNK4inet4math12FunctionBaseIdNS0_6DomainIJNS_5units5valueIdNS3_3powINS3_5units1sELin1ELi1EEEEEEEEE8isFiniteERKNS0_8IntervalIJS9_EEEEUlSF_PKNS0_9IFunctionIdSA_EEE_
	_ZTIZNK4inet4math12FunctionBaseIdNS0_6DomainIJNS_5units5valueIdNS3_3powINS3_5units1sELin1ELi1EEEEEEEEE9isNonZeroERKNS0_8IntervalIJS9_EEEEUlSF_PKNS0_9IFunctionIdSA_EEE_
	_ZTIZNK4inet4math12FunctionBaseIdNS0_6DomainIJNS_5units5valueIdNS3_5units1mEEES7_S7_NS4_IN7omnetpp7SimTimeENS5_1sEEEEEEE11getIntegralERKNS0_8IntervalIJS7_S7_S7_SB_EEEEUlSH_PKNS0_9IFunctionIdSC_EEE_
	_ZTIZNK4inet4math12FunctionBaseIdNS0_6DomainIJNS_5units5valueIdNS3_5units1mEEES7_S7_NS4_IN7omnetpp7SimTimeENS5_1sEEEEEEE14printPartitionERSoRKNS0_8IntervalIJS7_S7_S7_SB_EEEiEUlRKNS0_5PointIJS7_S7_S7_SB_EEEE_
	_ZTIZNK4inet4math12FunctionBaseIdNS0_6DomainIJNS_5units5valueIdNS3_5units1mEEES7_S7_NS4_IN7omnetpp7SimTimeENS5_1sEEEEEEE17printPartitioningERSoRKNS0_8IntervalIJS7_S7_S7_SB_EEEiEUlSI_PKNS0_9IFunctionIdSC_EEE_
	_ZTIZNK4inet4math12FunctionBaseIdNS0_6DomainIJNS_5units5valueIdNS3_5units1mEEES7_S7_NS4_IN7omnetpp7SimTimeENS5_1sEEEEEEE6getMaxERKNS0_8IntervalIJS7_S7_S7_SB_EEEEUlSH_PKNS0_9IFunctionIdSC_EEE_
	_ZTIZNK4inet4math12FunctionBaseIdNS0_6DomainIJNS_5units5valueIdNS3_5units1mEEES7_S7_NS4_IN7omnetpp7SimTimeENS5_1sEEEEEEE6getMinERKNS0_8IntervalIJS7_S7_S7_SB_EEEEUlSH_PKNS0_9IFunctionIdSC_EEE_
	_ZTIZNK4inet4math12FunctionBaseIdNS0_6DomainIJNS_5units5valueIdNS3_5units1mEEES7_S7_NS4_IN7omnetpp7SimTimeENS5_1sEEEEEEE8isFiniteERKNS0_8IntervalIJS7_S7_S7_SB_EEEEUlSH_PKNS0_9IFunctionIdSC_EEE_
	_ZTIZNK4inet4math12FunctionBaseIdNS0_6DomainIJNS_5units5valueIdNS3_5units1mEEES7_S7_NS4_IN7omnetpp7SimTimeENS5_1sEEEEEEE9isNonZeroERKNS0_8IntervalIJS7_S7_S7_SB_EEEEUlSH_PKNS0_9IFunctionIdSC_EEE_
	_ZTIZNK4inet4math12FunctionBaseIdNS0_6DomainIJNS_5units5valueIdNS3_5units1mEEES7_S7_NS4_IN7omnetpp7SimTimeENS5_1sEEENS4_IdNS3_3powISA_Lin1ELi1EEEEEEEEE11getIntegralERKNS0_8IntervalIJS7_S7_S7_SB_SE_EEEEUlSK_PKNS0_9IFunctionIdSF_EEE_
	_ZTIZNK4inet4math12FunctionBaseIdNS0_6DomainIJNS_5units5valueIdNS3_5units1mEEES7_S7_NS4_IN7omnetpp7SimTimeENS5_1sEEENS4_IdNS3_3powISA_Lin1ELi1EEEEEEEEE14printPartitionERSoRKNS0_8IntervalIJS7_S7_S7_SB_SE_EEEiEUlRKNS0_5PointIJS7_S7_S7_SB_SE_EEEE_
	_ZTIZNK4inet4math12FunctionBaseIdNS0_6DomainIJNS_5units5valueIdNS3_5units1mEEES7_S7_NS4_IN7omnetpp7SimTimeENS5_1sEEENS4_IdNS3_3powISA_Lin1ELi1EEEEEEEEE17printPartitioningERSoRKNS0_8IntervalIJS7_S7_S7_SB_SE_EEEiEUlSL_PKNS0_9IFunctionIdSF_EEE_
	_ZTIZNK4inet4math12FunctionBaseIdNS0_6DomainIJNS_5units5valueIdNS3_5units1mEEES7_S7_NS4_IN7omnetpp7SimTimeENS5_1sEEENS4_IdNS3_3powISA_Lin1ELi1EEEEEEEEE6getMaxERKNS0_8IntervalIJS7_S7_S7_SB_SE_EEEEUlSK_PKNS0_9IFunctionIdSF_EEE_
	_ZTIZNK4inet4math12FunctionBaseIdNS0_6DomainIJNS_5units5valueIdNS3_5units1mEEES7_S7_NS4_IN7omnetpp7SimTimeENS5_1sEEENS4_IdNS3_3powISA_Lin1ELi1EEEEEEEEE6getMinERKNS0_8IntervalIJS7_S7_S7_SB_SE_EEEEUlSK_PKNS0_9IFunctionIdSF_EEE_
	_ZTIZNK4inet4math12FunctionBaseIdNS0_6DomainIJNS_5units5valueIdNS3_5units1mEEES7_S7_NS4_IN7omnetpp7SimTimeENS5_1sEEENS4_IdNS3_3powISA_Lin1ELi1EEEEEEEEE8isFiniteERKNS0_8IntervalIJS7_S7_S7_SB_SE_EEEEUlSK_PKNS0_9IFunctionIdSF_EEE_
	_ZTIZNK4inet4math12FunctionBaseIdNS0_6DomainIJNS_5units5valueIdNS3_5units1mEEES7_S7_NS4_IN7omnetpp7SimTimeENS5_1sEEENS4_IdNS3_3powISA_Lin1ELi1EEEEEEEEE9isNonZeroERKNS0_8IntervalIJS7_S7_S7_SB_SE_EEEEUlSK_PKNS0_9IFunctionIdSF_EEE_
	_ZTIZNK4inet4math12FunctionBaseIdNS0_6DomainIJNS_5units5valueIdNS3_5units1mEEES7_S7_S7_S7_S7_NS4_IdNS3_3powINS5_1sELin1ELi1EEEEEEEEE11getIntegralERKNS0_8IntervalIJS7_S7_S7_S7_S7_S7_SB_EEEEUlSH_PKNS0_9IFunctionIdSC_EEE_
	_ZTIZNK4inet4math12FunctionBaseIdNS0_6DomainIJNS_5units5valueIdNS3_5units1mEEES7_S7_S7_S7_S7_NS4_IdNS3_3powINS5_1sELin1ELi1EEEEEEEEE14printPartitionERSoRKNS0_8IntervalIJS7_S7_S7_S7_S7_S7_SB_EEEiEUlRKNS0_5PointIJS7_S7_S7_S7_S7_S7_SB_EEEE_
	_ZTIZNK4inet4math12FunctionBaseIdNS0_6DomainIJNS_5units5valueIdNS3_5units1mEEES7_S7_S7_S7_S7_NS4_IdNS3_3powINS5_1sELin1ELi1EEEEEEEEE17printPartitioningERSoRKNS0_8IntervalIJS7_S7_S7_S7_S7_S7_SB_EEEiEUlSI_PKNS0_9IFunctionIdSC_EEE_
	_ZTIZNK4inet4math12FunctionBaseIdNS0_6DomainIJNS_5units5valueIdNS3_5units1mEEES7_S7_S7_S7_S7_NS4_IdNS3_3powINS5_1sELin1ELi1EEEEEEEEE6getMaxERKNS0_8IntervalIJS7_S7_S7_S7_S7_S7_SB_EEEEUlSH_PKNS0_9IFunctionIdSC_EEE_
	_ZTIZNK4inet4math12FunctionBaseIdNS0_6DomainIJNS_5units5valueIdNS3_5units1mEEES7_S7_S7_S7_S7_NS4_IdNS3_3powINS5_1sELin1ELi1EEEEEEEEE6getMinERKNS0_8IntervalIJS7_S7_S7_S7_S7_S7_SB_EEEEUlSH_PKNS0_9IFunctionIdSC_EEE_
	_ZTIZNK4inet4math12FunctionBaseIdNS0_6DomainIJNS_5units5valueIdNS3_5units1mEEES7_S7_S7_S7_S7_NS4_IdNS3_3powINS5_1sELin1ELi1EEEEEEEEE8isFiniteERKNS0_8IntervalIJS7_S7_S7_S7_S7_S7_SB_EEEEUlSH_PKNS0_9IFunctionIdSC_EEE_
	_ZTIZNK4inet4math12FunctionBaseIdNS0_6DomainIJNS_5units5valueIdNS3_5units1mEEES7_S7_S7_S7_S7_NS4_IdNS3_3powINS5_1sELin1ELi1EEEEEEEEE9isNonZeroERKNS0_8IntervalIJS7_S7_S7_S7_S7_S7_SB_EEEEUlSH_PKNS0_9IFunctionIdSC_EEE_
	_ZTIZNK4inet4math12FunctionBaseIdNS0_6DomainIJNS_5units5valueIdNS3_7composeINS3_5units1mENS3_3powINS6_1sELin1ELi1EEEEEEENS4_IdS7_EENS4_IdSA_EEEEEE11getIntegralERKNS0_8IntervalIJSC_SD_SE_EEEEUlSK_PKNS0_9IFunctionIdSF_EEE_
	_ZTIZNK4inet4math12FunctionBaseIdNS0_6DomainIJNS_5units5valueIdNS3_7composeINS3_5units1mENS3_3powINS6_1sELin1ELi1EEEEEEENS4_IdS7_EENS4_IdSA_EEEEEE14printPartitionERSoRKNS0_8IntervalIJSC_SD_SE_EEEiEUlRKNS0_5PointIJSC_SD_SE_EEEE_
	_ZTIZNK4inet4math12FunctionBaseIdNS0_6DomainIJNS_5units5valueIdNS3_7composeINS3_5units1mENS3_3powINS6_1sELin1ELi1EEEEEEENS4_IdS7_EENS4_IdSA_EEEEEE17printPartitioningERSoRKNS0_8IntervalIJSC_SD_SE_EEEiEUlSL_PKNS0_9IFunctionIdSF_EEE_
	_ZTIZNK4inet4math12FunctionBaseIdNS0_6DomainIJNS_5units5valueIdNS3_7composeINS3_5units1mENS3_3powINS6_1sELin1ELi1EEEEEEENS4_IdS7_EENS4_IdSA_EEEEEE6getMaxERKNS0_8IntervalIJSC_SD_SE_EEEEUlSK_PKNS0_9IFunctionIdSF_EEE_
	_ZTIZNK4inet4math12FunctionBaseIdNS0_6DomainIJNS_5units5valueIdNS3_7composeINS3_5units1mENS3_3powINS6_1sELin1ELi1EEEEEEENS4_IdS7_EENS4_IdSA_EEEEEE6getMinERKNS0_8IntervalIJSC_SD_SE_EEEEUlSK_PKNS0_9IFunctionIdSF_EEE_
	_ZTIZNK4inet4math12FunctionBaseIdNS0_6DomainIJNS_5units5valueIdNS3_7composeINS3_5units1mENS3_3powINS6_1sELin1ELi1EEEEEEENS4_IdS7_EENS4_IdSA_EEEEEE8isFiniteERKNS0_8IntervalIJSC_SD_SE_EEEEUlSK_PKNS0_9IFunctionIdSF_EEE_
	_ZTIZNK4inet4math12FunctionBaseIdNS0_6DomainIJNS_5units5valueIdNS3_7composeINS3_5units1mENS3_3powINS6_1sELin1ELi1EEEEEEENS4_IdS7_EENS4_IdSA_EEEEEE9isNonZeroERKNS0_8IntervalIJSC_SD_SE_EEEEUlSK_PKNS0_9IFunctionIdSF_EEE_
	_ZTIZNK4inet4math13AddedFunctionINS_5units5valueIdNS2_7composeINS4_INS4_INS2_5units1mENS4_INS5_2kgENS2_3powINS5_1sELin2ELi1EEEEEEES6_EENS8_IS9_Lin1ELi1EEEEEEENS0_6DomainIJNS3_IN7omnetpp7SimTimeES9_EEEEEE9partitionERKNS0_8IntervalIJSK_EEESt8functionIFvSQ_PKNS0_9IFunctionISG_SL_EEEEEUlSQ_SV_E_
	_ZTIZNK4inet4math13AddedFunctionINS_5units5valueIdNS2_7composeINS4_INS4_INS2_5units1mENS4_INS5_2kgENS2_3powINS5_1sELin2ELi1EEEEEEES6_EENS8_IS9_Lin1ELi1EEEEEEENS0_6DomainIJNS3_IdS6_EESI_SI_NS3_IN7omnetpp7SimTimeES9_EEEEEE9partitionERKNS0_8IntervalIJSI_SI_SI_SL_EEESt8functionIFvSR_PKNS0_9IFunctionISG_SM_EEEEEUlSR_SW_E_
	_ZTIZNK4inet4math13AddedFunctionINS_5units5valueIdNS2_7composeINS4_INS4_INS4_INS2_5units1mENS4_INS5_2kgENS2_3powINS5_1sELin2ELi1EEEEEEES6_EENS8_IS9_Lin1ELi1EEEEENS8_ISE_Lin1ELi1EEEEEEENS0_6DomainIJNS3_IN7omnetpp7SimTimeES9_EEEEEE9partitionERKNS0_8IntervalIJSM_EEESt8functionIFvSS_PKNS0_9IFunctionISI_SN_EEEEEUlSS_SX_E_
	_ZTIZNK4inet4math13AddedFunctionINS_5units5valueIdNS2_7composeINS4_INS4_INS4_INS2_5units1mENS4_INS5_2kgENS2_3powINS5_1sELin2ELi1EEEEEEES6_EENS8_IS9_Lin1ELi1EEEEENS8_ISE_Lin1ELi1EEEEEEENS0_6DomainIJNS3_IN7omnetpp7SimTimeES9_EENS3_IdSE_EEEEEE9partitionERKNS0_8IntervalIJSM_SN_EEESt8functionIFvST_PKNS0_9IFunctionISI_SO_EEEEEUlST_SY_E_
	_ZTIZNK4inet4math13AddedFunctionINS_5units5valueIdNS2_7composeINS4_INS4_INS4_INS2_5units1mENS4_INS5_2kgENS2_3powINS5_1sELin2ELi1EEEEEEES6_EENS8_IS9_Lin1ELi1EEEEENS8_ISE_Lin1ELi1EEEEEEENS0_6DomainIJNS3_IdS6_EESK_SK_NS3_IN7omnetpp7SimTimeES9_EENS3_IdSE_EEEEEE9partitionERKNS0_8IntervalIJSK_SK_SK_SN_SO_EEESt8functionIFvSU_PKNS0_9IFunctionISI_SP_EEEEEUlSU_SZ_E_
	_ZTIZNK4inet4math13AddedFunctionIdNS0_6DomainIJNS_5units5valueIN7omnetpp7SimTimeENS3_5units1sEEEEEEE9partitionERKNS0_8IntervalIJS9_EEESt8functionIFvSF_PKNS0_9IFunctionIdSA_EEEEEUlSF_SK_E_
	_ZTIZNK4inet4math13AddedFunctionIdNS0_6DomainIJNS_5units5valueIN7omnetpp7SimTimeENS3_5units1sEEENS4_IdNS3_3powIS8_Lin1ELi1EEEEEEEEE9partitionERKNS0_8IntervalIJS9_SC_EEESt8functionIFvSI_PKNS0_9IFunctionIdSD_EEEEEUlSI_SN_E_
	_ZTIZNK4inet4math13AddedFunctionIdNS0_6DomainIJNS_5units5valueIdNS3_3powINS3_5units1sELin1ELi1EEEEEEEEE9partitionERKNS0_8IntervalIJS9_EEESt8functionIFvSF_PKNS0_9IFunctionIdSA_EEEEEUlSF_SK_E_
	_ZTIZNK4inet4math13AddedFunctionIdNS0_6DomainIJNS_5units5valueIdNS3_5units1mEEES7_S7_NS4_IN7omnetpp7SimTimeENS5_1sEEEEEEE9partitionERKNS0_8IntervalIJS7_S7_S7_SB_EEESt8functionIFvSH_PKNS0_9IFunctionIdSC_EEEEEUlSH_SM_E_
	_ZTIZNK4inet4math13AddedFunctionIdNS0_6DomainIJNS_5units5valueIdNS3_5units1mEEES7_S7_NS4_IN7omnetpp7SimTimeENS5_1sEEENS4_IdNS3_3powISA_Lin1ELi1EEEEEEEEE9partitionERKNS0_8IntervalIJS7_S7_S7_SB_SE_EEESt8functionIFvSK_PKNS0_9IFunctionIdSF_EEEEEUlSK_SP_E_
	_ZTIZNK4inet4math13AddedFunctionIdNS0_6DomainIJNS_5units5valueIdNS3_5units1mEEES7_S7_S7_S7_S7_NS4_IdNS3_3powINS5_1sELin1ELi1EEEEEEEEE9partitionERKNS0_8IntervalIJS7_S7_S7_S7_S7_S7_SB_EEESt8functionIFvSH_PKNS0_9IFunctionIdSC_EEEEEUlSH_SM_E_
	_ZTIZNK4inet4math13AddedFunctionIdNS0_6DomainIJNS_5units5valueIdNS3_7composeINS3_5units1mENS3_3powINS6_1sELin1ELi1EEEEEEENS4_IdS7_EENS4_IdSA_EEEEEE9partitionERKNS0_8IntervalIJSC_SD_SE_EEESt8functionIFvSK_PKNS0_9IFunctionIdSF_EEEEEUlSK_SP_E_
	_ZTIZNK4inet4math14SummedFunctionINS_5units5valueIdNS2_7composeINS4_INS4_INS4_INS2_5units1mENS4_INS5_2kgENS2_3powINS5_1sELin2ELi1EEEEEEES6_EENS8_IS9_Lin1ELi1EEEEENS8_ISE_Lin1ELi1EEEEEEENS0_6DomainIJNS3_IN7omnetpp7SimTimeES9_EENS3_IdSE_EEEEEE9partitionEiRKNS0_8IntervalIJSM_SN_EEESt8functionIFvST_PKNS0_9IFunctionISI_SO_EEEESY_EUlST_SY_E_
	_ZTIZNK4inet4math14SummedFunctionINS_5units5valueIdNS2_7composeINS4_INS4_INS4_INS2_5units1mENS4_INS5_2kgENS2_3powINS5_1sELin2ELi1EEEEEEES6_EENS8_IS9_Lin1ELi1EEEEENS8_ISE_Lin1ELi1EEEEEEENS0_6DomainIJNS3_IdS6_EESK_SK_NS3_IN7omnetpp7SimTimeES9_EENS3_IdSE_EEEEEE9partitionEiRKNS0_8IntervalIJSK_SK_SK_SN_SO_EEESt8functionIFvSU_PKNS0_9IFunctionISI_SP_EEEESZ_EUlSU_SZ_E_
	_ZTIZNK4inet4math15DividedFunctionINS_5units5valueIdNS2_7composeINS4_INS4_INS2_5units1mENS4_INS5_2kgENS2_3powINS5_1sELin2ELi1EEEEEEES6_EENS8_IS9_Lin1ELi1EEEEEEENS0_6DomainIJNS3_IN7omnetpp7SimTimeES9_EEEEEE9partitionERKNS0_8IntervalIJSK_EEESt8functionIFvSQ_PKNS0_9IFunctionIdSL_EEEEEUlSQ_PKNSS_ISG_SL_EEE_
	_ZTIZNK4inet4math15DividedFunctionINS_5units5valueIdNS2_7composeINS4_INS4_INS2_5units1mENS4_INS5_2kgENS2_3powINS5_1sELin2ELi1EEEEEEES6_EENS8_IS9_Lin1ELi1EEEEEEENS0_6DomainIJNS3_IdS6_EESI_SI_NS3_IN7omnetpp7SimTimeES9_EEEEEE9partitionERKNS0_8IntervalIJSI_SI_SI_SL_EEESt8functionIFvSR_PKNS0_9IFunctionIdSM_EEEEEUlSR_PKNST_ISG_SM_EEE_
	_ZTIZNK4inet4math15DividedFunctionINS_5units5valueIdNS2_7composeINS4_INS4_INS4_INS2_5units1mENS4_INS5_2kgENS2_3powINS5_1sELin2ELi1EEEEEEES6_EENS8_IS9_Lin1ELi1EEEEENS8_ISE_Lin1ELi1EEEEEEENS0_6DomainIJNS3_IN7omnetpp7SimTimeES9_EEEEEE9partitionERKNS0_8IntervalIJSM_EEESt8functionIFvSS_PKNS0_9IFunctionIdSN_EEEEEUlSS_PKNSU_ISI_SN_EEE_
	_ZTIZNK4inet4math15DividedFunctionINS_5units5valueIdNS2_7composeINS4_INS4_INS4_INS2_5units1mENS4_INS5_2kgENS2_3powINS5_1sELin2ELi1EEEEEEES6_EENS8_IS9_Lin1ELi1EEEEENS8_ISE_Lin1ELi1EEEEEEENS0_6DomainIJNS3_IN7omnetpp7SimTimeES9_EENS3_IdSE_EEEEEE9partitionERKNS0_8IntervalIJSM_SN_EEESt8functionIFvST_PKNS0_9IFunctionIdSO_EEEEEUlST_PKNSV_ISI_SO_EEE_
	_ZTIZNK4inet4math15DividedFunctionINS_5units5valueIdNS2_7composeINS4_INS4_INS4_INS2_5units1mENS4_INS5_2kgENS2_3powINS5_1sELin2ELi1EEEEEEES6_EENS8_IS9_Lin1ELi1EEEEENS8_ISE_Lin1ELi1EEEEEEENS0_6DomainIJNS3_IdS6_EESK_SK_NS3_IN7omnetpp7SimTimeES9_EENS3_IdSE_EEEEEE9partitionERKNS0_8IntervalIJSK_SK_SK_SN_SO_EEESt8functionIFvSU_PKNS0_9IFunctionIdSP_EEEEEUlSU_PKNSW_ISI_SP_EEE_
	_ZTIZNK4inet4math15DividedFunctionIdNS0_6DomainIJNS_5units5valueIN7omnetpp7SimTimeENS3_5units1sEEEEEEE9partitionERKNS0_8IntervalIJS9_EEESt8functionIFvSF_PKNS0_9IFunctionIdSA_EEEEEUlSF_SK_E_
	_ZTIZNK4inet4math15DividedFunctionIdNS0_6DomainIJNS_5units5valueIN7omnetpp7SimTimeENS3_5units1sEEENS4_IdNS3_3powIS8_Lin1ELi1EEEEEEEEE9partitionERKNS0_8IntervalIJS9_SC_EEESt8functionIFvSI_PKNS0_9IFunctionIdSD_EEEEEUlSI_SN_E_
	_ZTIZNK4inet4math15DividedFunctionIdNS0_6DomainIJNS_5units5valueIdNS3_3powINS3_5units1sELin1ELi1EEEEEEEEE9partitionERKNS0_8IntervalIJS9_EEESt8functionIFvSF_PKNS0_9IFunctionIdSA_EEEEEUlSF_SK_E_
	_ZTIZNK4inet4math15DividedFunctionIdNS0_6DomainIJNS_5units5valueIdNS3_5units1mEEES7_S7_NS4_IN7omnetpp7SimTimeENS5_1sEEEEEEE9partitionERKNS0_8IntervalIJS7_S7_S7_SB_EEESt8functionIFvSH_PKNS0_9IFunctionIdSC_EEEEEUlSH_SM_E_
	_ZTIZNK4inet4math15DividedFunctionIdNS0_6DomainIJNS_5units5valueIdNS3_5units1mEEES7_S7_NS4_IN7omnetpp7SimTimeENS5_1sEEENS4_IdNS3_3powISA_Lin1ELi1EEEEEEEEE9partitionERKNS0_8IntervalIJS7_S7_S7_SB_SE_EEESt8functionIFvSK_PKNS0_9IFunctionIdSF_EEEEEUlSK_SP_E_
	_ZTIZNK4inet4math15DividedFunctionIdNS0_6DomainIJNS_5units5valueIdNS3_5units1mEEES7_S7_S7_S7_S7_NS4_IdNS3_3powINS5_1sELin1ELi1EEEEEEEEE9partitionERKNS0_8IntervalIJS7_S7_S7_S7_S7_S7_SB_EEESt8functionIFvSH_PKNS0_9IFunctionIdSC_EEEEEUlSH_SM_E_
	_ZTIZNK4inet4math15DividedFunctionIdNS0_6DomainIJNS_5units5valueIdNS3_7composeINS3_5units1mENS3_3powINS6_1sELin1ELi1EEEEEEENS4_IdS7_EENS4_IdSA_EEEEEE9partitionERKNS0_8IntervalIJSC_SD_SE_EEESt8functionIFvSK_PKNS0_9IFunctionIdSF_EEEEEUlSK_SP_E_
	_ZTIZNK4inet4math18Combined2DFunctionINS_5units5valueIdNS2_7composeINS4_INS4_INS4_INS2_5units1mENS4_INS5_2kgENS2_3powINS5_1sELin2ELi1EEEEEEES6_EENS8_IS9_Lin1ELi1EEEEENS8_ISE_Lin1ELi1EEEEEEENS3_IN7omnetpp7SimTimeES9_EENS3_IdSE_EEE9partitionERKNS0_8IntervalIJSL_SM_EEESt8functionIFvSR_PKNS0_9IFunctionISI_NS0_6DomainIJSL_SM_EEEEEEEEUlRKNSO_IJSL_EEEPKNST_ISI_NSU_IJSL_EEEEEE_
	_ZTIZNK4inet4math18Combined2DFunctionIdNS_5units5valueIN7omnetpp7SimTimeENS2_5units1sEEENS3_IdNS2_3powIS7_Lin1ELi1EEEEEE9partitionERKNS0_8IntervalIJS8_SB_EEESt8functionIFvSG_PKNS0_9IFunctionIdNS0_6DomainIJS8_SB_EEEEEEEEUlRKNSD_IJS8_EEEPKNSI_IdNSJ_IJS8_EEEEEE_
	_ZTIZNK4inet4math18IntegratedFunctionINS_5units5valueIdNS2_7composeINS4_INS4_INS4_INS2_5units1mENS4_INS5_2kgENS2_3powINS5_1sELin2ELi1EEEEEEES6_EENS8_IS9_Lin1ELi1EEEEENS8_ISE_Lin1ELi1EEEEEEENS0_6DomainIJNS3_IN7omnetpp7SimTimeES9_EENS3_IdSE_EEEEELi2ENS3_IdSF_EENSJ_IJSM_EEEE8getValueERKNS0_5PointIJSM_EEEEUlRKNS0_8IntervalIJSM_SN_EEEPKNS0_9IFunctionISI_SO_EEE_
	_ZTIZNK4inet4math18IntegratedFunctionINS_5units5valueIdNS2_7composeINS4_INS4_INS4_INS2_5units1mENS4_INS5_2kgENS2_3powINS5_1sELin2ELi1EEEEEEES6_EENS8_IS9_Lin1ELi1EEEEENS8_ISE_Lin1ELi1EEEEEEENS0_6DomainIJNS3_IN7omnetpp7SimTimeES9_EENS3_IdSE_EEEEELi2ENS3_IdSF_EENSJ_IJSM_EEEE9partitionERKNS0_8IntervalIJSM_EEESt8functionIFvSV_PKNS0_9IFunctionISP_SQ_EEEEEUlRKNSS_IJSM_SN_EEEPKNSX_ISI_SO_EEE0_
	_ZTIZNK4inet4math18IntegratedFunctionINS_5units5valueIdNS2_7composeINS4_INS4_INS4_INS2_5units1mENS4_INS5_2kgENS2_3powINS5_1sELin2ELi1EEEEEEES6_EENS8_IS9_Lin1ELi1EEEEENS8_ISE_Lin1ELi1EEEEEEENS0_6DomainIJNS3_IN7omnetpp7SimTimeES9_EENS3_IdSE_EEEEELi2ENS3_IdSF_EENSJ_IJSM_EEEE9partitionERKNS0_8IntervalIJSM_EEESt8functionIFvSV_PKNS0_9IFunctionISP_SQ_EEEEEUlRKNSS_IJSM_SN_EEEPKNSX_ISI_SO_EEE_
	_ZTIZNK4inet4math18IntegratedFunctionINS_5units5valueIdNS2_7composeINS4_INS4_INS4_INS2_5units1mENS4_INS5_2kgENS2_3powINS5_1sELin2ELi1EEEEEEES6_EENS8_IS9_Lin1ELi1EEEEENS8_ISE_Lin1ELi1EEEEEEENS0_6DomainIJNS3_IdS6_EESK_SK_NS3_IN7omnetpp7SimTimeES9_EENS3_IdSE_EEEEELi30ENS3_IdSF_EENSJ_IJSK_SK_SK_SN_EEEE8getValueERKNS0_5PointIJSK_SK_SK_SN_EEEEUlRKNS0_8IntervalIJSK_SK_SK_SN_SO_EEEPKNS0_9IFunctionISI_SP_EEE_
	_ZTIZNK4inet4math18MultipliedFunctionINS_5units5valueIdNS2_7composeINS4_INS4_INS2_5units1mENS4_INS5_2kgENS2_3powINS5_1sELin2ELi1EEEEEEES6_EENS8_IS9_Lin1ELi1EEEEEEENS0_6DomainIJNS3_IN7omnetpp7SimTimeES9_EEEEEE9partitionERKNS0_8IntervalIJSK_EEESt8functionIFvSQ_PKNS0_9IFunctionISG_SL_EEEEEUlSQ_SV_E_
	_ZTIZNK4inet4math18MultipliedFunctionINS_5units5valueIdNS2_7composeINS4_INS4_INS2_5units1mENS4_INS5_2kgENS2_3powINS5_1sELin2ELi1EEEEEEES6_EENS8_IS9_Lin1ELi1EEEEEEENS0_6DomainIJNS3_IdS6_EESI_SI_NS3_IN7omnetpp7SimTimeES9_EEEEEE9partitionERKNS0_8IntervalIJSI_SI_SI_SL_EEESt8functionIFvSR_PKNS0_9IFunctionISG_SM_EEEEEUlSR_SW_E_
	_ZTIZNK4inet4math18MultipliedFunctionINS_5units5valueIdNS2_7composeINS4_INS4_INS4_INS2_5units1mENS4_INS5_2kgENS2_3powINS5_1sELin2ELi1EEEEEEES6_EENS8_IS9_Lin1ELi1EEEEENS8_ISE_Lin1ELi1EEEEEEENS0_6DomainIJNS3_IN7omnetpp7SimTimeES9_EEEEEE9partitionERKNS0_8IntervalIJSM_EEESt8functionIFvSS_PKNS0_9IFunctionISI_SN_EEEEEUlSS_SX_E_
	_ZTIZNK4inet4math18MultipliedFunctionINS_5units5valueIdNS2_7composeINS4_INS4_INS4_INS2_5units1mENS4_INS5_2kgENS2_3powINS5_1sELin2ELi1EEEEEEES6_EENS8_IS9_Lin1ELi1EEEEENS8_ISE_Lin1ELi1EEEEEEENS0_6DomainIJNS3_IN7omnetpp7SimTimeES9_EENS3_IdSE_EEEEEE9partitionERKNS0_8IntervalIJSM_SN_EEESt8functionIFvST_PKNS0_9IFunctionISI_SO_EEEEEUlST_SY_E_
	_ZTIZNK4inet4math18MultipliedFunctionINS_5units5valueIdNS2_7composeINS4_INS4_INS4_INS2_5units1mENS4_INS5_2kgENS2_3powINS5_1sELin2ELi1EEEEEEES6_EENS8_IS9_Lin1ELi1EEEEENS8_ISE_Lin1ELi1EEEEEEENS0_6DomainIJNS3_IdS6_EESK_SK_NS3_IN7omnetpp7SimTimeES9_EENS3_IdSE_EEEEEE9partitionERKNS0_8IntervalIJSK_SK_SK_SN_SO_EEESt8functionIFvSU_PKNS0_9IFunctionISI_SP_EEEEEUlSU_SZ_E_
	_ZTIZNK4inet4math18MultipliedFunctionIdNS0_6DomainIJNS_5units5valueIN7omnetpp7SimTimeENS3_5units1sEEEEEEE9partitionERKNS0_8IntervalIJS9_EEESt8functionIFvSF_PKNS0_9IFunctionIdSA_EEEEEUlSF_SK_E_
	_ZTIZNK4inet4math18MultipliedFunctionIdNS0_6DomainIJNS_5units5valueIN7omnetpp7SimTimeENS3_5units1sEEENS4_IdNS3_3powIS8_Lin1ELi1EEEEEEEEE9partitionERKNS0_8IntervalIJS9_SC_EEESt8functionIFvSI_PKNS0_9IFunctionIdSD_EEEEEUlSI_SN_E_
	_ZTIZNK4inet4math18MultipliedFunctionIdNS0_6DomainIJNS_5units5valueIdNS3_3powINS3_5units1sELin1ELi1EEEEEEEEE9partitionERKNS0_8IntervalIJS9_EEESt8functionIFvSF_PKNS0_9IFunctionIdSA_EEEEEUlSF_SK_E_
	_ZTIZNK4inet4math18MultipliedFunctionIdNS0_6DomainIJNS_5units5valueIdNS3_5units1mEEES7_S7_NS4_IN7omnetpp7SimTimeENS5_1sEEEEEEE9partitionERKNS0_8IntervalIJS7_S7_S7_SB_EEESt8functionIFvSH_PKNS0_9IFunctionIdSC_EEEEEUlSH_SM_E_
	_ZTIZNK4inet4math18MultipliedFunctionIdNS0_6DomainIJNS_5units5valueIdNS3_5units1mEEES7_S7_NS4_IN7omnetpp7SimTimeENS5_1sEEENS4_IdNS3_3powISA_Lin1ELi1EEEEEEEEE9partitionERKNS0_8IntervalIJS7_S7_S7_SB_SE_EEESt8functionIFvSK_PKNS0_9IFunctionIdSF_EEEEEUlSK_SP_E_
	_ZTIZNK4inet4math18MultipliedFunctionIdNS0_6DomainIJNS_5units5valueIdNS3_5units1mEEES7_S7_S7_S7_S7_NS4_IdNS3_3powINS5_1sELin1ELi1EEEEEEEEE9partitionERKNS0_8IntervalIJS7_S7_S7_S7_S7_S7_SB_EEESt8functionIFvSH_PKNS0_9IFunctionIdSC_EEEEEUlSH_SM_E_
	_ZTIZNK4inet4math18MultipliedFunctionIdNS0_6DomainIJNS_5units5valueIdNS3_7composeINS3_5units1mENS3_3powINS6_1sELin1ELi1EEEEEEENS4_IdS7_EENS4_IdSA_EEEEEE9partitionERKNS0_8IntervalIJSC_SD_SE_EEESt8functionIFvSK_PKNS0_9IFunctionIdSF_EEEEEUlSK_SP_E_
	_ZTIZNK4inet4math18SubtractedFunctionINS_5units5valueIdNS2_7composeINS4_INS4_INS2_5units1mENS4_INS5_2kgENS2_3powINS5_1sELin2ELi1EEEEEEES6_EENS8_IS9_Lin1ELi1EEEEEEENS0_6DomainIJNS3_IN7omnetpp7SimTimeES9_EEEEEE9partitionERKNS0_8IntervalIJSK_EEESt8functionIFvSQ_PKNS0_9IFunctionISG_SL_EEEEEUlSQ_SV_E_
	_ZTIZNK4inet4math18SubtractedFunctionINS_5units5valueIdNS2_7composeINS4_INS4_INS2_5units1mENS4_INS5_2kgENS2_3powINS5_1sELin2ELi1EEEEEEES6_EENS8_IS9_Lin1ELi1EEEEEEENS0_6DomainIJNS3_IdS6_EESI_SI_NS3_IN7omnetpp7SimTimeES9_EEEEEE9partitionERKNS0_8IntervalIJSI_SI_SI_SL_EEESt8functionIFvSR_PKNS0_9IFunctionISG_SM_EEEEEUlSR_SW_E_
	_ZTIZNK4inet4math18SubtractedFunctionINS_5units5valueIdNS2_7composeINS4_INS4_INS4_INS2_5units1mENS4_INS5_2kgENS2_3powINS5_1sELin2ELi1EEEEEEES6_EENS8_IS9_Lin1ELi1EEEEENS8_ISE_Lin1ELi1EEEEEEENS0_6DomainIJNS3_IN7omnetpp7SimTimeES9_EEEEEE9partitionERKNS0_8IntervalIJSM_EEESt8functionIFvSS_PKNS0_9IFunctionISI_SN_EEEEEUlSS_SX_E_
	_ZTIZNK4inet4math18SubtractedFunctionINS_5units5valueIdNS2_7composeINS4_INS4_INS4_INS2_5units1mENS4_INS5_2kgENS2_3powINS5_1sELin2ELi1EEEEEEES6_EENS8_IS9_Lin1ELi1EEEEENS8_ISE_Lin1ELi1EEEEEEENS0_6DomainIJNS3_IN7omnetpp7SimTimeES9_EENS3_IdSE_EEEEEE9partitionERKNS0_8IntervalIJSM_SN_EEESt8functionIFvST_PKNS0_9IFunctionISI_SO_EEEEEUlST_SY_E_
	_ZTIZNK4inet4math18SubtractedFunctionINS_5units5valueIdNS2_7composeINS4_INS4_INS4_INS2_5units1mENS4_INS5_2kgENS2_3powINS5_1sELin2ELi1EEEEEEES6_EENS8_IS9_Lin1ELi1EEEEENS8_ISE_Lin1ELi1EEEEEEENS0_6DomainIJNS3_IdS6_EESK_SK_NS3_IN7omnetpp7SimTimeES9_EENS3_IdSE_EEEEEE9partitionERKNS0_8IntervalIJSK_SK_SK_SN_SO_EEESt8functionIFvSU_PKNS0_9IFunctionISI_SP_EEEEEUlSU_SZ_E_
	_ZTIZNK4inet4math18SubtractedFunctionIdNS0_6DomainIJNS_5units5valueIN7omnetpp7SimTimeENS3_5units1sEEEEEEE9partitionERKNS0_8IntervalIJS9_EEESt8functionIFvSF_PKNS0_9IFunctionIdSA_EEEEEUlSF_SK_E_
	_ZTIZNK4inet4math18SubtractedFunctionIdNS0_6DomainIJNS_5units5valueIN7omnetpp7SimTimeENS3_5units1sEEENS4_IdNS3_3powIS8_Lin1ELi1EEEEEEEEE9partitionERKNS0_8IntervalIJS9_SC_EEESt8functionIFvSI_PKNS0_9IFunctionIdSD_EEEEEUlSI_SN_E_
	_ZTIZNK4inet4math18SubtractedFunctionIdNS0_6DomainIJNS_5units5valueIdNS3_3powINS3_5units1sELin1ELi1EEEEEEEEE9partitionERKNS0_8IntervalIJS9_EEESt8functionIFvSF_PKNS0_9IFunctionIdSA_EEEEEUlSF_SK_E_
	_ZTIZNK4inet4math18SubtractedFunctionIdNS0_6DomainIJNS_5units5valueIdNS3_5units1mEEES7_S7_NS4_IN7omnetpp7SimTimeENS5_1sEEEEEEE9partitionERKNS0_8IntervalIJS7_S7_S7_SB_EEESt8functionIFvSH_PKNS0_9IFunctionIdSC_EEEEEUlSH_SM_E_
	_ZTIZNK4inet4math18SubtractedFunctionIdNS0_6DomainIJNS_5units5valueIdNS3_5units1mEEES7_S7_NS4_IN7omnetpp7SimTimeENS5_1sEEENS4_IdNS3_3powISA_Lin1ELi1EEEEEEEEE9partitionERKNS0_8IntervalIJS7_S7_S7_SB_SE_EEESt8functionIFvSK_PKNS0_9IFunctionIdSF_EEEEEUlSK_SP_E_
	_ZTIZNK4inet4math18SubtractedFunctionIdNS0_6DomainIJNS_5units5valueIdNS3_5units1mEEES7_S7_S7_S7_S7_NS4_IdNS3_3powINS5_1sELin1ELi1EEEEEEEEE9partitionERKNS0_8IntervalIJS7_S7_S7_S7_S7_S7_SB_EEESt8functionIFvSH_PKNS0_9IFunctionIdSC_EEEEEUlSH_SM_E_
	_ZTIZNK4inet4math18SubtractedFunctionIdNS0_6DomainIJNS_5units5valueIdNS3_7composeINS3_5units1mENS3_3powINS6_1sELin1ELi1EEEEEEENS4_IdS7_EENS4_IdSA_EEEEEE9partitionERKNS0_8IntervalIJSC_SD_SE_EEESt8functionIFvSK_PKNS0_9IFunctionIdSF_EEEEEUlSK_SP_E_
	_ZTIZNK4inet4math20ApproximatedFunctionINS_5units5valueIdNS2_7composeINS4_INS4_INS4_INS2_5units1mENS4_INS5_2kgENS2_3powINS5_1sELin2ELi1EEEEEEES6_EENS8_IS9_Lin1ELi1EEEEENS8_ISE_Lin1ELi1EEEEEEENS0_6DomainIJNS3_IdS6_EESK_SK_NS3_IN7omnetpp7SimTimeES9_EENS3_IdSE_EEEEELi0ESK_E9partitionERKNS0_8IntervalIJSK_SK_SK_SN_SO_EEESt8functionIFvSU_PKNS0_9IFunctionISI_SP_EEEEEUlSU_SZ_E0_
	_ZTIZNK4inet4math20ApproximatedFunctionINS_5units5valueIdNS2_7composeINS4_INS4_INS4_INS2_5units1mENS4_INS5_2kgENS2_3powINS5_1sELin2ELi1EEEEEEES6_EENS8_IS9_Lin1ELi1EEEEENS8_ISE_Lin1ELi1EEEEEEENS0_6DomainIJNS3_IdS6_EESK_SK_NS3_IN7omnetpp7SimTimeES9_EENS3_IdSE_EEEEELi0ESK_E9partitionERKNS0_8IntervalIJSK_SK_SK_SN_SO_EEESt8functionIFvSU_PKNS0_9IFunctionISI_SP_EEEEEUlSU_SZ_E1_
	_ZTIZNK4inet4math20ApproximatedFunctionINS_5units5valueIdNS2_7composeINS4_INS4_INS4_INS2_5units1mENS4_INS5_2kgENS2_3powINS5_1sELin2ELi1EEEEEEES6_EENS8_IS9_Lin1ELi1EEEEENS8_ISE_Lin1ELi1EEEEEEENS0_6DomainIJNS3_IdS6_EESK_SK_NS3_IN7omnetpp7SimTimeES9_EENS3_IdSE_EEEEELi0ESK_E9partitionERKNS0_8IntervalIJSK_SK_SK_SN_SO_EEESt8functionIFvSU_PKNS0_9IFunctionISI_SP_EEEEEUlSU_SZ_E_
	_ZTIZNK4inet4math20ApproximatedFunctionINS_5units5valueIdNS2_7composeINS4_INS4_INS4_INS2_5units1mENS4_INS5_2kgENS2_3powINS5_1sELin2ELi1EEEEEEES6_EENS8_IS9_Lin1ELi1EEEEENS8_ISE_Lin1ELi1EEEEEEENS0_6DomainIJNS3_IdS6_EESK_SK_NS3_IN7omnetpp7SimTimeES9_EENS3_IdSE_EEEEELi1ESK_E9partitionERKNS0_8IntervalIJSK_SK_SK_SN_SO_EEESt8functionIFvSU_PKNS0_9IFunctionISI_SP_EEEEEUlSU_SZ_E0_
	_ZTIZNK4inet4math20ApproximatedFunctionINS_5units5valueIdNS2_7composeINS4_INS4_INS4_INS2_5units1mENS4_INS5_2kgENS2_3powINS5_1sELin2ELi1EEEEEEES6_EENS8_IS9_Lin1ELi1EEEEENS8_ISE_Lin1ELi1EEEEEEENS0_6DomainIJNS3_IdS6_EESK_SK_NS3_IN7omnetpp7SimTimeES9_EENS3_IdSE_EEEEELi1ESK_E9partitionERKNS0_8IntervalIJSK_SK_SK_SN_SO_EEESt8functionIFvSU_PKNS0_9IFunctionISI_SP_EEEEEUlSU_SZ_E1_
	_ZTIZNK4inet4math20ApproximatedFunctionINS_5units5valueIdNS2_7composeINS4_INS4_INS4_INS2_5units1mENS4_INS5_2kgENS2_3powINS5_1sELin2ELi1EEEEEEES6_EENS8_IS9_Lin1ELi1EEEEENS8_ISE_Lin1ELi1EEEEEEENS0_6DomainIJNS3_IdS6_EESK_SK_NS3_IN7omnetpp7SimTimeES9_EENS3_IdSE_EEEEELi1ESK_E9partitionERKNS0_8IntervalIJSK_SK_SK_SN_SO_EEESt8functionIFvSU_PKNS0_9IFunctionISI_SP_EEEEEUlSU_SZ_E_
	_ZTIZNK4inet4math20ApproximatedFunctionIdNS0_6DomainIJNS_5units5valueIN7omnetpp7SimTimeENS3_5units1sEEENS4_IdNS3_3powIS8_Lin1ELi1EEEEEEEELi1ESC_E9partitionERKNS0_8IntervalIJS9_SC_EEESt8functionIFvSI_PKNS0_9IFunctionIdSD_EEEEEUlSI_SN_E0_
	_ZTIZNK4inet4math20ApproximatedFunctionIdNS0_6DomainIJNS_5units5valueIN7omnetpp7SimTimeENS3_5units1sEEENS4_IdNS3_3powIS8_Lin1ELi1EEEEEEEELi1ESC_E9partitionERKNS0_8IntervalIJS9_SC_EEESt8functionIFvSI_PKNS0_9IFunctionIdSD_EEEEEUlSI_SN_E1_
	_ZTIZNK4inet4math20ApproximatedFunctionIdNS0_6DomainIJNS_5units5valueIN7omnetpp7SimTimeENS3_5units1sEEENS4_IdNS3_3powIS8_Lin1ELi1EEEEEEEELi1ESC_E9partitionERKNS0_8IntervalIJS9_SC_EEESt8functionIFvSI_PKNS0_9IFunctionIdSD_EEEEEUlSI_SN_E_
	_ZTIZNK4inet4math20ApproximatedFunctionIdNS0_6DomainIJNS_5units5valueIdNS3_5units1mEEES7_S7_NS4_IN7omnetpp7SimTimeENS5_1sEEENS4_IdNS3_3powISA_Lin1ELi1EEEEEEEELi4ESE_E9partitionERKNS0_8IntervalIJS7_S7_S7_SB_SE_EEESt8functionIFvSK_PKNS0_9IFunctionIdSF_EEEEEUlSK_SP_E0_
	_ZTIZNK4inet4math20ApproximatedFunctionIdNS0_6DomainIJNS_5units5valueIdNS3_5units1mEEES7_S7_NS4_IN7omnetpp7SimTimeENS5_1sEEENS4_IdNS3_3powISA_Lin1ELi1EEEEEEEELi4ESE_E9partitionERKNS0_8IntervalIJS7_S7_S7_SB_SE_EEESt8functionIFvSK_PKNS0_9IFunctionIdSF_EEEEEUlSK_SP_E1_
	_ZTIZNK4inet4math20ApproximatedFunctionIdNS0_6DomainIJNS_5units5valueIdNS3_5units1mEEES7_S7_NS4_IN7omnetpp7SimTimeENS5_1sEEENS4_IdNS3_3powISA_Lin1ELi1EEEEEEEELi4ESE_E9partitionERKNS0_8IntervalIJS7_S7_S7_SB_SE_EEESt8functionIFvSK_PKNS0_9IFunctionIdSF_EEEEEUlSK_SP_E_
	_ZTIZNK4inet4math21DomainShiftedFunctionINS_5units5valueIdNS2_7composeINS4_INS4_INS4_INS2_5units1mENS4_INS5_2kgENS2_3powINS5_1sELin2ELi1EEEEEEES6_EENS8_IS9_Lin1ELi1EEEEENS8_ISE_Lin1ELi1EEEEEEENS0_6DomainIJNS3_IN7omnetpp7SimTimeES9_EENS3_IdSE_EEEEEE9partitionERKNS0_8IntervalIJSM_SN_EEESt8functionIFvST_PKNS0_9IFunctionISI_SO_EEEEEUlST_SY_E_
	_ZTIZNK4inet4math21DomainShiftedFunctionIdNS0_6DomainIJNS_5units5valueIN7omnetpp7SimTimeENS3_5units1sEEENS4_IdNS3_3powIS8_Lin1ELi1EEEEEEEEE9partitionERKNS0_8IntervalIJS9_SC_EEESt8functionIFvSI_PKNS0_9IFunctionIdSD_EEEEEUlSI_SN_E_
	_ZTIZZNK4inet4math13AddedFunctionINS_5units5valueIdNS2_7composeINS4_INS4_INS2_5units1mENS4_INS5_2kgENS2_3powINS5_1sELin2ELi1EEEEEEES6_EENS8_IS9_Lin1ELi1EEEEEEENS0_6DomainIJNS3_IN7omnetpp7SimTimeES9_EEEEEE9partitionERKNS0_8IntervalIJSK_EEESt8functionIFvSQ_PKNS0_9IFunctionISG_SL_EEEEENKUlSQ_SV_E_clESQ_SV_EUlSQ_SV_E_
	_ZTIZZNK4inet4math13AddedFunctionINS_5units5valueIdNS2_7composeINS4_INS4_INS2_5units1mENS4_INS5_2kgENS2_3powINS5_1sELin2ELi1EEEEEEES6_EENS8_IS9_Lin1ELi1EEEEEEENS0_6DomainIJNS3_IdS6_EESI_SI_NS3_IN7omnetpp7SimTimeES9_EEEEEE9partitionERKNS0_8IntervalIJSI_SI_SI_SL_EEESt8functionIFvSR_PKNS0_9IFunctionISG_SM_EEEEENKUlSR_SW_E_clESR_SW_EUlSR_SW_E_
	_ZTIZZNK4inet4math13AddedFunctionINS_5units5valueIdNS2_7composeINS4_INS4_INS4_INS2_5units1mENS4_INS5_2kgENS2_3powINS5_1sELin2ELi1EEEEEEES6_EENS8_IS9_Lin1ELi1EEEEENS8_ISE_Lin1ELi1EEEEEEENS0_6DomainIJNS3_IN7omnetpp7SimTimeES9_EEEEEE9partitionERKNS0_8IntervalIJSM_EEESt8functionIFvSS_PKNS0_9IFunctionISI_SN_EEEEENKUlSS_SX_E_clESS_SX_EUlSS_SX_E_
	_ZTIZZNK4inet4math13AddedFunctionINS_5units5valueIdNS2_7composeINS4_INS4_INS4_INS2_5units1mENS4_INS5_2kgENS2_3powINS5_1sELin2ELi1EEEEEEES6_EENS8_IS9_Lin1ELi1EEEEENS8_ISE_Lin1ELi1EEEEEEENS0_6DomainIJNS3_IN7omnetpp7SimTimeES9_EENS3_IdSE_EEEEEE9partitionERKNS0_8IntervalIJSM_SN_EEESt8functionIFvST_PKNS0_9IFunctionISI_SO_EEEEENKUlST_SY_E_clEST_SY_EUlST_SY_E_
	_ZTIZZNK4inet4math13AddedFunctionINS_5units5valueIdNS2_7composeINS4_INS4_INS4_INS2_5units1mENS4_INS5_2kgENS2_3powINS5_1sELin2ELi1EEEEEEES6_EENS8_IS9_Lin1ELi1EEEEENS8_ISE_Lin1ELi1EEEEEEENS0_6DomainIJNS3_IdS6_EESK_SK_NS3_IN7omnetpp7SimTimeES9_EENS3_IdSE_EEEEEE9partitionERKNS0_8IntervalIJSK_SK_SK_SN_SO_EEESt8functionIFvSU_PKNS0_9IFunctionISI_SP_EEEEENKUlSU_SZ_E_clESU_SZ_EUlSU_SZ_E_
	_ZTIZZNK4inet4math13AddedFunctionIdNS0_6DomainIJNS_5units5valueIN7omnetpp7SimTimeENS3_5units1sEEEEEEE9partitionERKNS0_8IntervalIJS9_EEESt8functionIFvSF_PKNS0_9IFunctionIdSA_EEEEENKUlSF_SK_E_clESF_SK_EUlSF_SK_E_
	_ZTIZZNK4inet4math13AddedFunctionIdNS0_6DomainIJNS_5units5valueIN7omnetpp7SimTimeENS3_5units1sEEENS4_IdNS3_3powIS8_Lin1ELi1EEEEEEEEE9partitionERKNS0_8IntervalIJS9_SC_EEESt8functionIFvSI_PKNS0_9IFunctionIdSD_EEEEENKUlSI_SN_E_clESI_SN_EUlSI_SN_E_
	_ZTIZZNK4inet4math13AddedFunctionIdNS0_6DomainIJNS_5units5valueIdNS3_3powINS3_5units1sELin1ELi1EEEEEEEEE9partitionERKNS0_8IntervalIJS9_EEESt8functionIFvSF_PKNS0_9IFunctionIdSA_EEEEENKUlSF_SK_E_clESF_SK_EUlSF_SK_E_
	_ZTIZZNK4inet4math13AddedFunctionIdNS0_6DomainIJNS_5units5valueIdNS3_5units1mEEES7_S7_NS4_IN7omnetpp7SimTimeENS5_1sEEEEEEE9partitionERKNS0_8IntervalIJS7_S7_S7_SB_EEESt8functionIFvSH_PKNS0_9IFunctionIdSC_EEEEENKUlSH_SM_E_clESH_SM_EUlSH_SM_E_
	_ZTIZZNK4inet4math13AddedFunctionIdNS0_6DomainIJNS_5units5valueIdNS3_5units1mEEES7_S7_NS4_IN7omnetpp7SimTimeENS5_1sEEENS4_IdNS3_3powISA_Lin1ELi1EEEEEEEEE9partitionERKNS0_8IntervalIJS7_S7_S7_SB_SE_EEESt8functionIFvSK_PKNS0_9IFunctionIdSF_EEEEENKUlSK_SP_E_clESK_SP_EUlSK_SP_E_
	_ZTIZZNK4inet4math13AddedFunctionIdNS0_6DomainIJNS_5units5valueIdNS3_5units1mEEES7_S7_S7_S7_S7_NS4_IdNS3_3powINS5_1sELin1ELi1EEEEEEEEE9partitionERKNS0_8IntervalIJS7_S7_S7_S7_S7_S7_SB_EEESt8functionIFvSH_PKNS0_9IFunctionIdSC_EEEEENKUlSH_SM_E_clESH_SM_EUlSH_SM_E_
	_ZTIZZNK4inet4math13AddedFunctionIdNS0_6DomainIJNS_5units5valueIdNS3_7composeINS3_5units1mENS3_3powINS6_1sELin1ELi1EEEEEEENS4_IdS7_EENS4_IdSA_EEEEEE9partitionERKNS0_8IntervalIJSC_SD_SE_EEESt8functionIFvSK_PKNS0_9IFunctionIdSF_EEEEENKUlSK_SP_E_clESK_SP_EUlSK_SP_E_
	_ZTIZZNK4inet4math15DividedFunctionINS_5units5valueIdNS2_7composeINS4_INS4_INS2_5units1mENS4_INS5_2kgENS2_3powINS5_1sELin2ELi1EEEEEEES6_EENS8_IS9_Lin1ELi1EEEEEEENS0_6DomainIJNS3_IN7omnetpp7SimTimeES9_EEEEEE9partitionERKNS0_8IntervalIJSK_EEESt8functionIFvSQ_PKNS0_9IFunctionIdSL_EEEEENKUlSQ_PKNSS_ISG_SL_EEE_clESQ_S10_EUlSQ_S10_E_
	_ZTIZZNK4inet4math15DividedFunctionINS_5units5valueIdNS2_7composeINS4_INS4_INS2_5units1mENS4_INS5_2kgENS2_3powINS5_1sELin2ELi1EEEEEEES6_EENS8_IS9_Lin1ELi1EEEEEEENS0_6DomainIJNS3_IdS6_EESI_SI_NS3_IN7omnetpp7SimTimeES9_EEEEEE9partitionERKNS0_8IntervalIJSI_SI_SI_SL_EEESt8functionIFvSR_PKNS0_9IFunctionIdSM_EEEEENKUlSR_PKNST_ISG_SM_EEE_clESR_S11_EUlSR_S11_E_
	_ZTIZZNK4inet4math15DividedFunctionINS_5units5valueIdNS2_7composeINS4_INS4_INS4_INS2_5units1mENS4_INS5_2kgENS2_3powINS5_1sELin2ELi1EEEEEEES6_EENS8_IS9_Lin1ELi1EEEEENS8_ISE_Lin1ELi1EEEEEEENS0_6DomainIJNS3_IN7omnetpp7SimTimeES9_EEEEEE9partitionERKNS0_8IntervalIJSM_EEESt8functionIFvSS_PKNS0_9IFunctionIdSN_EEEEENKUlSS_PKNSU_ISI_SN_EEE_clESS_S12_EUlSS_S12_E_
	_ZTIZZNK4inet4math15DividedFunctionINS_5units5valueIdNS2_7composeINS4_INS4_INS4_INS2_5units1mENS4_INS5_2kgENS2_3powINS5_1sELin2ELi1EEEEEEES6_EENS8_IS9_Lin1ELi1EEEEENS8_ISE_Lin1ELi1EEEEEEENS0_6DomainIJNS3_IN7omnetpp7SimTimeES9_EENS3_IdSE_EEEEEE9partitionERKNS0_8IntervalIJSM_SN_EEESt8functionIFvST_PKNS0_9IFunctionIdSO_EEEEENKUlST_PKNSV_ISI_SO_EEE_clEST_S13_EUlST_S13_E_
	_ZTIZZNK4inet4math15DividedFunctionINS_5units5valueIdNS2_7composeINS4_INS4_INS4_INS2_5units1mENS4_INS5_2kgENS2_3powINS5_1sELin2ELi1EEEEEEES6_EENS8_IS9_Lin1ELi1EEEEENS8_ISE_Lin1ELi1EEEEEEENS0_6DomainIJNS3_IdS6_EESK_SK_NS3_IN7omnetpp7SimTimeES9_EENS3_IdSE_EEEEEE9partitionERKNS0_8IntervalIJSK_SK_SK_SN_SO_EEESt8functionIFvSU_PKNS0_9IFunctionIdSP_EEEEENKUlSU_PKNSW_ISI_SP_EEE_clESU_S14_EUlSU_S14_E_
	_ZTIZZNK4inet4math15DividedFunctionIdNS0_6DomainIJNS_5units5valueIN7omnetpp7SimTimeENS3_5units1sEEEEEEE9partitionERKNS0_8IntervalIJS9_EEESt8functionIFvSF_PKNS0_9IFunctionIdSA_EEEEENKUlSF_SK_E_clESF_SK_EUlSF_SK_E_
	_ZTIZZNK4inet4math15DividedFunctionIdNS0_6DomainIJNS_5units5valueIN7omnetpp7SimTimeENS3_5units1sEEENS4_IdNS3_3powIS8_Lin1ELi1EEEEEEEEE9partitionERKNS0_8IntervalIJS9_SC_EEESt8functionIFvSI_PKNS0_9IFunctionIdSD_EEEEENKUlSI_SN_E_clESI_SN_EUlSI_SN_E_
	_ZTIZZNK4inet4math15DividedFunctionIdNS0_6DomainIJNS_5units5valueIdNS3_3powINS3_5units1sELin1ELi1EEEEEEEEE9partitionERKNS0_8IntervalIJS9_EEESt8functionIFvSF_PKNS0_9IFunctionIdSA_EEEEENKUlSF_SK_E_clESF_SK_EUlSF_SK_E_
	_ZTIZZNK4inet4math15DividedFunctionIdNS0_6DomainIJNS_5units5valueIdNS3_5units1mEEES7_S7_NS4_IN7omnetpp7SimTimeENS5_1sEEEEEEE9partitionERKNS0_8IntervalIJS7_S7_S7_SB_EEESt8functionIFvSH_PKNS0_9IFunctionIdSC_EEEEENKUlSH_SM_E_clESH_SM_EUlSH_SM_E_
	_ZTIZZNK4inet4math15DividedFunctionIdNS0_6DomainIJNS_5units5valueIdNS3_5units1mEEES7_S7_NS4_IN7omnetpp7SimTimeENS5_1sEEENS4_IdNS3_3powISA_Lin1ELi1EEEEEEEEE9partitionERKNS0_8IntervalIJS7_S7_S7_SB_SE_EEESt8functionIFvSK_PKNS0_9IFunctionIdSF_EEEEENKUlSK_SP_E_clESK_SP_EUlSK_SP_E_
	_ZTIZZNK4inet4math15DividedFunctionIdNS0_6DomainIJNS_5units5valueIdNS3_5units1mEEES7_S7_S7_S7_S7_NS4_IdNS3_3powINS5_1sELin1ELi1EEEEEEEEE9partitionERKNS0_8IntervalIJS7_S7_S7_S7_S7_S7_SB_EEESt8functionIFvSH_PKNS0_9IFunctionIdSC_EEEEENKUlSH_SM_E_clESH_SM_EUlSH_SM_E_
	_ZTIZZNK4inet4math15DividedFunctionIdNS0_6DomainIJNS_5units5valueIdNS3_7composeINS3_5units1mENS3_3powINS6_1sELin1ELi1EEEEEEENS4_IdS7_EENS4_IdSA_EEEEEE9partitionERKNS0_8IntervalIJSC_SD_SE_EEESt8functionIFvSK_PKNS0_9IFunctionIdSF_EEEEENKUlSK_SP_E_clESK_SP_EUlSK_SP_E_
	_ZTIZZNK4inet4math18Combined2DFunctionINS_5units5valueIdNS2_7composeINS4_INS4_INS4_INS2_5units1mENS4_INS5_2kgENS2_3powINS5_1sELin2ELi1EEEEEEES6_EENS8_IS9_Lin1ELi1EEEEENS8_ISE_Lin1ELi1EEEEEEENS3_IN7omnetpp7SimTimeES9_EENS3_IdSE_EEE9partitionERKNS0_8IntervalIJSL_SM_EEESt8functionIFvSR_PKNS0_9IFunctionISI_NS0_6DomainIJSL_SM_EEEEEEEENKUlRKNSO_IJSL_EEEPKNST_ISI_NSU_IJSL_EEEEEE_clES13_S17_EUlRKNSO_IJSM_EEEPKNST_IdNSU_IJSM_EEEEEE_
	_ZTIZZNK4inet4math18Combined2DFunctionIdNS_5units5valueIN7omnetpp7SimTimeENS2_5units1sEEENS3_IdNS2_3powIS7_Lin1ELi1EEEEEE9partitionERKNS0_8IntervalIJS8_SB_EEESt8functionIFvSG_PKNS0_9IFunctionIdNS0_6DomainIJS8_SB_EEEEEEEENKUlRKNSD_IJS8_EEEPKNSI_IdNSJ_IJS8_EEEEEE_clESS_SW_EUlRKNSD_IJSB_EEEPKNSI_IdNSJ_IJSB_EEEEEE_
	_ZTIZZNK4inet4math18MultipliedFunctionINS_5units5valueIdNS2_7composeINS4_INS4_INS2_5units1mENS4_INS5_2kgENS2_3powINS5_1sELin2ELi1EEEEEEES6_EENS8_IS9_Lin1ELi1EEEEEEENS0_6DomainIJNS3_IN7omnetpp7SimTimeES9_EEEEEE9partitionERKNS0_8IntervalIJSK_EEESt8functionIFvSQ_PKNS0_9IFunctionISG_SL_EEEEENKUlSQ_SV_E_clESQ_SV_EUlSQ_PKNSS_IdSL_EEE_
	_ZTIZZNK4inet4math18MultipliedFunctionINS_5units5valueIdNS2_7composeINS4_INS4_INS2_5units1mENS4_INS5_2kgENS2_3powINS5_1sELin2ELi1EEEEEEES6_EENS8_IS9_Lin1ELi1EEEEEEENS0_6DomainIJNS3_IdS6_EESI_SI_NS3_IN7omnetpp7SimTimeES9_EEEEEE9partitionERKNS0_8IntervalIJSI_SI_SI_SL_EEESt8functionIFvSR_PKNS0_9IFunctionISG_SM_EEEEENKUlSR_SW_E_clESR_SW_EUlSR_PKNST_IdSM_EEE_
	_ZTIZZNK4inet4math18MultipliedFunctionINS_5units5valueIdNS2_7composeINS4_INS4_INS4_INS2_5units1mENS4_INS5_2kgENS2_3powINS5_1sELin2ELi1EEEEEEES6_EENS8_IS9_Lin1ELi1EEEEENS8_ISE_Lin1ELi1EEEEEEENS0_6DomainIJNS3_IN7omnetpp7SimTimeES9_EEEEEE9partitionERKNS0_8IntervalIJSM_EEESt8functionIFvSS_PKNS0_9IFunctionISI_SN_EEEEENKUlSS_SX_E_clESS_SX_EUlSS_PKNSU_IdSN_EEE_
	_ZTIZZNK4inet4math18MultipliedFunctionINS_5units5valueIdNS2_7composeINS4_INS4_INS4_INS2_5units1mENS4_INS5_2kgENS2_3powINS5_1sELin2ELi1EEEEEEES6_EENS8_IS9_Lin1ELi1EEEEENS8_ISE_Lin1ELi1EEEEEEENS0_6DomainIJNS3_IN7omnetpp7SimTimeES9_EENS3_IdSE_EEEEEE9partitionERKNS0_8IntervalIJSM_SN_EEESt8functionIFvST_PKNS0_9IFunctionISI_SO_EEEEENKUlST_SY_E_clEST_SY_EUlST_PKNSV_IdSO_EEE_
	_ZTIZZNK4inet4math18MultipliedFunctionINS_5units5valueIdNS2_7composeINS4_INS4_INS4_INS2_5units1mENS4_INS5_2kgENS2_3powINS5_1sELin2ELi1EEEEEEES6_EENS8_IS9_Lin1ELi1EEEEENS8_ISE_Lin1ELi1EEEEEEENS0_6DomainIJNS3_IdS6_EESK_SK_NS3_IN7omnetpp7SimTimeES9_EENS3_IdSE_EEEEEE9partitionERKNS0_8IntervalIJSK_SK_SK_SN_SO_EEESt8functionIFvSU_PKNS0_9IFunctionISI_SP_EEEEENKUlSU_SZ_E_clESU_SZ_EUlSU_PKNSW_IdSP_EEE_
	_ZTIZZNK4inet4math18MultipliedFunctionIdNS0_6DomainIJNS_5units5valueIN7omnetpp7SimTimeENS3_5units1sEEEEEEE9partitionERKNS0_8IntervalIJS9_EEESt8functionIFvSF_PKNS0_9IFunctionIdSA_EEEEENKUlSF_SK_E_clESF_SK_EUlSF_SK_E_
	_ZTIZZNK4inet4math18MultipliedFunctionIdNS0_6DomainIJNS_5units5valueIN7omnetpp7SimTimeENS3_5units1sEEENS4_IdNS3_3powIS8_Lin1ELi1EEEEEEEEE9partitionERKNS0_8IntervalIJS9_SC_EEESt8functionIFvSI_PKNS0_9IFunctionIdSD_EEEEENKUlSI_SN_E_clESI_SN_EUlSI_SN_E_
	_ZTIZZNK4inet4math18MultipliedFunctionIdNS0_6DomainIJNS_5units5valueIdNS3_3powINS3_5units1sELin1ELi1EEEEEEEEE9partitionERKNS0_8IntervalIJS9_EEESt8functionIFvSF_PKNS0_9IFunctionIdSA_EEEEENKUlSF_SK_E_clESF_SK_EUlSF_SK_E_
	_ZTIZZNK4inet4math18MultipliedFunctionIdNS0_6DomainIJNS_5units5valueIdNS3_5units1mEEES7_S7_NS4_IN7omnetpp7SimTimeENS5_1sEEEEEEE9partitionERKNS0_8IntervalIJS7_S7_S7_SB_EEESt8functionIFvSH_PKNS0_9IFunctionIdSC_EEEEENKUlSH_SM_E_clESH_SM_EUlSH_SM_E_
	_ZTIZZNK4inet4math18MultipliedFunctionIdNS0_6DomainIJNS_5units5valueIdNS3_5units1mEEES7_S7_NS4_IN7omnetpp7SimTimeENS5_1sEEENS4_IdNS3_3powISA_Lin1ELi1EEEEEEEEE9partitionERKNS0_8IntervalIJS7_S7_S7_SB_SE_EEESt8functionIFvSK_PKNS0_9IFunctionIdSF_EEEEENKUlSK_SP_E_clESK_SP_EUlSK_SP_E_
	_ZTIZZNK4inet4math18MultipliedFunctionIdNS0_6DomainIJNS_5units5valueIdNS3_5units1mEEES7_S7_S7_S7_S7_NS4_IdNS3_3powINS5_1sELin1ELi1EEEEEEEEE9partitionERKNS0_8IntervalIJS7_S7_S7_S7_S7_S7_SB_EEESt8functionIFvSH_PKNS0_9IFunctionIdSC_EEEEENKUlSH_SM_E_clESH_SM_EUlSH_SM_E_
	_ZTIZZNK4inet4math18MultipliedFunctionIdNS0_6DomainIJNS_5units5valueIdNS3_7composeINS3_5units1mENS3_3powINS6_1sELin1ELi1EEEEEEENS4_IdS7_EENS4_IdSA_EEEEEE9partitionERKNS0_8IntervalIJSC_SD_SE_EEESt8functionIFvSK_PKNS0_9IFunctionIdSF_EEEEENKUlSK_SP_E_clESK_SP_EUlSK_SP_E_
	_ZTIZZNK4inet4math18SubtractedFunctionINS_5units5valueIdNS2_7composeINS4_INS4_INS2_5units1mENS4_INS5_2kgENS2_3powINS5_1sELin2ELi1EEEEEEES6_EENS8_IS9_Lin1ELi1EEEEEEENS0_6DomainIJNS3_IN7omnetpp7SimTimeES9_EEEEEE9partitionERKNS0_8IntervalIJSK_EEESt8functionIFvSQ_PKNS0_9IFunctionISG_SL_EEEEENKUlSQ_SV_E_clESQ_SV_EUlSQ_SV_E_
	_ZTIZZNK4inet4math18SubtractedFunctionINS_5units5valueIdNS2_7composeINS4_INS4_INS2_5units1mENS4_INS5_2kgENS2_3powINS5_1sELin2ELi1EEEEEEES6_EENS8_IS9_Lin1ELi1EEEEEEENS0_6DomainIJNS3_IdS6_EESI_SI_NS3_IN7omnetpp7SimTimeES9_EEEEEE9partitionERKNS0_8IntervalIJSI_SI_SI_SL_EEESt8functionIFvSR_PKNS0_9IFunctionISG_SM_EEEEENKUlSR_SW_E_clESR_SW_EUlSR_SW_E_
	_ZTIZZNK4inet4math18SubtractedFunctionINS_5units5valueIdNS2_7composeINS4_INS4_INS4_INS2_5units1mENS4_INS5_2kgENS2_3powINS5_1sELin2ELi1EEEEEEES6_EENS8_IS9_Lin1ELi1EEEEENS8_ISE_Lin1ELi1EEEEEEENS0_6DomainIJNS3_IN7omnetpp7SimTimeES9_EEEEEE9partitionERKNS0_8IntervalIJSM_EEESt8functionIFvSS_PKNS0_9IFunctionISI_SN_EEEEENKUlSS_SX_E_clESS_SX_EUlSS_SX_E_
	_ZTIZZNK4inet4math18SubtractedFunctionINS_5units5valueIdNS2_7composeINS4_INS4_INS4_INS2_5units1mENS4_INS5_2kgENS2_3powINS5_1sELin2ELi1EEEEEEES6_EENS8_IS9_Lin1ELi1EEEEENS8_ISE_Lin1ELi1EEEEEEENS0_6DomainIJNS3_IN7omnetpp7SimTimeES9_EENS3_IdSE_EEEEEE9partitionERKNS0_8IntervalIJSM_SN_EEESt8functionIFvST_PKNS0_9IFunctionISI_SO_EEEEENKUlST_SY_E_clEST_SY_EUlST_SY_E_
	_ZTIZZNK4inet4math18SubtractedFunctionINS_5units5valueIdNS2_7composeINS4_INS4_INS4_INS2_5units1mENS4_INS5_2kgENS2_3powINS5_1sELin2ELi1EEEEEEES6_EENS8_IS9_Lin1ELi1EEEEENS8_ISE_Lin1ELi1EEEEEEENS0_6DomainIJNS3_IdS6_EESK_SK_NS3_IN7omnetpp7SimTimeES9_EENS3_IdSE_EEEEEE9partitionERKNS0_8IntervalIJSK_SK_SK_SN_SO_EEESt8functionIFvSU_PKNS0_9IFunctionISI_SP_EEEEENKUlSU_SZ_E_clESU_SZ_EUlSU_SZ_E_
	_ZTIZZNK4inet4math18SubtractedFunctionIdNS0_6DomainIJNS_5units5valueIN7omnetpp7SimTimeENS3_5units1sEEEEEEE9partitionERKNS0_8IntervalIJS9_EEESt8functionIFvSF_PKNS0_9IFunctionIdSA_EEEEENKUlSF_SK_E_clESF_SK_EUlSF_SK_E_
	_ZTIZZNK4inet4math18SubtractedFunctionIdNS0_6DomainIJNS_5units5valueIN7omnetpp7SimTimeENS3_5units1sEEENS4_IdNS3_3powIS8_Lin1ELi1EEEEEEEEE9partitionERKNS0_8IntervalIJS9_SC_EEESt8functionIFvSI_PKNS0_9IFunctionIdSD_EEEEENKUlSI_SN_E_clESI_SN_EUlSI_SN_E_
	_ZTIZZNK4inet4math18SubtractedFunctionIdNS0_6DomainIJNS_5units5valueIdNS3_3powINS3_5units1sELin1ELi1EEEEEEEEE9partitionERKNS0_8IntervalIJS9_EEESt8functionIFvSF_PKNS0_9IFunctionIdSA_EEEEENKUlSF_SK_E_clESF_SK_EUlSF_SK_E_
	_ZTIZZNK4inet4math18SubtractedFunctionIdNS0_6DomainIJNS_5units5valueIdNS3_5units1mEEES7_S7_NS4_IN7omnetpp7SimTimeENS5_1sEEEEEEE9partitionERKNS0_8IntervalIJS7_S7_S7_SB_EEESt8functionIFvSH_PKNS0_9IFunctionIdSC_EEEEENKUlSH_SM_E_clESH_SM_EUlSH_SM_E_
	_ZTIZZNK4inet4math18SubtractedFunctionIdNS0_6DomainIJNS_5units5valueIdNS3_5units1mEEES7_S7_NS4_IN7omnetpp7SimTimeENS5_1sEEENS4_IdNS3_3powISA_Lin1ELi1EEEEEEEEE9partitionERKNS0_8IntervalIJS7_S7_S7_SB_SE_EEESt8functionIFvSK_PKNS0_9IFunctionIdSF_EEEEENKUlSK_SP_E_clESK_SP_EUlSK_SP_E_
	_ZTIZZNK4inet4math18SubtractedFunctionIdNS0_6DomainIJNS_5units5valueIdNS3_5units1mEEES7_S7_S7_S7_S7_NS4_IdNS3_3powINS5_1sELin1ELi1EEEEEEEEE9partitionERKNS0_8IntervalIJS7_S7_S7_S7_S7_S7_SB_EEESt8functionIFvSH_PKNS0_9IFunctionIdSC_EEEEENKUlSH_SM_E_clESH_SM_EUlSH_SM_E_
	_ZTIZZNK4inet4math18SubtractedFunctionIdNS0_6DomainIJNS_5units5valueIdNS3_7composeINS3_5units1mENS3_3powINS6_1sELin1ELi1EEEEEEENS4_IdS7_EENS4_IdSA_EEEEEE9partitionERKNS0_8IntervalIJSC_SD_SE_EEESt8functionIFvSK_PKNS0_9IFunctionIdSF_EEEEENKUlSK_SP_E_clESK_SP_EUlSK_SP_E_
	_ZTIZZNK4inet4math20ApproximatedFunctionINS_5units5valueIdNS2_7composeINS4_INS4_INS4_INS2_5units1mENS4_INS5_2kgENS2_3powINS5_1sELin2ELi1EEEEEEES6_EENS8_IS9_Lin1ELi1EEEEENS8_ISE_Lin1ELi1EEEEEEENS0_6DomainIJNS3_IdS6_EESK_SK_NS3_IN7omnetpp7SimTimeES9_EENS3_IdSE_EEEEELi0ESK_E9partitionERKNS0_8IntervalIJSK_SK_SK_SN_SO_EEESt8functionIFvSU_PKNS0_9IFunctionISI_SP_EEEEENKUlSU_SZ_E0_clESU_SZ_EUlSU_SZ_E_
	_ZTIZZNK4inet4math20ApproximatedFunctionINS_5units5valueIdNS2_7composeINS4_INS4_INS4_INS2_5units1mENS4_INS5_2kgENS2_3powINS5_1sELin2ELi1EEEEEEES6_EENS8_IS9_Lin1ELi1EEEEENS8_ISE_Lin1ELi1EEEEEEENS0_6DomainIJNS3_IdS6_EESK_SK_NS3_IN7omnetpp7SimTimeES9_EENS3_IdSE_EEEEELi1ESK_E9partitionERKNS0_8IntervalIJSK_SK_SK_SN_SO_EEESt8functionIFvSU_PKNS0_9IFunctionISI_SP_EEEEENKUlSU_SZ_E0_clESU_SZ_EUlSU_SZ_E_
	_ZTIZZNK4inet4math20ApproximatedFunctionIdNS0_6DomainIJNS_5units5valueIN7omnetpp7SimTimeENS3_5units1sEEENS4_IdNS3_3powIS8_Lin1ELi1EEEEEEEELi1ESC_E9partitionERKNS0_8IntervalIJS9_SC_EEESt8functionIFvSI_PKNS0_9IFunctionIdSD_EEEEENKUlSI_SN_E0_clESI_SN_EUlSI_SN_E_
	_ZTIZZNK4inet4math20ApproximatedFunctionIdNS0_6DomainIJNS_5units5valueIdNS3_5units1mEEES7_S7_NS4_IN7omnetpp7SimTimeENS5_1sEEENS4_IdNS3_3powISA_Lin1ELi1EEEEEEEELi4ESE_E9partitionERKNS0_8IntervalIJS7_S7_S7_SB_SE_EEESt8functionIFvSK_PKNS0_9IFunctionIdSF_EEEEENKUlSK_SP_E0_clESK_SP_EUlSK_SP_E_
	_ZThn104_N4inet6ospfv37LinkLSAD0Ev
	_ZThn104_N4inet6ospfv37LinkLSAD1Ev
	_ZThn120_N3osg13TemplateArrayINS_5Vec3fELNS_5Array4TypeE28ELi3ELi5126EED0Ev
	_ZThn120_N3osg13TemplateArrayINS_5Vec3fELNS_5Array4TypeE28ELi3ELi5126EED1Ev
	_ZThn120_N3osg13TemplateArrayINS_5Vec4fELNS_5Array4TypeE29ELi4ELi5126EED0Ev
	_ZThn120_N3osg13TemplateArrayINS_5Vec4fELNS_5Array4TypeE29ELi4ELi5126EED1Ev
	_ZThn144_N4inet13physicallayer26ApskDimensionalTransmitter10initializeEi
	_ZThn144_N4inet13physicallayer26ApskDimensionalTransmitterD0Ev
	_ZThn144_N4inet13physicallayer26ApskDimensionalTransmitterD1Ev
	_ZThn144_N4inet13physicallayer26DimensionalBackgroundNoise10initializeEi
	_ZThn144_N4inet13physicallayer26DimensionalBackgroundNoiseD0Ev
	_ZThn144_N4inet13physicallayer26DimensionalBackgroundNoiseD1Ev
	_ZThn144_NK4inet13physicallayer26ApskDimensionalTransmitter13printToStreamERSoi
	_ZThn168_N4inet10PlotFigure14refreshDisplayEv
	_ZThn168_N4inet10PlotFigure8setValueEiN7omnetpp7SimTimeEd
	_ZThn168_N4inet10PlotFigureD0Ev
	_ZThn168_N4inet10PlotFigureD1Ev
	_ZThn168_N4inet11GaugeFigure8setValueEiN7omnetpp7SimTimeEd
	_ZThn168_N4inet11GaugeFigureD0Ev
	_ZThn168_N4inet11GaugeFigureD1Ev
	_ZThn168_N4inet13CounterFigure8setValueEiN7omnetpp7SimTimeEd
	_ZThn168_N4inet13CounterFigureD0Ev
	_ZThn168_N4inet13CounterFigureD1Ev
	_ZThn168_N4inet17LinearGaugeFigure8setValueEiN7omnetpp7SimTimeEd
	_ZThn168_N4inet17LinearGaugeFigureD0Ev
	_ZThn168_N4inet17LinearGaugeFigureD1Ev
	_ZThn168_N4inet17ThermometerFigure8setValueEiN7omnetpp7SimTimeEd
	_ZThn168_N4inet17ThermometerFigureD0Ev
	_ZThn168_N4inet17ThermometerFigureD1Ev
	_ZThn168_N4inet18IndexedImageFigure8setValueEiN7omnetpp7SimTimeEd
	_ZThn168_N4inet18IndexedImageFigureD0Ev
	_ZThn168_N4inet18IndexedImageFigureD1Ev
	_ZThn168_N4inet19ProgressMeterFigure8setValueEiN7omnetpp7SimTimeEd
	_ZThn168_N4inet19ProgressMeterFigureD0Ev
	_ZThn168_N4inet19ProgressMeterFigureD1Ev
	_ZThn168_NK4inet10PlotFigure12getNumSeriesEv
	_ZThn168_NK4inet10PlotFigure7getSizeEv
	_ZThn168_NK4inet11GaugeFigure7getSizeEv
	_ZThn168_NK4inet13CounterFigure7getSizeEv
	_ZThn168_NK4inet17LinearGaugeFigure7getSizeEv
	_ZThn168_NK4inet17ThermometerFigure7getSizeEv
	_ZThn168_NK4inet18IndexedImageFigure7getSizeEv
	_ZThn168_NK4inet19ProgressMeterFigure7getSizeEv
	_ZThn16_N4inet10visualizer27NetworkNodeOsgVisualizationD0Ev
	_ZThn16_N4inet10visualizer27NetworkNodeOsgVisualizationD1Ev
	_ZThn16_N4inet10visualizer30NetworkNodeCanvasVisualization14refreshDisplayEv
	_ZThn16_N4inet10visualizer30NetworkNodeCanvasVisualizationD0Ev
	_ZThn16_N4inet10visualizer30NetworkNodeCanvasVisualizationD1Ev
	_ZThn16_N4inet13physicallayer21Ieee80211OfdmDataModeD0Ev
	_ZThn16_N4inet13physicallayer21Ieee80211OfdmDataModeD1Ev
	_ZThn16_N4inet13physicallayer23Ieee80211OfdmSignalModeD0Ev
	_ZThn16_N4inet13physicallayer23Ieee80211OfdmSignalModeD1Ev
	_ZThn16_N4inet6ospfv313Ospfv3Process10initializeEi
	_ZThn16_N4inet6ospfv313Ospfv3Process13handleMessageEPN7omnetpp8cMessageE
	_ZThn16_N4inet6ospfv313Ospfv3ProcessD0Ev
	_ZThn16_N4inet6ospfv313Ospfv3ProcessD1Ev
	_ZThn16_N4inet6ospfv314Ospfv3Splitter10initializeEi
	_ZThn16_N4inet6ospfv314Ospfv3Splitter13handleMessageEPN7omnetpp8cMessageE
	_ZThn16_N4inet6ospfv314Ospfv3SplitterD0Ev
	_ZThn16_N4inet6ospfv314Ospfv3SplitterD1Ev
	_ZThn16_N4inet8queueing12IPacketMeterD0Ev
	_ZThn16_N4inet8queueing12IPacketMeterD1Ev
	_ZThn16_N4inet8queueing12IPacketQueueD0Ev
	_ZThn16_N4inet8queueing12IPacketQueueD1Ev
	_ZThn16_N4inet8queueing13IPacketFilterD0Ev
	_ZThn16_N4inet8queueing13IPacketFilterD1Ev
	_ZThn16_N4inet8queueing13IPacketMarkerD0Ev
	_ZThn16_N4inet8queueing13IPacketMarkerD1Ev
	_ZThn16_N4inet9ieee802113Dcf14channelGrantedEPNS0_14IChannelAccessE
	_ZThn16_N4inet9ieee802113DcfD0Ev
	_ZThn16_N4inet9ieee802113DcfD1Ev
	_ZThn16_N4inet9ieee802113Hcf14channelGrantedEPNS0_14IChannelAccessE
	_ZThn16_N4inet9ieee802113HcfD0Ev
	_ZThn16_N4inet9ieee802113HcfD1Ev
	_ZThn16_N4inet9ieee802114Dcaf11incrementCwEv
	_ZThn16_N4inet9ieee802114Dcaf5getCwEv
	_ZThn16_N4inet9ieee802114Dcaf7resetCwEv
	_ZThn16_N4inet9ieee802114DcafD0Ev
	_ZThn16_N4inet9ieee802114DcafD1Ev
	_ZThn16_N4inet9ieee802115Edcaf11incrementCwEv
	_ZThn16_N4inet9ieee802115Edcaf5getCwEv
	_ZThn16_N4inet9ieee802115Edcaf7resetCwEv
	_ZThn16_N4inet9ieee802115EdcafD0Ev
	_ZThn16_N4inet9ieee802115EdcafD1Ev
	_ZThn16_NK4inet13physicallayer19Ieee80211HtDataMode12getBandwidthEv
	_ZThn16_NK4inet13physicallayer19Ieee80211HtDataMode13getNetBitrateEv
	_ZThn16_NK4inet13physicallayer19Ieee80211HtDataMode15getGrossBitrateEv
	_ZThn16_NK4inet13physicallayer19Ieee80211HtDataMode17computeNetBitrateEv
	_ZThn16_NK4inet13physicallayer19Ieee80211HtDataMode19computeGrossBitrateEv
	_ZThn16_NK4inet13physicallayer19Ieee80211HtDataMode25getNumberOfSpatialStreamsEv
	_ZThn16_NK4inet13physicallayer20Ieee80211VhtDataMode12getBandwidthEv
	_ZThn16_NK4inet13physicallayer20Ieee80211VhtDataMode13getNetBitrateEv
	_ZThn16_NK4inet13physicallayer20Ieee80211VhtDataMode15getGrossBitrateEv
	_ZThn16_NK4inet13physicallayer20Ieee80211VhtDataMode17computeNetBitrateEv
	_ZThn16_NK4inet13physicallayer20Ieee80211VhtDataMode19computeGrossBitrateEv
	_ZThn16_NK4inet13physicallayer20Ieee80211VhtDataMode25getNumberOfSpatialStreamsEv
	_ZThn16_NK4inet13physicallayer21Ieee80211HtSignalMode13getNetBitrateEv
	_ZThn16_NK4inet13physicallayer21Ieee80211HtSignalMode15getGrossBitrateEv
	_ZThn16_NK4inet13physicallayer21Ieee80211HtSignalMode17computeNetBitrateEv
	_ZThn16_NK4inet13physicallayer21Ieee80211HtSignalMode19computeGrossBitrateEv
	_ZThn16_NK4inet13physicallayer21Ieee80211OfdmDataMode12getBandwidthEv
	_ZThn16_NK4inet13physicallayer21Ieee80211OfdmDataMode13getNetBitrateEv
	_ZThn16_NK4inet13physicallayer21Ieee80211OfdmDataMode15getGrossBitrateEv
	_ZThn16_NK4inet13physicallayer22Ieee80211VhtSignalMode13getNetBitrateEv
	_ZThn16_NK4inet13physicallayer22Ieee80211VhtSignalMode15getGrossBitrateEv
	_ZThn16_NK4inet13physicallayer22Ieee80211VhtSignalMode17computeNetBitrateEv
	_ZThn16_NK4inet13physicallayer22Ieee80211VhtSignalMode19computeGrossBitrateEv
	_ZThn16_NK4inet13physicallayer23Ieee80211OfdmSignalMode13getNetBitrateEv
	_ZThn16_NK4inet13physicallayer23Ieee80211OfdmSignalMode15getGrossBitrateEv
	_ZThn16_NK4inet6ospfv313Ospfv3Process13numInitStagesEv
	_ZThn16_NK4inet6ospfv314Ospfv3Splitter13numInitStagesEv
	_ZThn184_N4inet13physicallayer6SignalD0Ev
	_ZThn184_N4inet13physicallayer6SignalD1Ev
	_ZThn184_NK4inet13physicallayer6Signal10getArrivalEv
	_ZThn184_NK4inet13physicallayer6Signal12getListeningEv
	_ZThn184_NK4inet13physicallayer6Signal12getReceptionEv
	_ZThn184_NK4inet13physicallayer6Signal15getTransmissionEv
	_ZThn192_N4inet13physicallayer6SignalD0Ev
	_ZThn192_N4inet13physicallayer6SignalD1Ev
	_ZThn192_NK4inet13physicallayer6Signal13printToStreamERSoi
	_ZThn200_N4inet13physicallayer11SuiPathLossD0Ev
	_ZThn200_N4inet13physicallayer11SuiPathLossD1Ev
	_ZThn200_N4inet13physicallayer12PathLossBaseD0Ev
	_ZThn200_N4inet13physicallayer12PathLossBaseD1Ev
	_ZThn200_N4inet13physicallayer12RicianFadingD0Ev
	_ZThn200_N4inet13physicallayer12RicianFadingD1Ev
	_ZThn200_N4inet13physicallayer14ApskErrorModelD0Ev
	_ZThn200_N4inet13physicallayer14ApskErrorModelD1Ev
	_ZThn200_N4inet13physicallayer14ErrorModelBaseD0Ev
	_ZThn200_N4inet13physicallayer14ErrorModelBaseD1Ev
	_ZThn200_N4inet13physicallayer14NakagamiFadingD0Ev
	_ZThn200_N4inet13physicallayer14NakagamiFadingD1Ev
	_ZThn200_N4inet13physicallayer14RayleighFadingD0Ev
	_ZThn200_N4inet13physicallayer14RayleighFadingD1Ev
	_ZThn200_N4inet13physicallayer15PropagationBaseD0Ev
	_ZThn200_N4inet13physicallayer15PropagationBaseD1Ev
	_ZThn200_N4inet13physicallayer16MediumLimitCache11removeRadioEPKNS0_6IRadioE
	_ZThn200_N4inet13physicallayer16MediumLimitCache8addRadioEPKNS0_6IRadioE
	_ZThn200_N4inet13physicallayer16MediumLimitCacheD0Ev
	_ZThn200_N4inet13physicallayer16MediumLimitCacheD1Ev
	_ZThn200_N4inet13physicallayer17FreeSpacePathLossD0Ev
	_ZThn200_N4inet13physicallayer17FreeSpacePathLossD1Ev
	_ZThn200_N4inet13physicallayer17IdealObstacleLossD0Ev
	_ZThn200_N4inet13physicallayer17IdealObstacleLossD1Ev
	_ZThn200_N4inet13physicallayer18BreakpointPathLossD0Ev
	_ZThn200_N4inet13physicallayer18BreakpointPathLossD1Ev
	_ZThn200_N4inet13physicallayer18LogNormalShadowingD0Ev
	_ZThn200_N4inet13physicallayer18LogNormalShadowingD1Ev
	_ZThn200_N4inet13physicallayer18TwoRayInterferenceD0Ev
	_ZThn200_N4inet13physicallayer18TwoRayInterferenceD1Ev
	_ZThn200_N4inet13physicallayer19UnitDiskAnalogModelD0Ev
	_ZThn200_N4inet13physicallayer19UnitDiskAnalogModelD1Ev
	_ZThn200_N4inet13physicallayer20StochasticErrorModelD0Ev
	_ZThn200_N4inet13physicallayer20StochasticErrorModelD1Ev
	_ZThn200_N4inet13physicallayer21ApskLayeredErrorModelD0Ev
	_ZThn200_N4inet13physicallayer21ApskLayeredErrorModelD1Ev
	_ZThn200_N4inet13physicallayer21LayeredErrorModelBaseD0Ev
	_ZThn200_N4inet13physicallayer21LayeredErrorModelBaseD1Ev
	_ZThn200_N4inet13physicallayer21MapCommunicationCache11removeRadioEPKNS0_6IRadioE
	_ZThn200_N4inet13physicallayer21MapCommunicationCache15addTransmissionEPKNS0_13ITransmissionE
	_ZThn200_N4inet13physicallayer21MapCommunicationCache18removeTransmissionEPKNS0_13ITransmissionE
	_ZThn200_N4inet13physicallayer21MapCommunicationCache33removeNonInterferingTransmissionsESt8functionIFvPKNS0_13ITransmissionEEE
	_ZThn200_N4inet13physicallayer21MapCommunicationCache8addRadioEPKNS0_6IRadioE
	_ZThn200_N4inet13physicallayer21MapCommunicationCacheD0Ev
	_ZThn200_N4inet13physicallayer21MapCommunicationCacheD1Ev
	_ZThn200_N4inet13physicallayer22CommunicationCacheBase13getCachedSNIREPKNS0_6IRadioEPKNS0_13ITransmissionE
	_ZThn200_N4inet13physicallayer22CommunicationCacheBase13setCachedSNIREPKNS0_6IRadioEPKNS0_13ITransmissionEPKNS0_5ISnirE
	_ZThn200_N4inet13physicallayer22CommunicationCacheBase14getCachedNoiseEPKNS0_6IRadioEPKNS0_13ITransmissionE
	_ZThn200_N4inet13physicallayer22CommunicationCacheBase14setCachedNoiseEPKNS0_6IRadioEPKNS0_13ITransmissionEPKNS0_6INoiseE
	_ZThn200_N4inet13physicallayer22CommunicationCacheBase15getCachedSignalEPKNS0_13ITransmissionE
	_ZThn200_N4inet13physicallayer22CommunicationCacheBase15getCachedSignalEPKNS0_6IRadioEPKNS0_13ITransmissionE
	_ZThn200_N4inet13physicallayer22CommunicationCacheBase15setCachedSignalEPKNS0_13ITransmissionEPKNS0_7ISignalE
	_ZThn200_N4inet13physicallayer22CommunicationCacheBase15setCachedSignalEPKNS0_6IRadioEPKNS0_13ITransmissionEPKNS0_7ISignalE
	_ZThn200_N4inet13physicallayer22CommunicationCacheBase16getCachedArrivalEPKNS0_6IRadioEPKNS0_13ITransmissionE
	_ZThn200_N4inet13physicallayer22CommunicationCacheBase16removeCachedSNIREPKNS0_6IRadioEPKNS0_13ITransmissionE
	_ZThn200_N4inet13physicallayer22CommunicationCacheBase16setCachedArrivalEPKNS0_6IRadioEPKNS0_13ITransmissionEPKNS0_8IArrivalE
	_ZThn200_N4inet13physicallayer22CommunicationCacheBase17getCachedIntervalEPKNS0_6IRadioEPKNS0_13ITransmissionE
	_ZThn200_N4inet13physicallayer22CommunicationCacheBase17removeCachedNoiseEPKNS0_6IRadioEPKNS0_13ITransmissionE
	_ZThn200_N4inet13physicallayer22CommunicationCacheBase17setCachedIntervalEPKNS0_6IRadioEPKNS0_13ITransmissionEPKNS_12IntervalTree8IntervalE
	_ZThn200_N4inet13physicallayer22CommunicationCacheBase18getCachedListeningEPKNS0_6IRadioEPKNS0_13ITransmissionE
	_ZThn200_N4inet13physicallayer22CommunicationCacheBase18getCachedReceptionEPKNS0_6IRadioEPKNS0_13ITransmissionE
	_ZThn200_N4inet13physicallayer22CommunicationCacheBase18removeCachedSignalEPKNS0_13ITransmissionE
	_ZThn200_N4inet13physicallayer22CommunicationCacheBase18removeCachedSignalEPKNS0_6IRadioEPKNS0_13ITransmissionE
	_ZThn200_N4inet13physicallayer22CommunicationCacheBase18setCachedListeningEPKNS0_6IRadioEPKNS0_13ITransmissionEPKNS0_10IListeningE
	_ZThn200_N4inet13physicallayer22CommunicationCacheBase18setCachedReceptionEPKNS0_6IRadioEPKNS0_13ITransmissionEPKNS0_10IReceptionE
	_ZThn200_N4inet13physicallayer22CommunicationCacheBase19removeCachedArrivalEPKNS0_6IRadioEPKNS0_13ITransmissionE
	_ZThn200_N4inet13physicallayer22CommunicationCacheBase20removeCachedIntervalEPKNS0_6IRadioEPKNS0_13ITransmissionE
	_ZThn200_N4inet13physicallayer22CommunicationCacheBase21getCachedInterferenceEPKNS0_6IRadioEPKNS0_13ITransmissionE
	_ZThn200_N4inet13physicallayer22CommunicationCacheBase21removeCachedListeningEPKNS0_6IRadioEPKNS0_13ITransmissionE
	_ZThn200_N4inet13physicallayer22CommunicationCacheBase21removeCachedReceptionEPKNS0_6IRadioEPKNS0_13ITransmissionE
	_ZThn200_N4inet13physicallayer22CommunicationCacheBase21setCachedInterferenceEPKNS0_6IRadioEPKNS0_13ITransmissionEPKNS0_13IInterferenceE
	_ZThn200_N4inet13physicallayer22CommunicationCacheBase24getCachedReceptionResultEPKNS0_6IRadioEPKNS0_13ITransmissionE
	_ZThn200_N4inet13physicallayer22CommunicationCacheBase24removeCachedInterferenceEPKNS0_6IRadioEPKNS0_13ITransmissionE
	_ZThn200_N4inet13physicallayer22CommunicationCacheBase24setCachedReceptionResultEPKNS0_6IRadioEPKNS0_13ITransmissionEPKNS0_16IReceptionResultE
	_ZThn200_N4inet13physicallayer22CommunicationCacheBase26getCachedReceptionDecisionEPKNS0_6IRadioEPKNS0_13ITransmissionENS0_12IRadioSignal10SignalPartE
	_ZThn200_N4inet13physicallayer22CommunicationCacheBase26setCachedReceptionDecisionEPKNS0_6IRadioEPKNS0_13ITransmissionENS0_12IRadioSignal10SignalPartEPKNS0_18IReceptionDecisionE
	_ZThn200_N4inet13physicallayer22CommunicationCacheBase27removeCachedReceptionResultEPKNS0_6IRadioEPKNS0_13ITransmissionE
	_ZThn200_N4inet13physicallayer22CommunicationCacheBase28getCachedInterferenceEndTimeEPKNS0_13ITransmissionE
	_ZThn200_N4inet13physicallayer22CommunicationCacheBase28setCachedInterferenceEndTimeEPKNS0_13ITransmissionEN7omnetpp7SimTimeE
	_ZThn200_N4inet13physicallayer22CommunicationCacheBase29removeCachedReceptionDecisionEPKNS0_6IRadioEPKNS0_13ITransmissionENS0_12IRadioSignal10SignalPartE
	_ZThn200_N4inet13physicallayer22CommunicationCacheBase31computeInterferingTransmissionsEPKNS0_6IRadioEN7omnetpp7SimTimeES6_
	_ZThn200_N4inet13physicallayer22CommunicationCacheBase31removeCachedInterferenceEndTimeEPKNS0_13ITransmissionE
	_ZThn200_N4inet13physicallayer22CommunicationCacheBaseD0Ev
	_ZThn200_N4inet13physicallayer22CommunicationCacheBaseD1Ev
	_ZThn200_N4inet13physicallayer22DielectricObstacleLossD0Ev
	_ZThn200_N4inet13physicallayer22DielectricObstacleLossD1Ev
	_ZThn200_N4inet13physicallayer22TwoRayGroundReflectionD0Ev
	_ZThn200_N4inet13physicallayer22TwoRayGroundReflectionD1Ev
	_ZThn200_N4inet13physicallayer23ConstantTimePropagationD0Ev
	_ZThn200_N4inet13physicallayer23ConstantTimePropagationD1Ev
	_ZThn200_N4inet13physicallayer23Ieee80211ErrorModelBaseD0Ev
	_ZThn200_N4inet13physicallayer23Ieee80211ErrorModelBaseD1Ev
	_ZThn200_N4inet13physicallayer23Ieee80211NistErrorModelD0Ev
	_ZThn200_N4inet13physicallayer23Ieee80211NistErrorModelD1Ev
	_ZThn200_N4inet13physicallayer23Ieee80211OfdmErrorModelD0Ev
	_ZThn200_N4inet13physicallayer23Ieee80211OfdmErrorModelD1Ev
	_ZThn200_N4inet13physicallayer23Ieee80211YansErrorModelD0Ev
	_ZThn200_N4inet13physicallayer23Ieee80211YansErrorModelD1Ev
	_ZThn200_N4inet13physicallayer23TracingObstacleLossBaseD0Ev
	_ZThn200_N4inet13physicallayer23TracingObstacleLossBaseD1Ev
	_ZThn200_N4inet13physicallayer23UwbIrStochasticPathLossD0Ev
	_ZThn200_N4inet13physicallayer23UwbIrStochasticPathLossD1Ev
	_ZThn200_N4inet13physicallayer24ConstantSpeedPropagationD0Ev
	_ZThn200_N4inet13physicallayer24ConstantSpeedPropagationD1Ev
	_ZThn200_N4inet13physicallayer24VectorCommunicationCache11removeRadioEPKNS0_6IRadioE
	_ZThn200_N4inet13physicallayer24VectorCommunicationCache15addTransmissionEPKNS0_13ITransmissionE
	_ZThn200_N4inet13physicallayer24VectorCommunicationCache18removeTransmissionEPKNS0_13ITransmissionE
	_ZThn200_N4inet13physicallayer24VectorCommunicationCache33removeNonInterferingTransmissionsESt8functionIFvPKNS0_13ITransmissionEEE
	_ZThn200_N4inet13physicallayer24VectorCommunicationCache8addRadioEPKNS0_6IRadioE
	_ZThn200_N4inet13physicallayer24VectorCommunicationCacheD0Ev
	_ZThn200_N4inet13physicallayer24VectorCommunicationCacheD1Ev
	_ZThn200_N4inet13physicallayer27Ieee80211BerTableErrorModelD0Ev
	_ZThn200_N4inet13physicallayer27Ieee80211BerTableErrorModelD1Ev
	_ZThn200_N4inet13physicallayer27NoiseDimensionalTransmitter10initializeEi
	_ZThn200_N4inet13physicallayer27NoiseDimensionalTransmitterD0Ev
	_ZThn200_N4inet13physicallayer27NoiseDimensionalTransmitterD1Ev
	_ZThn200_N4inet13physicallayer27ReferenceCommunicationCache11removeRadioEPKNS0_6IRadioE
	_ZThn200_N4inet13physicallayer27ReferenceCommunicationCache13getCachedSNIREPKNS0_6IRadioEPKNS0_13ITransmissionE
	_ZThn200_N4inet13physicallayer27ReferenceCommunicationCache14getCachedNoiseEPKNS0_6IRadioEPKNS0_13ITransmissionE
	_ZThn200_N4inet13physicallayer27ReferenceCommunicationCache15addTransmissionEPKNS0_13ITransmissionE
	_ZThn200_N4inet13physicallayer27ReferenceCommunicationCache18getCachedReceptionEPKNS0_6IRadioEPKNS0_13ITransmissionE
	_ZThn200_N4inet13physicallayer27ReferenceCommunicationCache18removeTransmissionEPKNS0_13ITransmissionE
	_ZThn200_N4inet13physicallayer27ReferenceCommunicationCache21getCachedInterferenceEPKNS0_6IRadioEPKNS0_13ITransmissionE
	_ZThn200_N4inet13physicallayer27ReferenceCommunicationCache31computeInterferingTransmissionsEPKNS0_6IRadioEN7omnetpp7SimTimeES6_
	_ZThn200_N4inet13physicallayer27ReferenceCommunicationCache33removeNonInterferingTransmissionsESt8functionIFvPKNS0_13ITransmissionEEE
	_ZThn200_N4inet13physicallayer27ReferenceCommunicationCache8addRadioEPKNS0_6IRadioE
	_ZThn200_N4inet13physicallayer27ReferenceCommunicationCacheD0Ev
	_ZThn200_N4inet13physicallayer27ReferenceCommunicationCacheD1Ev
	_ZThn200_N4inet13physicallayer27StochasticLayeredErrorModelD0Ev
	_ZThn200_N4inet13physicallayer27StochasticLayeredErrorModelD1Ev
	_ZThn200_N4inet13physicallayer30IsotropicScalarBackgroundNoiseD0Ev
	_ZThn200_N4inet13physicallayer30IsotropicScalarBackgroundNoiseD1Ev
	_ZThn200_N4inet13physicallayer35IsotropicDimensionalBackgroundNoiseD0Ev
	_ZThn200_N4inet13physicallayer35IsotropicDimensionalBackgroundNoiseD1Ev
	_ZThn200_NK4inet13physicallayer11SuiPathLoss12computeRangeENS_5units5valueIdNS2_7composeINS2_5units1mENS2_3powINS5_1sELin1ELi1EEEEEEENS3_IdS9_EEd
	_ZThn200_NK4inet13physicallayer11SuiPathLoss13printToStreamERSoi
	_ZThn200_NK4inet13physicallayer11SuiPathLoss15computePathLossENS_5units5valueIdNS2_7composeINS2_5units1mENS2_3powINS5_1sELin1ELi1EEEEEEENS3_IdS9_EENS3_IdS6_EE
	_ZThn200_NK4inet13physicallayer12PathLossBase15computePathLossEPKNS0_13ITransmissionEPKNS0_8IArrivalE
	_ZThn200_NK4inet13physicallayer12RicianFading13printToStreamERSoi
	_ZThn200_NK4inet13physicallayer12RicianFading15computePathLossENS_5units5valueIdNS2_7composeINS2_5units1mENS2_3powINS5_1sELin1ELi1EEEEEEENS3_IdS9_EENS3_IdS6_EE
	_ZThn200_NK4inet13physicallayer14ApskErrorModel13printToStreamERSoi
	_ZThn200_NK4inet13physicallayer14ApskErrorModel19computeBitErrorRateEPKNS0_5ISnirENS0_12IRadioSignal10SignalPartE
	_ZThn200_NK4inet13physicallayer14ApskErrorModel22computePacketErrorRateEPKNS0_5ISnirENS0_12IRadioSignal10SignalPartE
	_ZThn200_NK4inet13physicallayer14ApskErrorModel22computeSymbolErrorRateEPKNS0_5ISnirENS0_12IRadioSignal10SignalPartE
	_ZThn200_NK4inet13physicallayer14ErrorModelBase22computeCorruptedPacketEPKNS0_5ISnirE
	_ZThn200_NK4inet13physicallayer14NakagamiFading13printToStreamERSoi
	_ZThn200_NK4inet13physicallayer14NakagamiFading15computePathLossENS_5units5valueIdNS2_7composeINS2_5units1mENS2_3powINS5_1sELin1ELi1EEEEEEENS3_IdS9_EENS3_IdS6_EE
	_ZThn200_NK4inet13physicallayer14RayleighFading13printToStreamERSoi
	_ZThn200_NK4inet13physicallayer14RayleighFading15computePathLossENS_5units5valueIdNS2_7composeINS2_5units1mENS2_3powINS5_1sELin1ELi1EEEEEEENS3_IdS9_EENS3_IdS6_EE
	_ZThn200_NK4inet13physicallayer15PropagationBase13printToStreamERSoi
	_ZThn200_NK4inet13physicallayer15PropagationBase19getPropagationSpeedEv
	_ZThn200_NK4inet13physicallayer16MediumLimitCache11getMaxSpeedEv
	_ZThn200_NK4inet13physicallayer16MediumLimitCache13printToStreamERSoi
	_ZThn200_NK4inet13physicallayer16MediumLimitCache17getMaxAntennaGainEv
	_ZThn200_NK4inet13physicallayer16MediumLimitCache20getMaxConstraintAreaEv
	_ZThn200_NK4inet13physicallayer16MediumLimitCache20getMinConstraintAreaEv
	_ZThn200_NK4inet13physicallayer16MediumLimitCache20getMinReceptionPowerEv
	_ZThn200_NK4inet13physicallayer16MediumLimitCache22getMinInterferenceTimeEv
	_ZThn200_NK4inet13physicallayer16MediumLimitCache23getMaxInterferenceRangeEPKNS0_6IRadioE
	_ZThn200_NK4inet13physicallayer16MediumLimitCache23getMaxInterferenceRangeEv
	_ZThn200_NK4inet13physicallayer16MediumLimitCache23getMaxTransmissionPowerEv
	_ZThn200_NK4inet13physicallayer16MediumLimitCache23getMinInterferencePowerEv
	_ZThn200_NK4inet13physicallayer16MediumLimitCache24getMaxCommunicationRangeEPKNS0_6IRadioE
	_ZThn200_NK4inet13physicallayer16MediumLimitCache24getMaxCommunicationRangeEv
	_ZThn200_NK4inet13physicallayer16MediumLimitCache26getMaxTransmissionDurationEv
	_ZThn200_NK4inet13physicallayer17FreeSpacePathLoss12computeRangeENS_5units5valueIdNS2_7composeINS2_5units1mENS2_3powINS5_1sELin1ELi1EEEEEEENS3_IdS9_EEd
	_ZThn200_NK4inet13physicallayer17FreeSpacePathLoss13printToStreamERSoi
	_ZThn200_NK4inet13physicallayer17FreeSpacePathLoss15computePathLossENS_5units5valueIdNS2_7composeINS2_5units1mENS2_3powINS5_1sELin1ELi1EEEEEEENS3_IdS9_EENS3_IdS6_EE
	_ZThn200_NK4inet13physicallayer17IdealObstacleLoss13printToStreamERSoi
	_ZThn200_NK4inet13physicallayer17IdealObstacleLoss19computeObstacleLossENS_5units5valueIdNS2_3powINS2_5units1sELin1ELi1EEEEERKNS_5CoordESB_
	_ZThn200_NK4inet13physicallayer18BreakpointPathLoss12computeRangeENS_5units5valueIdNS2_7composeINS2_5units1mENS2_3powINS5_1sELin1ELi1EEEEEEENS3_IdS9_EEd
	_ZThn200_NK4inet13physicallayer18BreakpointPathLoss13printToStreamERSoi
	_ZThn200_NK4inet13physicallayer18BreakpointPathLoss15computePathLossENS_5units5valueIdNS2_7composeINS2_5units1mENS2_3powINS5_1sELin1ELi1EEEEEEENS3_IdS9_EENS3_IdS6_EE
	_ZThn200_NK4inet13physicallayer18LogNormalShadowing13printToStreamERSoi
	_ZThn200_NK4inet13physicallayer18LogNormalShadowing15computePathLossENS_5units5valueIdNS2_7composeINS2_5units1mENS2_3powINS5_1sELin1ELi1EEEEEEENS3_IdS9_EENS3_IdS6_EE
	_ZThn200_NK4inet13physicallayer18TwoRayInterference12computeRangeENS_5units5valueIdNS2_7composeINS2_5units1mENS2_3powINS5_1sELin1ELi1EEEEEEENS3_IdS9_EEd
	_ZThn200_NK4inet13physicallayer18TwoRayInterference13printToStreamERSoi
	_ZThn200_NK4inet13physicallayer18TwoRayInterference15computePathLossENS_5units5valueIdNS2_7composeINS2_5units1mENS2_3powINS5_1sELin1ELi1EEEEEEENS3_IdS9_EENS3_IdS6_EE
	_ZThn200_NK4inet13physicallayer18TwoRayInterference15computePathLossEPKNS0_13ITransmissionEPKNS0_8IArrivalE
	_ZThn200_NK4inet13physicallayer19UnitDiskAnalogModel11computeSNIREPKNS0_10IReceptionEPKNS0_6INoiseE
	_ZThn200_NK4inet13physicallayer19UnitDiskAnalogModel12computeNoiseEPKNS0_10IListeningEPKNS0_13IInterferenceE
	_ZThn200_NK4inet13physicallayer19UnitDiskAnalogModel12computeNoiseEPKNS0_10IReceptionEPKNS0_6INoiseE
	_ZThn200_NK4inet13physicallayer19UnitDiskAnalogModel13printToStreamERSoi
	_ZThn200_NK4inet13physicallayer19UnitDiskAnalogModel16computeReceptionEPKNS0_6IRadioEPKNS0_13ITransmissionEPKNS0_8IArrivalE
	_ZThn200_NK4inet13physicallayer20StochasticErrorModel13printToStreamERSoi
	_ZThn200_NK4inet13physicallayer20StochasticErrorModel19computeBitErrorRateEPKNS0_5ISnirENS0_12IRadioSignal10SignalPartE
	_ZThn200_NK4inet13physicallayer20StochasticErrorModel22computePacketErrorRateEPKNS0_5ISnirENS0_12IRadioSignal10SignalPartE
	_ZThn200_NK4inet13physicallayer20StochasticErrorModel22computeSymbolErrorRateEPKNS0_5ISnirENS0_12IRadioSignal10SignalPartE
	_ZThn200_NK4inet13physicallayer21ApskLayeredErrorModel13printToStreamERSoi
	_ZThn200_NK4inet13physicallayer21ApskLayeredErrorModel15computeBitModelEPKNS0_19LayeredTransmissionEPKNS0_5ISnirE
	_ZThn200_NK4inet13physicallayer21ApskLayeredErrorModel18computePacketModelEPKNS0_19LayeredTransmissionEPKNS0_5ISnirE
	_ZThn200_NK4inet13physicallayer21ApskLayeredErrorModel18computeSampleModelEPKNS0_19LayeredTransmissionEPKNS0_5ISnirE
	_ZThn200_NK4inet13physicallayer21ApskLayeredErrorModel18computeSymbolModelEPKNS0_19LayeredTransmissionEPKNS0_5ISnirE
	_ZThn200_NK4inet13physicallayer21MapCommunicationCache13printToStreamERSoi
	_ZThn200_NK4inet13physicallayer21MapCommunicationCache15getTransmissionEi
	_ZThn200_NK4inet13physicallayer21MapCommunicationCache16mapTransmissionsESt8functionIFvPKNS0_13ITransmissionEEE
	_ZThn200_NK4inet13physicallayer21MapCommunicationCache8getRadioEi
	_ZThn200_NK4inet13physicallayer21MapCommunicationCache9mapRadiosESt8functionIFvPKNS0_6IRadioEEE
	_ZThn200_NK4inet13physicallayer22DielectricObstacleLoss13printToStreamERSoi
	_ZThn200_NK4inet13physicallayer22DielectricObstacleLoss19computeObstacleLossENS_5units5valueIdNS2_3powINS2_5units1sELin1ELi1EEEEERKNS_5CoordESB_
	_ZThn200_NK4inet13physicallayer22TwoRayGroundReflection13printToStreamERSoi
	_ZThn200_NK4inet13physicallayer22TwoRayGroundReflection15computePathLossEPKNS0_13ITransmissionEPKNS0_8IArrivalE
	_ZThn200_NK4inet13physicallayer23ConstantTimePropagation13printToStreamERSoi
	_ZThn200_NK4inet13physicallayer23ConstantTimePropagation14computeArrivalEPKNS0_13ITransmissionEPNS_9IMobilityE
	_ZThn200_NK4inet13physicallayer23Ieee80211ErrorModelBase19computeBitErrorRateEPKNS0_5ISnirENS0_12IRadioSignal10SignalPartE
	_ZThn200_NK4inet13physicallayer23Ieee80211ErrorModelBase22computePacketErrorRateEPKNS0_5ISnirENS0_12IRadioSignal10SignalPartE
	_ZThn200_NK4inet13physicallayer23Ieee80211ErrorModelBase22computeSymbolErrorRateEPKNS0_5ISnirENS0_12IRadioSignal10SignalPartE
	_ZThn200_NK4inet13physicallayer23Ieee80211NistErrorModel13printToStreamERSoi
	_ZThn200_NK4inet13physicallayer23Ieee80211OfdmErrorModel13printToStreamERSoi
	_ZThn200_NK4inet13physicallayer23Ieee80211YansErrorModel13printToStreamERSoi
	_ZThn200_NK4inet13physicallayer23UwbIrStochasticPathLoss12computeRangeENS_5units5valueIdNS2_7composeINS2_5units1mENS2_3powINS5_1sELin1ELi1EEEEEEENS3_IdS9_EEd
	_ZThn200_NK4inet13physicallayer23UwbIrStochasticPathLoss13printToStreamERSoi
	_ZThn200_NK4inet13physicallayer23UwbIrStochasticPathLoss15computePathLossENS_5units5valueIdNS2_7composeINS2_5units1mENS2_3powINS5_1sELin1ELi1EEEEEEENS3_IdS9_EENS3_IdS6_EE
	_ZThn200_NK4inet13physicallayer24ConstantSpeedPropagation13printToStreamERSoi
	_ZThn200_NK4inet13physicallayer24ConstantSpeedPropagation14computeArrivalEPKNS0_13ITransmissionEPNS_9IMobilityE
	_ZThn200_NK4inet13physicallayer24VectorCommunicationCache13printToStreamERSoi
	_ZThn200_NK4inet13physicallayer24VectorCommunicationCache15getTransmissionEi
	_ZThn200_NK4inet13physicallayer24VectorCommunicationCache16mapTransmissionsESt8functionIFvPKNS0_13ITransmissionEEE
	_ZThn200_NK4inet13physicallayer24VectorCommunicationCache8getRadioEi
	_ZThn200_NK4inet13physicallayer24VectorCommunicationCache9mapRadiosESt8functionIFvPKNS0_6IRadioEEE
	_ZThn200_NK4inet13physicallayer27Ieee80211BerTableErrorModel13printToStreamERSoi
	_ZThn200_NK4inet13physicallayer27Ieee80211BerTableErrorModel19computeBitErrorRateEPKNS0_5ISnirENS0_12IRadioSignal10SignalPartE
	_ZThn200_NK4inet13physicallayer27Ieee80211BerTableErrorModel22computePacketErrorRateEPKNS0_5ISnirENS0_12IRadioSignal10SignalPartE
	_ZThn200_NK4inet13physicallayer27Ieee80211BerTableErrorModel22computeSymbolErrorRateEPKNS0_5ISnirENS0_12IRadioSignal10SignalPartE
	_ZThn200_NK4inet13physicallayer27NoiseDimensionalTransmitter13printToStreamERSoi
	_ZThn200_NK4inet13physicallayer27ReferenceCommunicationCache13printToStreamERSoi
	_ZThn200_NK4inet13physicallayer27ReferenceCommunicationCache15getTransmissionEi
	_ZThn200_NK4inet13physicallayer27ReferenceCommunicationCache16mapTransmissionsESt8functionIFvPKNS0_13ITransmissionEEE
	_ZThn200_NK4inet13physicallayer27ReferenceCommunicationCache8getRadioEi
	_ZThn200_NK4inet13physicallayer27ReferenceCommunicationCache9mapRadiosESt8functionIFvPKNS0_6IRadioEEE
	_ZThn200_NK4inet13physicallayer27StochasticLayeredErrorModel13printToStreamERSoi
	_ZThn200_NK4inet13physicallayer27StochasticLayeredErrorModel15computeBitModelEPKNS0_19LayeredTransmissionEPKNS0_5ISnirE
	_ZThn200_NK4inet13physicallayer27StochasticLayeredErrorModel18computePacketModelEPKNS0_19LayeredTransmissionEPKNS0_5ISnirE
	_ZThn200_NK4inet13physicallayer27StochasticLayeredErrorModel18computeSampleModelEPKNS0_19LayeredTransmissionEPKNS0_5ISnirE
	_ZThn200_NK4inet13physicallayer27StochasticLayeredErrorModel18computeSymbolModelEPKNS0_19LayeredTransmissionEPKNS0_5ISnirE
	_ZThn200_NK4inet13physicallayer30IsotropicScalarBackgroundNoise12computeNoiseEPKNS0_10IListeningE
	_ZThn200_NK4inet13physicallayer30IsotropicScalarBackgroundNoise13printToStreamERSoi
	_ZThn200_NK4inet13physicallayer35IsotropicDimensionalBackgroundNoise12computeNoiseEPKNS0_10IListeningE
	_ZThn200_NK4inet13physicallayer35IsotropicDimensionalBackgroundNoise13printToStreamERSoi
	_ZThn200_NK4inet19physicalenvironment19PhysicalEnvironment11getSpaceMaxEv
	_ZThn200_NK4inet19physicalenvironment19PhysicalEnvironment11getSpaceMinEv
	_ZThn200_NK4inet19physicalenvironment19PhysicalEnvironment12visitObjectsEPKNS_8IVisitorERKNS_11LineSegmentE
	_ZThn200_NK4inet19physicalenvironment19PhysicalEnvironment13getNumObjectsEv
	_ZThn200_NK4inet19physicalenvironment19PhysicalEnvironment14getObjectCacheEv
	_ZThn200_NK4inet19physicalenvironment19PhysicalEnvironment19getMaterialRegistryEv
	_ZThn200_NK4inet19physicalenvironment19PhysicalEnvironment9getGroundEv
	_ZThn216_N4inet10DhcpClientD0Ev
	_ZThn216_N4inet10DhcpClientD1Ev
	_ZThn216_N4inet10DhcpServerD0Ev
	_ZThn216_N4inet10DhcpServerD1Ev
	_ZThn216_N4inet10DscpMarkerD0Ev
	_ZThn216_N4inet10DscpMarkerD1Ev
	_ZThn216_N4inet10EtherEncapD0Ev
	_ZThn216_N4inet10EtherEncapD1Ev
	_ZThn216_N4inet10MoBanLocal18getCurrentPositionEv
	_ZThn216_N4inet10MoBanLocal18getCurrentVelocityEv
	_ZThn216_N4inet10MoBanLocalD0Ev
	_ZThn216_N4inet10MoBanLocalD1Ev
	_ZThn216_N4inet10NodeStatus20handleOperationStageEPNS_18LifecycleOperationEPNS_13IDoneCallbackE
	_ZThn216_N4inet10NodeStatusD0Ev
	_ZThn216_N4inet10NodeStatusD1Ev
	_ZThn216_N4inet10SctpClient12socketClosedEPNS_10SctpSocketE
	_ZThn216_N4inet10SctpClient13socketFailureEPNS_10SctpSocketEi
	_ZThn216_N4inet10SctpClient15socketAvailableEPNS_10SctpSocketEPNS_10IndicationE
	_ZThn216_N4inet10SctpClient16socketPeerClosedEPNS_10SctpSocketE
	_ZThn216_N4inet10SctpClient17socketDataArrivedEPNS_10SctpSocketEPNS_6PacketEb
	_ZThn216_N4inet10SctpClient17socketEstablishedEPNS_10SctpSocketEm
	_ZThn216_N4inet10SctpClient18sendRequestArrivedEPNS_10SctpSocketE
	_ZThn216_N4inet10SctpClient19msgAbandonedArrivedEPNS_10SctpSocketE
	_ZThn216_N4inet10SctpClient19socketStatusArrivedEPNS_10SctpSocketEPNS_13SctpStatusReqE
	_ZThn216_N4inet10SctpClient22sendqueueAbatedArrivedEPNS_10SctpSocketEm
	_ZThn216_N4inet10SctpClient23shutdownReceivedArrivedEPNS_10SctpSocketE
	_ZThn216_N4inet10SctpClient29socketDataNotificationArrivedEPNS_10SctpSocketEPNS_7MessageE
	_ZThn216_N4inet10SctpClientD0Ev
	_ZThn216_N4inet10SctpClientD1Ev
	_ZThn216_N4inet10SctpServerD0Ev
	_ZThn216_N4inet10SctpServerD1Ev
	_ZThn216_N4inet10TcpAppBaseD0Ev
	_ZThn216_N4inet10TcpAppBaseD1Ev
	_ZThn216_N4inet10TcpEchoAppD0Ev
	_ZThn216_N4inet10TcpEchoAppD1Ev
	_ZThn216_N4inet10TcpSinkAppD0Ev
	_ZThn216_N4inet10TcpSinkAppD1Ev
	_ZThn216_N4inet10UdpEchoAppD0Ev
	_ZThn216_N4inet10UdpEchoAppD1Ev
	_ZThn216_N4inet10VlanTunnel12socketClosedEPNS_14EthernetSocketE
	_ZThn216_N4inet10VlanTunnel17socketDataArrivedEPNS_14EthernetSocketEPNS_6PacketE
	_ZThn216_N4inet10VlanTunnel18socketErrorArrivedEPNS_14EthernetSocketEPNS_10IndicationE
	_ZThn216_N4inet10VlanTunnelD0Ev
	_ZThn216_N4inet10VlanTunnelD1Ev
	_ZThn216_N4inet11Ieee8022LlcD0Ev
	_ZThn216_N4inet11Ieee8022LlcD1Ev
	_ZThn216_N4inet11IpvxTrafGenD0Ev
	_ZThn216_N4inet11IpvxTrafGenD1Ev
	_ZThn216_N4inet11NetworkInfo14processCommandERKN7omnetpp11cXMLElementE
	_ZThn216_N4inet11NetworkInfoD0Ev
	_ZThn216_N4inet11NetworkInfoD1Ev
	_ZThn216_N4inet11SctpNatPeer12socketClosedEPNS_10SctpSocketE
	_ZThn216_N4inet11SctpNatPeer13socketFailureEPNS_10SctpSocketEi
	_ZThn216_N4inet11SctpNatPeer15socketAvailableEPNS_10SctpSocketEPNS_10IndicationE
	_ZThn216_N4inet11SctpNatPeer16socketPeerClosedEPNS_10SctpSocketE
	_ZThn216_N4inet11SctpNatPeer17socketDataArrivedEPNS_10SctpSocketEPNS_6PacketEb
	_ZThn216_N4inet11SctpNatPeer17socketEstablishedEPNS_10SctpSocketEm
	_ZThn216_N4inet11SctpNatPeer18sendRequestArrivedEPNS_10SctpSocketE
	_ZThn216_N4inet11SctpNatPeer19addressAddedArrivedEPNS_10SctpSocketENS_9L3AddressES3_
	_ZThn216_N4inet11SctpNatPeer19msgAbandonedArrivedEPNS_10SctpSocketE
	_ZThn216_N4inet11SctpNatPeer19socketStatusArrivedEPNS_10SctpSocketEPNS_13SctpStatusReqE
	_ZThn216_N4inet11SctpNatPeer20sendqueueFullArrivedEPNS_10SctpSocketE
	_ZThn216_N4inet11SctpNatPeer23shutdownReceivedArrivedEPNS_10SctpSocketE
	_ZThn216_N4inet11SctpNatPeer29socketDataNotificationArrivedEPNS_10SctpSocketEPNS_7MessageE
	_ZThn216_N4inet11SctpNatPeerD0Ev
	_ZThn216_N4inet11SctpNatPeerD1Ev
	_ZThn216_N4inet11ShortcutMacD0Ev
	_ZThn216_N4inet11ShortcutMacD1Ev
	_ZThn216_N4inet11UdpBasicAppD0Ev
	_ZThn216_N4inet11UdpBasicAppD1Ev
	_ZThn216_N4inet11UdpSocketIoD0Ev
	_ZThn216_N4inet11UdpSocketIoD1Ev
	_ZThn216_N4inet12EtherMacBaseD0Ev
	_ZThn216_N4inet12EtherMacBaseD1Ev
	_ZThn216_N4inet12EtherTrafGenD0Ev
	_ZThn216_N4inet12EtherTrafGenD1Ev
	_ZThn216_N4inet12Ipv4NatTable19datagramForwardHookEPNS_6PacketE
	_ZThn216_N4inet12Ipv4NatTable19datagramLocalInHookEPNS_6PacketE
	_ZThn216_N4inet12Ipv4NatTable20datagramLocalOutHookEPNS_6PacketE
	_ZThn216_N4inet12Ipv4NatTable22datagramPreRoutingHookEPNS_6PacketE
	_ZThn216_N4inet12Ipv4NatTable23datagramPostRoutingHookEPNS_6PacketE
	_ZThn216_N4inet12Ipv4NatTableD0Ev
	_ZThn216_N4inet12Ipv4NatTableD1Ev
	_ZThn216_N4inet12IpvxTrafSinkD0Ev
	_ZThn216_N4inet12IpvxTrafSinkD1Ev
	_ZThn216_N4inet12MacRelayUnitD0Ev
	_ZThn216_N4inet12MacRelayUnitD1Ev
	_ZThn216_N4inet12MassMobilityD0Ev
	_ZThn216_N4inet12MassMobilityD1Ev
	_ZThn216_N4inet12MobilityBaseD0Ev
	_ZThn216_N4inet12MobilityBaseD1Ev
	_ZThn216_N4inet12NetAnimTrace13receiveSignalEPN7omnetpp10cComponentEiPNS1_7cObjectES5_
	_ZThn216_N4inet12NetAnimTraceD0Ev
	_ZThn216_N4inet12NetAnimTraceD1Ev
	_ZThn216_N4inet12PcapRecorder13receiveSignalEPN7omnetpp10cComponentEiPNS1_7cObjectES5_
	_ZThn216_N4inet12PcapRecorderD0Ev
	_ZThn216_N4inet12PcapRecorderD1Ev
	_ZThn216_N4inet13AnsimMobilityD0Ev
	_ZThn216_N4inet13AnsimMobilityD1Ev
	_ZThn216_N4inet13Ieee802154MacD0Ev
	_ZThn216_N4inet13Ieee802154MacD1Ev
	_ZThn216_N4inet13Ipv6TunnelingD0Ev
	_ZThn216_N4inet13Ipv6TunnelingD1Ev
	_ZThn216_N4inet13QosClassifier21handleRegisterServiceERKNS_8ProtocolEPN7omnetpp5cGateENS_16ServicePrimitiveE
	_ZThn216_N4inet13QosClassifier22handleRegisterProtocolERKNS_8ProtocolEPN7omnetpp5cGateENS_16ServicePrimitiveE
	_ZThn216_N4inet13SctpNatServerD0Ev
	_ZThn216_N4inet13SctpNatServerD1Ev
	_ZThn216_N4inet13TcpSessionAppD0Ev
	_ZThn216_N4inet13TcpSessionAppD1Ev
	_ZThn216_N4inet13UdpBasicBurstD0Ev
	_ZThn216_N4inet13UdpBasicBurstD1Ev
	_ZThn216_N4inet13physicallayer11ApskDecoderD0Ev
	_ZThn216_N4inet13physicallayer11ApskDecoderD1Ev
	_ZThn216_N4inet13physicallayer11RadioMedium13receiveSignalEPN7omnetpp10cComponentEiPNS2_7cObjectES6_
	_ZThn216_N4inet13physicallayer11RadioMedium13receiveSignalEPN7omnetpp10cComponentEilPNS2_7cObjectE
	_ZThn216_N4inet13physicallayer11RadioMediumD0Ev
	_ZThn216_N4inet13physicallayer11RadioMediumD1Ev
	_ZThn216_N4inet13physicallayer13FlatRadioBaseD0Ev
	_ZThn216_N4inet13physicallayer13FlatRadioBaseD1Ev
	_ZThn216_N4inet13physicallayer13ShortcutRadioD0Ev
	_ZThn216_N4inet13physicallayer13ShortcutRadioD1Ev
	_ZThn216_N4inet13physicallayer13UnitDiskRadioD0Ev
	_ZThn216_N4inet13physicallayer13UnitDiskRadioD1Ev
	_ZThn216_N4inet13physicallayer14Ieee80211RadioD0Ev
	_ZThn216_N4inet13physicallayer14Ieee80211RadioD1Ev
	_ZThn216_N4inet13physicallayer17GridNeighborCache11removeRadioEPKNS0_6IRadioE
	_ZThn216_N4inet13physicallayer17GridNeighborCache8addRadioEPKNS0_6IRadioE
	_ZThn216_N4inet13physicallayer17GridNeighborCacheD0Ev
	_ZThn216_N4inet13physicallayer17GridNeighborCacheD1Ev
	_ZThn216_N4inet13physicallayer17PhysicalLayerBaseD0Ev
	_ZThn216_N4inet13physicallayer17PhysicalLayerBaseD1Ev
	_ZThn216_N4inet13physicallayer18Ieee80211OfdmRadioD0Ev
	_ZThn216_N4inet13physicallayer18Ieee80211OfdmRadioD1Ev
	_ZThn216_N4inet13physicallayer19NarrowbandRadioBaseD0Ev
	_ZThn216_N4inet13physicallayer19NarrowbandRadioBaseD1Ev
	_ZThn216_N4inet13physicallayer21QuadTreeNeighborCache11removeRadioEPKNS0_6IRadioE
	_ZThn216_N4inet13physicallayer21QuadTreeNeighborCache8addRadioEPKNS0_6IRadioE
	_ZThn216_N4inet13physicallayer21QuadTreeNeighborCacheD0Ev
	_ZThn216_N4inet13physicallayer21QuadTreeNeighborCacheD1Ev
	_ZThn216_N4inet13physicallayer23AdditiveScramblerModuleD0Ev
	_ZThn216_N4inet13physicallayer23AdditiveScramblerModuleD1Ev
	_ZThn216_N4inet13physicallayer23Ieee80211OfdmErrorModelD0Ev
	_ZThn216_N4inet13physicallayer23Ieee80211OfdmErrorModelD1Ev
	_ZThn216_N4inet13physicallayer24ConvolutionalCoderModuleD0Ev
	_ZThn216_N4inet13physicallayer24ConvolutionalCoderModuleD1Ev
	_ZThn216_N4inet13physicallayer25NeighborListNeighborCache11removeRadioEPKNS0_6IRadioE
	_ZThn216_N4inet13physicallayer25NeighborListNeighborCache8addRadioEPKNS0_6IRadioE
	_ZThn216_N4inet13physicallayer25NeighborListNeighborCacheD0Ev
	_ZThn216_N4inet13physicallayer25NeighborListNeighborCacheD1Ev
	_ZThn216_N4inet13physicallayer26Ieee80211OfdmDecoderModuleD0Ev
	_ZThn216_N4inet13physicallayer26Ieee80211OfdmDecoderModuleD1Ev
	_ZThn216_N4inet13physicallayer26StateBasedCcEnergyConsumer13receiveSignalEPN7omnetpp10cComponentEidPNS2_7cObjectE
	_ZThn216_N4inet13physicallayer26StateBasedCcEnergyConsumer13receiveSignalEPN7omnetpp10cComponentEilPNS2_7cObjectE
	_ZThn216_N4inet13physicallayer26StateBasedCcEnergyConsumerD0Ev
	_ZThn216_N4inet13physicallayer26StateBasedCcEnergyConsumerD1Ev
	_ZThn216_N4inet13physicallayer26StateBasedEpEnergyConsumerD0Ev
	_ZThn216_N4inet13physicallayer26StateBasedEpEnergyConsumerD1Ev
	_ZThn216_N4inet13physicallayer30Ieee80211OfdmInterleaverModuleD0Ev
	_ZThn216_N4inet13physicallayer30Ieee80211OfdmInterleaverModuleD1Ev
	_ZThn216_N4inet13physicallayer5RadioD0Ev
	_ZThn216_N4inet13physicallayer5RadioD1Ev
	_ZThn216_N4inet13physicallayer9ApskRadioD0Ev
	_ZThn216_N4inet13physicallayer9ApskRadioD1Ev
	_ZThn216_N4inet14ChiangMobilityD0Ev
	_ZThn216_N4inet14ChiangMobilityD1Ev
	_ZThn216_N4inet14CircleMobility25getCurrentAngularVelocityEv
	_ZThn216_N4inet14CircleMobility29getCurrentAngularAccelerationEv
	_ZThn216_N4inet14CircleMobilityD0Ev
	_ZThn216_N4inet14CircleMobilityD1Ev
	_ZThn216_N4inet14EtherAppClientD0Ev
	_ZThn216_N4inet14EtherAppClientD1Ev
	_ZThn216_N4inet14EtherAppServerD0Ev
	_ZThn216_N4inet14EtherAppServerD1Ev
	_ZThn216_N4inet14FacingMobility18getCurrentPositionEv
	_ZThn216_N4inet14FacingMobility18getCurrentVelocityEv
	_ZThn216_N4inet14FacingMobility22getCurrentAccelerationEv
	_ZThn216_N4inet14FacingMobility25getCurrentAngularPositionEv
	_ZThn216_N4inet14FacingMobility25getCurrentAngularVelocityEv
	_ZThn216_N4inet14FacingMobility29getCurrentAngularAccelerationEv
	_ZThn216_N4inet14FacingMobilityD0Ev
	_ZThn216_N4inet14FacingMobilityD1Ev
	_ZThn216_N4inet14Ieee8021dRelayD0Ev
	_ZThn216_N4inet14Ieee8021dRelayD1Ev
	_ZThn216_N4inet14InterfaceTableD0Ev
	_ZThn216_N4inet14InterfaceTableD1Ev
	_ZThn216_N4inet14LinearMobilityD0Ev
	_ZThn216_N4inet14LinearMobilityD1Ev
	_ZThn216_N4inet14PacketDrillAppD0Ev
	_ZThn216_N4inet14PacketDrillAppD1Ev
	_ZThn216_N4inet14RsvpClassifier14processCommandERKN7omnetpp11cXMLElementE
	_ZThn216_N4inet14RsvpClassifierD0Ev
	_ZThn216_N4inet14RsvpClassifierD1Ev
	_ZThn216_N4inet14RtpApplicationD0Ev
	_ZThn216_N4inet14RtpApplicationD1Ev
	_ZThn216_N4inet14TunLoopbackAppD0Ev
	_ZThn216_N4inet14TunLoopbackAppD1Ev
	_ZThn216_N4inet14TurtleMobilityD0Ev
	_ZThn216_N4inet14TurtleMobilityD1Ev
	_ZThn216_N4inet15ApplicationBaseD0Ev
	_ZThn216_N4inet15ApplicationBaseD1Ev
	_ZThn216_N4inet15MacAddressTableD0Ev
	_ZThn216_N4inet15MacAddressTableD1Ev
	_ZThn216_N4inet15MacProtocolBaseD0Ev
	_ZThn216_N4inet15MacProtocolBaseD1Ev
	_ZThn216_N4inet15OperationalBase20handleOperationStageEPNS_18LifecycleOperationEPNS_13IDoneCallbackE
	_ZThn216_N4inet15OperationalBaseD0Ev
	_ZThn216_N4inet15OperationalBaseD1Ev
	_ZThn216_N4inet15PacketMeterBaseD0Ev
	_ZThn216_N4inet15PacketMeterBaseD1Ev
	_ZThn216_N4inet15TractorMobilityD0Ev
	_ZThn216_N4inet15TractorMobilityD1Ev
	_ZThn216_N4inet15VehicleMobilityD0Ev
	_ZThn216_N4inet15VehicleMobilityD1Ev
	_ZThn216_N4inet16AttachedMobility18getCurrentPositionEv
	_ZThn216_N4inet16AttachedMobility18getCurrentVelocityEv
	_ZThn216_N4inet16AttachedMobility22getCurrentAccelerationEv
	_ZThn216_N4inet16AttachedMobility25getCurrentAngularPositionEv
	_ZThn216_N4inet16AttachedMobility25getCurrentAngularVelocityEv
	_ZThn216_N4inet16AttachedMobility29getCurrentAngularAccelerationEv
	_ZThn216_N4inet16AttachedMobilityD0Ev
	_ZThn216_N4inet16AttachedMobilityD1Ev
	_ZThn216_N4inet16CloudDelayerBase19datagramForwardHookEPNS_6PacketE
	_ZThn216_N4inet16CloudDelayerBase19datagramLocalInHookEPNS_6PacketE
	_ZThn216_N4inet16CloudDelayerBase20datagramLocalOutHookEPNS_6PacketE
	_ZThn216_N4inet16CloudDelayerBase22datagramPreRoutingHookEPNS_6PacketE
	_ZThn216_N4inet16CloudDelayerBase23datagramPostRoutingHookEPNS_6PacketE
	_ZThn216_N4inet16CloudDelayerBaseD0Ev
	_ZThn216_N4inet16CloudDelayerBaseD1Ev
	_ZThn216_N4inet16Ipv4RoutingTable11createRouteEv
	_ZThn216_N4inet16Ipv4RoutingTable11deleteRouteEPNS_6IRouteE
	_ZThn216_N4inet16Ipv4RoutingTable11deleteRouteEPNS_9Ipv4RouteE
	_ZThn216_N4inet16Ipv4RoutingTable11removeRouteEPNS_6IRouteE
	_ZThn216_N4inet16Ipv4RoutingTable11removeRouteEPNS_9Ipv4RouteE
	_ZThn216_N4inet16Ipv4RoutingTable11setRouterIdENS_11Ipv4AddressE
	_ZThn216_N4inet16Ipv4RoutingTable12routeChangedEPNS_9Ipv4RouteEi
	_ZThn216_N4inet16Ipv4RoutingTable13getHostModuleEv
	_ZThn216_N4inet16Ipv4RoutingTable17addMulticastRouteEPNS_15IMulticastRouteE
	_ZThn216_N4inet16Ipv4RoutingTable17addMulticastRouteEPNS_18Ipv4MulticastRouteE
	_ZThn216_N4inet16Ipv4RoutingTable20deleteMulticastRouteEPNS_15IMulticastRouteE
	_ZThn216_N4inet16Ipv4RoutingTable20deleteMulticastRouteEPNS_18Ipv4MulticastRouteE
	_ZThn216_N4inet16Ipv4RoutingTable20removeMulticastRouteEPNS_15IMulticastRouteE
	_ZThn216_N4inet16Ipv4RoutingTable20removeMulticastRouteEPNS_18Ipv4MulticastRouteE
	_ZThn216_N4inet16Ipv4RoutingTable21multicastRouteChangedEPNS_18Ipv4MulticastRouteEi
	_ZThn216_N4inet16Ipv4RoutingTable5purgeEv
	_ZThn216_N4inet16Ipv4RoutingTable8addRouteEPNS_6IRouteE
	_ZThn216_N4inet16Ipv4RoutingTable8addRouteEPNS_9Ipv4RouteE
	_ZThn216_N4inet16Ipv4RoutingTableD0Ev
	_ZThn216_N4inet16Ipv4RoutingTableD1Ev
	_ZThn216_N4inet16Ipv6RoutingTable11createRouteEv
	_ZThn216_N4inet16Ipv6RoutingTable11deleteRouteEPNS_6IRouteE
	_ZThn216_N4inet16Ipv6RoutingTable11removeRouteEPNS_6IRouteE
	_ZThn216_N4inet16Ipv6RoutingTable17addMulticastRouteEPNS_15IMulticastRouteE
	_ZThn216_N4inet16Ipv6RoutingTable20deleteMulticastRouteEPNS_15IMulticastRouteE
	_ZThn216_N4inet16Ipv6RoutingTable20removeMulticastRouteEPNS_15IMulticastRouteE
	_ZThn216_N4inet16Ipv6RoutingTable8addRouteEPNS_6IRouteE
	_ZThn216_N4inet16Ipv6RoutingTableD0Ev
	_ZThn216_N4inet16Ipv6RoutingTableD1Ev
	_ZThn216_N4inet16LinkStateRouting13receiveSignalEPN7omnetpp10cComponentEiPNS1_7cObjectES5_
	_ZThn216_N4inet16LinkStateRoutingD0Ev
	_ZThn216_N4inet16LinkStateRoutingD1Ev
	_ZThn216_N4inet16MoBanCoordinatorD0Ev
	_ZThn216_N4inet16MoBanCoordinatorD1Ev
	_ZThn216_N4inet16SimpleVoipSenderD0Ev
	_ZThn216_N4inet16SimpleVoipSenderD1Ev
	_ZThn216_N4inet16TcpEchoAppThreadD0Ev
	_ZThn216_N4inet16TcpEchoAppThreadD1Ev
	_ZThn216_N4inet16TcpServerHostAppD0Ev
	_ZThn216_N4inet16TcpServerHostAppD1Ev
	_ZThn216_N4inet16TcpSinkAppThreadD0Ev
	_ZThn216_N4inet16TcpSinkAppThreadD1Ev
	_ZThn216_N4inet16TokenBucketMeterD0Ev
	_ZThn216_N4inet16TokenBucketMeterD1Ev
	_ZThn216_N4inet17MessageDispatcher21handleRegisterServiceERKNS_8ProtocolEPN7omnetpp5cGateENS_16ServicePrimitiveE
	_ZThn216_N4inet17MessageDispatcher22handleRegisterProtocolERKNS_8ProtocolEPN7omnetpp5cGateENS_16ServicePrimitiveE
	_ZThn216_N4inet17NetfilterInfoHook19datagramForwardHookEPNS_6PacketE
	_ZThn216_N4inet17NetfilterInfoHook19datagramLocalInHookEPNS_6PacketE
	_ZThn216_N4inet17NetfilterInfoHook20datagramLocalOutHookEPNS_6PacketE
	_ZThn216_N4inet17NetfilterInfoHook22datagramPreRoutingHookEPNS_6PacketE
	_ZThn216_N4inet17NetfilterInfoHook23datagramPostRoutingHookEPNS_6PacketE
	_ZThn216_N4inet17NetfilterInfoHookD0Ev
	_ZThn216_N4inet17NetfilterInfoHookD1Ev
	_ZThn216_N4inet17NextHopForwardingD0Ev
	_ZThn216_N4inet17NextHopForwardingD1Ev
	_ZThn216_N4inet17Ns2MotionMobilityD0Ev
	_ZThn216_N4inet17Ns2MotionMobilityD1Ev
	_ZThn216_N4inet17PimInterfaceTable13receiveSignalEPN7omnetpp10cComponentEiPNS1_7cObjectES5_
	_ZThn216_N4inet17PimInterfaceTableD0Ev
	_ZThn216_N4inet17PimInterfaceTableD1Ev
	_ZThn216_N4inet17RectangleMobilityD0Ev
	_ZThn216_N4inet17RectangleMobilityD1Ev
	_ZThn216_N4inet17TcpBasicClientAppD0Ev
	_ZThn216_N4inet17TcpBasicClientAppD1Ev
	_ZThn216_N4inet17TcpClientSocketIo12socketClosedEPNS_9TcpSocketE
	_ZThn216_N4inet17TcpClientSocketIo13socketDeletedEPNS_9TcpSocketE
	_ZThn216_N4inet17TcpClientSocketIo13socketFailureEPNS_9TcpSocketEi
	_ZThn216_N4inet17TcpClientSocketIo15socketAvailableEPNS_9TcpSocketEPNS_16TcpAvailableInfoE
	_ZThn216_N4inet17TcpClientSocketIo16socketPeerClosedEPNS_9TcpSocketE
	_ZThn216_N4inet17TcpClientSocketIo17socketDataArrivedEPNS_9TcpSocketEPNS_6PacketEb
	_ZThn216_N4inet17TcpClientSocketIo17socketEstablishedEPNS_9TcpSocketE
	_ZThn216_N4inet17TcpClientSocketIo19socketStatusArrivedEPNS_9TcpSocketEPNS_13TcpStatusInfoE
	_ZThn216_N4inet17TcpClientSocketIoD0Ev
	_ZThn216_N4inet17TcpClientSocketIoD1Ev
	_ZThn216_N4inet17TcpServerListenerD0Ev
	_ZThn216_N4inet17TcpServerListenerD1Ev
	_ZThn216_N4inet17TcpServerSocketIo12socketClosedEPNS_9TcpSocketE
	_ZThn216_N4inet17TcpServerSocketIo13socketDeletedEPNS_9TcpSocketE
	_ZThn216_N4inet17TcpServerSocketIo13socketFailureEPNS_9TcpSocketEi
	_ZThn216_N4inet17TcpServerSocketIo15socketAvailableEPNS_9TcpSocketEPNS_16TcpAvailableInfoE
	_ZThn216_N4inet17TcpServerSocketIo16socketPeerClosedEPNS_9TcpSocketE
	_ZThn216_N4inet17TcpServerSocketIo17socketDataArrivedEPNS_9TcpSocketEPNS_6PacketEb
	_ZThn216_N4inet17TcpServerSocketIo17socketEstablishedEPNS_9TcpSocketE
	_ZThn216_N4inet17TcpServerSocketIo19socketStatusArrivedEPNS_9TcpSocketEPNS_13TcpStatusInfoE
	_ZThn216_N4inet17TcpServerSocketIoD0Ev
	_ZThn216_N4inet17TcpServerSocketIoD1Ev
	_ZThn216_N4inet18BonnMotionMobilityD0Ev
	_ZThn216_N4inet18BonnMotionMobilityD1Ev
	_ZThn216_N4inet18EtherMacFullDuplexD0Ev
	_ZThn216_N4inet18EtherMacFullDuplexD1Ev
	_ZThn216_N4inet18Ipv4RoutingTableLR11createRouteEv
	_ZThn216_N4inet18Ipv4RoutingTableLR11deleteRouteEPNS_6IRouteE
	_ZThn216_N4inet18Ipv4RoutingTableLR11deleteRouteEPNS_9Ipv4RouteE
	_ZThn216_N4inet18Ipv4RoutingTableLR11removeRouteEPNS_6IRouteE
	_ZThn216_N4inet18Ipv4RoutingTableLR11removeRouteEPNS_9Ipv4RouteE
	_ZThn216_N4inet18Ipv4RoutingTableLR11setRouterIdENS_11Ipv4AddressE
	_ZThn216_N4inet18Ipv4RoutingTableLR12routeChangedEPNS_9Ipv4RouteEi
	_ZThn216_N4inet18Ipv4RoutingTableLR13getHostModuleEv
	_ZThn216_N4inet18Ipv4RoutingTableLR17addMulticastRouteEPNS_15IMulticastRouteE
	_ZThn216_N4inet18Ipv4RoutingTableLR17addMulticastRouteEPNS_18Ipv4MulticastRouteE
	_ZThn216_N4inet18Ipv4RoutingTableLR20deleteMulticastRouteEPNS_15IMulticastRouteE
	_ZThn216_N4inet18Ipv4RoutingTableLR20deleteMulticastRouteEPNS_18Ipv4MulticastRouteE
	_ZThn216_N4inet18Ipv4RoutingTableLR20removeMulticastRouteEPNS_15IMulticastRouteE
	_ZThn216_N4inet18Ipv4RoutingTableLR20removeMulticastRouteEPNS_18Ipv4MulticastRouteE
	_ZThn216_N4inet18Ipv4RoutingTableLR21multicastRouteChangedEPNS_18Ipv4MulticastRouteEi
	_ZThn216_N4inet18Ipv4RoutingTableLR5purgeEv
	_ZThn216_N4inet18Ipv4RoutingTableLR8addRouteEPNS_6IRouteE
	_ZThn216_N4inet18Ipv4RoutingTableLR8addRouteEPNS_9Ipv4RouteE
	_ZThn216_N4inet18Ipv4RoutingTableLRD0Ev
	_ZThn216_N4inet18Ipv4RoutingTableLRD1Ev
	_ZThn216_N4inet18L2NodeConfigurator20handleOperationStageEPNS_18LifecycleOperationEPNS_13IDoneCallbackE
	_ZThn216_N4inet18L2NodeConfiguratorD0Ev
	_ZThn216_N4inet18L2NodeConfiguratorD1Ev
	_ZThn216_N4inet18MatrixCloudDelayerD0Ev
	_ZThn216_N4inet18MatrixCloudDelayerD1Ev
	_ZThn216_N4inet18MovingMobilityBase18getCurrentPositionEv
	_ZThn216_N4inet18MovingMobilityBase18getCurrentVelocityEv
	_ZThn216_N4inet18MovingMobilityBase22getCurrentAccelerationEv
	_ZThn216_N4inet18MovingMobilityBase25getCurrentAngularPositionEv
	_ZThn216_N4inet18MovingMobilityBase25getCurrentAngularVelocityEv
	_ZThn216_N4inet18MovingMobilityBase29getCurrentAngularAccelerationEv
	_ZThn216_N4inet18MovingMobilityBaseD0Ev
	_ZThn216_N4inet18MovingMobilityBaseD1Ev
	_ZThn216_N4inet18SimpleVoipReceiverD0Ev
	_ZThn216_N4inet18SimpleVoipReceiverD1Ev
	_ZThn216_N4inet18StaticGridMobilityD0Ev
	_ZThn216_N4inet18StaticGridMobilityD1Ev
	_ZThn216_N4inet18StationaryMobilityD0Ev
	_ZThn216_N4inet18StationaryMobilityD1Ev
	_ZThn216_N4inet19GaussMarkovMobilityD0Ev
	_ZThn216_N4inet19GaussMarkovMobilityD1Ev
	_ZThn216_N4inet19LayeredProtocolBaseD0Ev
	_ZThn216_N4inet19LayeredProtocolBaseD1Ev
	_ZThn216_N4inet19NetworkProtocolBaseD0Ev
	_ZThn216_N4inet19NetworkProtocolBaseD1Ev
	_ZThn216_N4inet19NextHopRoutingTable11createRouteEv
	_ZThn216_N4inet19NextHopRoutingTable11deleteRouteEPNS_6IRouteE
	_ZThn216_N4inet19NextHopRoutingTable11removeRouteEPNS_6IRouteE
	_ZThn216_N4inet19NextHopRoutingTable17addMulticastRouteEPNS_15IMulticastRouteE
	_ZThn216_N4inet19NextHopRoutingTable20deleteMulticastRouteEPNS_15IMulticastRouteE
	_ZThn216_N4inet19NextHopRoutingTable20removeMulticastRouteEPNS_15IMulticastRouteE
	_ZThn216_N4inet19NextHopRoutingTable8addRouteEPNS_6IRouteE
	_ZThn216_N4inet19NextHopRoutingTableD0Ev
	_ZThn216_N4inet19NextHopRoutingTableD1Ev
	_ZThn216_N4inet19RandomQosClassifier21handleRegisterServiceERKNS_8ProtocolEPN7omnetpp5cGateENS_16ServicePrimitiveE
	_ZThn216_N4inet19RandomQosClassifier22handleRegisterProtocolERKNS_8ProtocolEPN7omnetpp5cGateENS_16ServicePrimitiveE
	_ZThn216_N4inet19RoutingProtocolBaseD0Ev
	_ZThn216_N4inet19RoutingProtocolBaseD1Ev
	_ZThn216_N4inet19TcpGenericServerAppD0Ev
	_ZThn216_N4inet19TcpGenericServerAppD1Ev
	_ZThn216_N4inet19TcpServerThreadBase12socketClosedEPNS_9TcpSocketE
	_ZThn216_N4inet19TcpServerThreadBase13socketDeletedEPNS_9TcpSocketE
	_ZThn216_N4inet19TcpServerThreadBase13socketFailureEPNS_9TcpSocketEi
	_ZThn216_N4inet19TcpServerThreadBase15socketAvailableEPNS_9TcpSocketEPNS_16TcpAvailableInfoE
	_ZThn216_N4inet19TcpServerThreadBase16socketPeerClosedEPNS_9TcpSocketE
	_ZThn216_N4inet19TcpServerThreadBase17socketDataArrivedEPNS_9TcpSocketEPNS_6PacketEb
	_ZThn216_N4inet19TcpServerThreadBase17socketEstablishedEPNS_9TcpSocketE
	_ZThn216_N4inet19TcpServerThreadBase19socketStatusArrivedEPNS_9TcpSocketEPNS_13TcpStatusInfoE
	_ZThn216_N4inet19TcpServerThreadBaseD0Ev
	_ZThn216_N4inet19TcpServerThreadBaseD1Ev
	_ZThn216_N4inet20EtherFrameClassifierD0Ev
	_ZThn216_N4inet20EtherFrameClassifierD1Ev
	_ZThn216_N4inet20ExampleQosClassifier21handleRegisterServiceERKNS_8ProtocolEPN7omnetpp5cGateENS_16ServicePrimitiveE
	_ZThn216_N4inet20ExampleQosClassifier22handleRegisterProtocolERKNS_8ProtocolEPN7omnetpp5cGateENS_16ServicePrimitiveE
	_ZThn216_N4inet20HostAutoConfiguratorD0Ev
	_ZThn216_N4inet20HostAutoConfiguratorD1Ev
	_ZThn216_N4inet20Ipv4NodeConfigurator20handleOperationStageEPNS_18LifecycleOperationEPNS_13IDoneCallbackE
	_ZThn216_N4inet20Ipv4NodeConfiguratorD0Ev
	_ZThn216_N4inet20Ipv4NodeConfiguratorD1Ev
	_ZThn216_N4inet20MultiFieldClassifierD0Ev
	_ZThn216_N4inet20MultiFieldClassifierD1Ev
	_ZThn216_N4inet20RotatingMobilityBase25getCurrentAngularPositionEv
	_ZThn216_N4inet20RotatingMobilityBase25getCurrentAngularVelocityEv
	_ZThn216_N4inet20RotatingMobilityBaseD0Ev
	_ZThn216_N4inet20RotatingMobilityBaseD1Ev
	_ZThn216_N4inet20RoutingTableRecorder13receiveSignalEPN7omnetpp10cComponentEiPNS1_7cObjectES5_
	_ZThn216_N4inet20RoutingTableRecorderD0Ev
	_ZThn216_N4inet20RoutingTableRecorderD1Ev
	_ZThn216_N4inet20StaticLinearMobilityD0Ev
	_ZThn216_N4inet20StaticLinearMobilityD1Ev
	_ZThn216_N4inet20UdpVideoStreamClientD0Ev
	_ZThn216_N4inet20UdpVideoStreamClientD1Ev
	_ZThn216_N4inet20UdpVideoStreamServerD0Ev
	_ZThn216_N4inet20UdpVideoStreamServerD1Ev
	_ZThn216_N4inet21TransportProtocolBaseD0Ev
	_ZThn216_N4inet21TransportProtocolBaseD1Ev
	_ZThn216_N4inet22Ipv6NeighbourDiscoveryD0Ev
	_ZThn216_N4inet22Ipv6NeighbourDiscoveryD1Ev
	_ZThn216_N4inet22ProbabilisticBroadcastD0Ev
	_ZThn216_N4inet22ProbabilisticBroadcastD1Ev
	_ZThn216_N4inet22RandomWaypointMobilityD0Ev
	_ZThn216_N4inet22RandomWaypointMobilityD1Ev
	_ZThn216_N4inet22StationaryMobilityBase18getCurrentPositionEv
	_ZThn216_N4inet22StationaryMobilityBase18getCurrentVelocityEv
	_ZThn216_N4inet22StationaryMobilityBase22getCurrentAccelerationEv
	_ZThn216_N4inet22StationaryMobilityBase25getCurrentAngularPositionEv
	_ZThn216_N4inet22StationaryMobilityBase25getCurrentAngularVelocityEv
	_ZThn216_N4inet22StationaryMobilityBase29getCurrentAngularAccelerationEv
	_ZThn216_N4inet22StationaryMobilityBaseD0Ev
	_ZThn216_N4inet22StationaryMobilityBaseD1Ev
	_ZThn216_N4inet22TcpGenericServerThreadD0Ev
	_ZThn216_N4inet22TcpGenericServerThreadD1Ev
	_ZThn216_N4inet22TwoRateThreeColorMeterD0Ev
	_ZThn216_N4inet22TwoRateThreeColorMeterD1Ev
	_ZThn216_N4inet23Ipv4NetworkConfigurator23getInterfaceIpv4AddressERNS_9L3AddressEPNS_14InterfaceEntryEb
	_ZThn216_N4inet23Ipv4NetworkConfiguratorD0Ev
	_ZThn216_N4inet23Ipv4NetworkConfiguratorD1Ev
	_ZThn216_N4inet23NetworkConfiguratorBaseD0Ev
	_ZThn216_N4inet23NetworkConfiguratorBaseD1Ev
	_ZThn216_N4inet24LineSegmentsMobilityBaseD0Ev
	_ZThn216_N4inet24LineSegmentsMobilityBaseD1Ev
	_ZThn216_N4inet24StaticConcentricMobilityD0Ev
	_ZThn216_N4inet24StaticConcentricMobilityD1Ev
	_ZThn216_N4inet24SuperpositioningMobility18getCurrentPositionEv
	_ZThn216_N4inet24SuperpositioningMobility18getCurrentVelocityEv
	_ZThn216_N4inet24SuperpositioningMobility22getCurrentAccelerationEv
	_ZThn216_N4inet24SuperpositioningMobility25getCurrentAngularPositionEv
	_ZThn216_N4inet24SuperpositioningMobility25getCurrentAngularVelocityEv
	_ZThn216_N4inet24SuperpositioningMobility29getCurrentAngularAccelerationEv
	_ZThn216_N4inet24SuperpositioningMobilityD0Ev
	_ZThn216_N4inet24SuperpositioningMobilityD1Ev
	_ZThn216_N4inet25SingleRateThreeColorMeterD0Ev
	_ZThn216_N4inet25SingleRateThreeColorMeterD1Ev
	_ZThn216_N4inet26LinearRotatingMobilityBaseD0Ev
	_ZThn216_N4inet26LinearRotatingMobilityBaseD1Ev
	_ZThn216_N4inet26NextHopNetworkConfiguratorD0Ev
	_ZThn216_N4inet26NextHopNetworkConfiguratorD1Ev
	_ZThn216_N4inet27BehaviorAggregateClassifierD0Ev
	_ZThn216_N4inet27BehaviorAggregateClassifierD1Ev
	_ZThn216_N4inet30AdaptiveProbabilisticBroadcastD0Ev
	_ZThn216_N4inet30AdaptiveProbabilisticBroadcastD1Ev
	_ZThn216_N4inet3ArpD0Ev
	_ZThn216_N4inet3ArpD1Ev
	_ZThn216_N4inet3LdpD0Ev
	_ZThn216_N4inet3LdpD1Ev
	_ZThn216_N4inet3PimD0Ev
	_ZThn216_N4inet3PimD1Ev
	_ZThn216_N4inet3PppD0Ev
	_ZThn216_N4inet3PppD1Ev
	_ZThn216_N4inet3RipD0Ev
	_ZThn216_N4inet3RipD1Ev
	_ZThn216_N4inet3StpD0Ev
	_ZThn216_N4inet3StpD1Ev
	_ZThn216_N4inet3TedD0Ev
	_ZThn216_N4inet3TedD1Ev
	_ZThn216_N4inet3TunD0Ev
	_ZThn216_N4inet3TunD1Ev
	_ZThn216_N4inet3UdpD0Ev
	_ZThn216_N4inet3UdpD1Ev
	_ZThn216_N4inet3bgp3BgpD0Ev
	_ZThn216_N4inet3bgp3BgpD1Ev
	_ZThn216_N4inet3rtp3RtpD0Ev
	_ZThn216_N4inet3rtp3RtpD1Ev
	_ZThn216_N4inet3rtp4RtcpD0Ev
	_ZThn216_N4inet3rtp4RtcpD1Ev
	_ZThn216_N4inet3tcp3TcpD0Ev
	_ZThn216_N4inet3tcp3TcpD1Ev
	_ZThn216_N4inet4BMacD0Ev
	_ZThn216_N4inet4BMacD1Ev
	_ZThn216_N4inet4DsdvD0Ev
	_ZThn216_N4inet4DsdvD1Ev
	_ZThn216_N4inet4GpsrD0Ev
	_ZThn216_N4inet4GpsrD1Ev
	_ZThn216_N4inet4Icmp21handleRegisterServiceERKNS_8ProtocolEPN7omnetpp5cGateENS_16ServicePrimitiveE
	_ZThn216_N4inet4Icmp22handleRegisterProtocolERKNS_8ProtocolEPN7omnetpp5cGateENS_16ServicePrimitiveE
	_ZThn216_N4inet4Ipv4D0Ev
	_ZThn216_N4inet4Ipv4D1Ev
	_ZThn216_N4inet4Ipv612registerHookEiPNS_10INetfilter5IHookE
	_ZThn216_N4inet4Ipv614unregisterHookEPNS_10INetfilter5IHookE
	_ZThn216_N4inet4Ipv618dropQueuedDatagramEPKNS_6PacketE
	_ZThn216_N4inet4Ipv622reinjectQueuedDatagramEPKNS_6PacketE
	_ZThn216_N4inet4Ipv6D0Ev
	_ZThn216_N4inet4Ipv6D1Ev
	_ZThn216_N4inet4LMacD0Ev
	_ZThn216_N4inet4LMacD1Ev
	_ZThn216_N4inet4Mpls21handleRegisterServiceERKNS_8ProtocolEPN7omnetpp5cGateENS_16ServicePrimitiveE
	_ZThn216_N4inet4Mpls22handleRegisterProtocolERKNS_8ProtocolEPN7omnetpp5cGateENS_16ServicePrimitiveE
	_ZThn216_N4inet4RstpD0Ev
	_ZThn216_N4inet4RstpD1Ev
	_ZThn216_N4inet4XMacD0Ev
	_ZThn216_N4inet4XMacD1Ev
	_ZThn216_N4inet4aodv4AodvD0Ev
	_ZThn216_N4inet4aodv4AodvD1Ev
	_ZThn216_N4inet4dymo4DymoD0Ev
	_ZThn216_N4inet4dymo4DymoD1Ev
	_ZThn216_N4inet4sctp11SctpNatHook19datagramForwardHookEPNS_6PacketE
	_ZThn216_N4inet4sctp11SctpNatHook19datagramLocalInHookEPNS_6PacketE
	_ZThn216_N4inet4sctp11SctpNatHook20datagramLocalOutHookEPNS_6PacketE
	_ZThn216_N4inet4sctp11SctpNatHook22datagramPreRoutingHookEPNS_6PacketE
	_ZThn216_N4inet4sctp11SctpNatHook23datagramPostRoutingHookEPNS_6PacketE
	_ZThn216_N4inet4sctp11SctpNatHookD0Ev
	_ZThn216_N4inet4sctp11SctpNatHookD1Ev
	_ZThn216_N4inet5PimDmD0Ev
	_ZThn216_N4inet5PimDmD1Ev
	_ZThn216_N4inet5PimSmD0Ev
	_ZThn216_N4inet5PimSmD1Ev
	_ZThn216_N4inet5power15SimpleCcBattery29updateTotalCurrentConsumptionEv
	_ZThn216_N4inet5power15SimpleCcBatteryD0Ev
	_ZThn216_N4inet5power15SimpleCcBatteryD1Ev
	_ZThn216_N4inet5power19CcEnergyStorageBase17addEnergyConsumerEPKNS0_15IEnergyConsumerE
	_ZThn216_N4inet5power19CcEnergyStorageBase20removeEnergyConsumerEPKNS0_15IEnergyConsumerE
	_ZThn216_N4inet5power19CcEnergyStorageBase29updateTotalCurrentConsumptionEv
	_ZThn216_N4inet5power19CcEnergyStorageBaseD0Ev
	_ZThn216_N4inet5power19CcEnergyStorageBaseD1Ev
	_ZThn216_N4inet5power19EpEnergyStorageBase17addEnergyConsumerEPKNS0_15IEnergyConsumerE
	_ZThn216_N4inet5power19EpEnergyStorageBase20removeEnergyConsumerEPKNS0_15IEnergyConsumerE
	_ZThn216_N4inet5power19EpEnergyStorageBase27updateTotalPowerConsumptionEv
	_ZThn216_N4inet5power19EpEnergyStorageBaseD0Ev
	_ZThn216_N4inet5power19EpEnergyStorageBaseD1Ev
	_ZThn216_N4inet5power20IdealEpEnergyStorage27updateTotalPowerConsumptionEv
	_ZThn216_N4inet5power20IdealEpEnergyStorageD0Ev
	_ZThn216_N4inet5power20IdealEpEnergyStorageD1Ev
	_ZThn216_N4inet5power21SimpleEpEnergyStorage27updateTotalPowerConsumptionEv
	_ZThn216_N4inet5power21SimpleEpEnergyStorageD0Ev
	_ZThn216_N4inet5power21SimpleEpEnergyStorageD1Ev
	_ZThn216_N4inet5power24SimpleEpEnergyManagement13receiveSignalEPN7omnetpp10cComponentEidPNS2_7cObjectE
	_ZThn216_N4inet5power24SimpleEpEnergyManagementD0Ev
	_ZThn216_N4inet5power24SimpleEpEnergyManagementD1Ev
	_ZThn216_N4inet5power27AlternatingEpEnergyConsumerD0Ev
	_ZThn216_N4inet5power27AlternatingEpEnergyConsumerD1Ev
	_ZThn216_N4inet5power28AlternatingEpEnergyGeneratorD0Ev
	_ZThn216_N4inet5power28AlternatingEpEnergyGeneratorD1Ev
	_ZThn216_N4inet6Icmpv6D0Ev
	_ZThn216_N4inet6Icmpv6D1Ev
	_ZThn216_N4inet6Igmpv221handleRegisterServiceERKNS_8ProtocolEPN7omnetpp5cGateENS_16ServicePrimitiveE
	_ZThn216_N4inet6Igmpv222handleRegisterProtocolERKNS_8ProtocolEPN7omnetpp5cGateENS_16ServicePrimitiveE
	_ZThn216_N4inet6Igmpv313receiveSignalEPN7omnetpp10cComponentEiPNS1_7cObjectES5_
	_ZThn216_N4inet6Igmpv3D0Ev
	_ZThn216_N4inet6Igmpv3D1Ev
	_ZThn216_N4inet6RsvpTeD0Ev
	_ZThn216_N4inet6RsvpTeD1Ev
	_ZThn216_N4inet6ospfv26Ospfv2D0Ev
	_ZThn216_N4inet6ospfv26Ospfv2D1Ev
	_ZThn216_N4inet7PimBaseD0Ev
	_ZThn216_N4inet7PimBaseD1Ev
	_ZThn216_N4inet7PingAppD0Ev
	_ZThn216_N4inet7PingAppD1Ev
	_ZThn216_N4inet7StpBaseD0Ev
	_ZThn216_N4inet7StpBaseD1Ev
	_ZThn216_N4inet7UdpSinkD0Ev
	_ZThn216_N4inet7UdpSinkD1Ev
	_ZThn216_N4inet8EtherBus13receiveSignalEPN7omnetpp10cComponentEiPNS1_7cObjectES5_
	_ZThn216_N4inet8EtherBusD0Ev
	_ZThn216_N4inet8EtherBusD1Ev
	_ZThn216_N4inet8EtherHub13receiveSignalEPN7omnetpp10cComponentEiPNS1_7cObjectES5_
	_ZThn216_N4inet8EtherHubD0Ev
	_ZThn216_N4inet8EtherHubD1Ev
	_ZThn216_N4inet8EtherMacD0Ev
	_ZThn216_N4inet8EtherMacD1Ev
	_ZThn216_N4inet8FloodingD0Ev
	_ZThn216_N4inet8FloodingD1Ev
	_ZThn216_N4inet8LoopbackD0Ev
	_ZThn216_N4inet8LoopbackD1Ev
	_ZThn216_N4inet8SctpPeer12socketClosedEPNS_10SctpSocketE
	_ZThn216_N4inet8SctpPeer13socketFailureEPNS_10SctpSocketEi
	_ZThn216_N4inet8SctpPeer15socketAvailableEPNS_10SctpSocketEPNS_10IndicationE
	_ZThn216_N4inet8SctpPeer16socketPeerClosedEPNS_10SctpSocketE
	_ZThn216_N4inet8SctpPeer17socketDataArrivedEPNS_10SctpSocketEPNS_6PacketEb
	_ZThn216_N4inet8SctpPeer17socketEstablishedEPNS_10SctpSocketEm
	_ZThn216_N4inet8SctpPeer18sendRequestArrivedEPNS_10SctpSocketE
	_ZThn216_N4inet8SctpPeer19msgAbandonedArrivedEPNS_10SctpSocketE
	_ZThn216_N4inet8SctpPeer19socketStatusArrivedEPNS_10SctpSocketEPNS_13SctpStatusReqE
	_ZThn216_N4inet8SctpPeer20sendqueueFullArrivedEPNS_10SctpSocketE
	_ZThn216_N4inet8SctpPeer23shutdownReceivedArrivedEPNS_10SctpSocketE
	_ZThn216_N4inet8SctpPeer29socketDataNotificationArrivedEPNS_10SctpSocketEPNS_7MessageE
	_ZThn216_N4inet8SctpPeerD0Ev
	_ZThn216_N4inet8SctpPeerD1Ev
	_ZThn216_N4inet8queueing10PacketGateD0Ev
	_ZThn216_N4inet8queueing10PacketGateD1Ev
	_ZThn216_N4inet8queueing10RedDropperD0Ev
	_ZThn216_N4inet8queueing10RedDropperD1Ev
	_ZThn216_N4inet8queueing11PacketQueueD0Ev
	_ZThn216_N4inet8queueing11PacketQueueD1Ev
	_ZThn216_N4inet8queueing11RateLimiterD0Ev
	_ZThn216_N4inet8queueing11RateLimiterD1Ev
	_ZThn216_N4inet8queueing12PacketBufferD0Ev
	_ZThn216_N4inet8queueing12PacketBufferD1Ev
	_ZThn216_N4inet8queueing12PacketClonerD0Ev
	_ZThn216_N4inet8queueing12PacketClonerD1Ev
	_ZThn216_N4inet8queueing12PacketFilterD0Ev
	_ZThn216_N4inet8queueing12PacketFilterD1Ev
	_ZThn216_N4inet8queueing12PacketServerD0Ev
	_ZThn216_N4inet8queueing12PacketServerD1Ev
	_ZThn216_N4inet8queueing12PacketTaggerD0Ev
	_ZThn216_N4inet8queueing12PacketTaggerD1Ev
	_ZThn216_N4inet8queueing12WrrSchedulerD0Ev
	_ZThn216_N4inet8queueing12WrrSchedulerD1Ev
	_ZThn216_N4inet8queueing13PacketDelayerD0Ev
	_ZThn216_N4inet8queueing13PacketDelayerD1Ev
	_ZThn216_N4inet8queueing13PacketLabelerD0Ev
	_ZThn216_N4inet8queueing13PacketLabelerD1Ev
	_ZThn216_N4inet8queueing13WrrClassifierD0Ev
	_ZThn216_N4inet8queueing13WrrClassifierD1Ev
	_ZThn216_N4inet8queueing14LabelSchedulerD0Ev
	_ZThn216_N4inet8queueing14LabelSchedulerD1Ev
	_ZThn216_N4inet8queueing14PacketSinkBaseD0Ev
	_ZThn216_N4inet8queueing14PacketSinkBaseD1Ev
	_ZThn216_N4inet8queueing15LabelClassifierD0Ev
	_ZThn216_N4inet8queueing15LabelClassifierD1Ev
	_ZThn216_N4inet8queueing15MarkovSchedulerD0Ev
	_ZThn216_N4inet8queueing15MarkovSchedulerD1Ev
	_ZThn216_N4inet8queueing15PacketMeterBaseD0Ev
	_ZThn216_N4inet8queueing15PacketMeterBaseD1Ev
	_ZThn216_N4inet8queueing15PacketQueueBaseD0Ev
	_ZThn216_N4inet8queueing15PacketQueueBaseD1Ev
	_ZThn216_N4inet8queueing15PacketSchedulerD0Ev
	_ZThn216_N4inet8queueing15PacketSchedulerD1Ev
	_ZThn216_N4inet8queueing16ActivePacketSinkD0Ev
	_ZThn216_N4inet8queueing16ActivePacketSinkD1Ev
	_ZThn216_N4inet8queueing16MarkovClassifierD0Ev
	_ZThn216_N4inet8queueing16MarkovClassifierD1Ev
	_ZThn216_N4inet8queueing16PacketBufferBaseD0Ev
	_ZThn216_N4inet8queueing16PacketBufferBaseD1Ev
	_ZThn216_N4inet8queueing16PacketClassifierD0Ev
	_ZThn216_N4inet8queueing16PacketClassifierD1Ev
	_ZThn216_N4inet8queueing16PacketDuplicatorD0Ev
	_ZThn216_N4inet8queueing16PacketDuplicatorD1Ev
	_ZThn216_N4inet8queueing16PacketFilterBaseD0Ev
	_ZThn216_N4inet8queueing16PacketFilterBaseD1Ev
	_ZThn216_N4inet8queueing16PacketMarkerBaseD0Ev
	_ZThn216_N4inet8queueing16PacketMarkerBaseD1Ev
	_ZThn216_N4inet8queueing16PacketServerBaseD0Ev
	_ZThn216_N4inet8queueing16PacketServerBaseD1Ev
	_ZThn216_N4inet8queueing16PacketSourceBaseD0Ev
	_ZThn216_N4inet8queueing16PacketSourceBaseD1Ev
	_ZThn216_N4inet8queueing16PacketTaggerBaseD0Ev
	_ZThn216_N4inet8queueing16PacketTaggerBaseD1Ev
	_ZThn216_N4inet8queueing16TokenBasedServerD0Ev
	_ZThn216_N4inet8queueing16TokenBasedServerD1Ev
	_ZThn216_N4inet8queueing17EmptyPacketSourceD0Ev
	_ZThn216_N4inet8queueing17EmptyPacketSourceD1Ev
	_ZThn216_N4inet8queueing17PacketLabelerBaseD0Ev
	_ZThn216_N4inet8queueing17PacketLabelerBaseD1Ev
	_ZThn216_N4inet8queueing17PacketMultiplexerD0Ev
	_ZThn216_N4inet8queueing17PacketMultiplexerD1Ev
	_ZThn216_N4inet8queueing17PassivePacketSinkD0Ev
	_ZThn216_N4inet8queueing17PassivePacketSinkD1Ev
	_ZThn216_N4inet8queueing17PrioritySchedulerD0Ev
	_ZThn216_N4inet8queueing17PrioritySchedulerD1Ev
	_ZThn216_N4inet8queueing18ActivePacketSourceD0Ev
	_ZThn216_N4inet8queueing18ActivePacketSourceD1Ev
	_ZThn216_N4inet8queueing18ContentBasedFilterD0Ev
	_ZThn216_N4inet8queueing18ContentBasedFilterD1Ev
	_ZThn216_N4inet8queueing18ContentBasedTaggerD0Ev
	_ZThn216_N4inet8queueing18ContentBasedTaggerD1Ev
	_ZThn216_N4inet8queueing18PriorityClassifierD0Ev
	_ZThn216_N4inet8queueing18PriorityClassifierD1Ev
	_ZThn216_N4inet8queueing18TokenGeneratorBaseD0Ev
	_ZThn216_N4inet8queueing18TokenGeneratorBaseD1Ev
	_ZThn216_N4inet8queueing19CompoundPacketQueueD0Ev
	_ZThn216_N4inet8queueing19CompoundPacketQueueD1Ev
	_ZThn216_N4inet8queueing19ContentBasedLabelerD0Ev
	_ZThn216_N4inet8queueing19ContentBasedLabelerD1Ev
	_ZThn216_N4inet8queueing19OrdinalBasedDropperD0Ev
	_ZThn216_N4inet8queueing19OrdinalBasedDropperD1Ev
	_ZThn216_N4inet8queueing19PacketDemultiplexerD0Ev
	_ZThn216_N4inet8queueing19PacketDemultiplexerD1Ev
	_ZThn216_N4inet8queueing19PacketProcessorBaseD0Ev
	_ZThn216_N4inet8queueing19PacketProcessorBaseD1Ev
	_ZThn216_N4inet8queueing19PacketSchedulerBaseD0Ev
	_ZThn216_N4inet8queueing19PacketSchedulerBaseD1Ev
	_ZThn216_N4inet8queueing19PassivePacketSourceD0Ev
	_ZThn216_N4inet8queueing19PassivePacketSourceD1Ev
	_ZThn216_N4inet8queueing20PacketClassifierBaseD0Ev
	_ZThn216_N4inet8queueing20PacketClassifierBaseD1Ev
	_ZThn216_N4inet8queueing20PacketDuplicatorBaseD0Ev
	_ZThn216_N4inet8queueing20PacketDuplicatorBaseD1Ev
	_ZThn216_N4inet8queueing21ContentBasedSchedulerD0Ev
	_ZThn216_N4inet8queueing21ContentBasedSchedulerD1Ev
	_ZThn216_N4inet8queueing21PassivePacketSinkBaseD0Ev
	_ZThn216_N4inet8queueing21PassivePacketSinkBaseD1Ev
	_ZThn216_N4inet8queueing22ContentBasedClassifierD0Ev
	_ZThn216_N4inet8queueing22ContentBasedClassifierD1Ev
	_ZThn216_N4inet8queueing22OrdinalBasedDuplicatorD0Ev
	_ZThn216_N4inet8queueing22OrdinalBasedDuplicatorD1Ev
	_ZThn216_N4inet8queueing22PcapFilePacketConsumerD0Ev
	_ZThn216_N4inet8queueing22PcapFilePacketConsumerD1Ev
	_ZThn216_N4inet8queueing22PcapFilePacketProducerD0Ev
	_ZThn216_N4inet8queueing22PcapFilePacketProducerD1Ev
	_ZThn216_N4inet8queueing23TimeBasedTokenGeneratorD0Ev
	_ZThn216_N4inet8queueing23TimeBasedTokenGeneratorD1Ev
	_ZThn216_N4inet8queueing24QueueBasedTokenGeneratorD0Ev
	_ZThn216_N4inet8queueing24QueueBasedTokenGeneratorD1Ev
	_ZThn216_N4inet8queueing25PacketBasedTokenGeneratorD0Ev
	_ZThn216_N4inet8queueing25PacketBasedTokenGeneratorD1Ev
	_ZThn216_N4inet8queueing25PacketQueueingElementBaseD0Ev
	_ZThn216_N4inet8queueing25PacketQueueingElementBaseD1Ev
	_ZThn216_N4inet8queueing25SignalBasedTokenGeneratorD0Ev
	_ZThn216_N4inet8queueing25SignalBasedTokenGeneratorD1Ev
	_ZThn216_N4inet8queueing9EcnMarkerD0Ev
	_ZThn216_N4inet8queueing9EcnMarkerD1Ev
	_ZThn216_N4inet8queueing9RateMeterD0Ev
	_ZThn216_N4inet8queueing9RateMeterD1Ev
	_ZThn216_N4inet9AckingMacD0Ev
	_ZThn216_N4inet9AckingMacD1Ev
	_ZThn216_N4inet9CsmaCaMacD0Ev
	_ZThn216_N4inet9CsmaCaMacD1Ev
	_ZThn216_N4inet9GlobalArpD0Ev
	_ZThn216_N4inet9GlobalArpD1Ev
	_ZThn216_N4inet9TelnetAppD0Ev
	_ZThn216_N4inet9TelnetAppD1Ev
	_ZThn216_N4inet9TunnelAppD0Ev
	_ZThn216_N4inet9TunnelAppD1Ev
	_ZThn216_N4inet9WiseRouteD0Ev
	_ZThn216_N4inet9WiseRouteD1Ev
	_ZThn216_N4inet9httptools10HttpServerD0Ev
	_ZThn216_N4inet9httptools10HttpServerD1Ev
	_ZThn216_N4inet9httptools11HttpBrowserD0Ev
	_ZThn216_N4inet9httptools11HttpBrowserD1Ev
	_ZThn216_N4inet9httptools12HttpNodeBaseD0Ev
	_ZThn216_N4inet9httptools12HttpNodeBaseD1Ev
	_ZThn216_N4inet9httptools14HttpServerBaseD0Ev
	_ZThn216_N4inet9httptools14HttpServerBaseD1Ev
	_ZThn216_N4inet9httptools15HttpBrowserBaseD0Ev
	_ZThn216_N4inet9httptools15HttpBrowserBaseD1Ev
	_ZThn216_N4inet9httptools15HttpServerEvilAD0Ev
	_ZThn216_N4inet9httptools15HttpServerEvilAD1Ev
	_ZThn216_N4inet9httptools15HttpServerEvilBD0Ev
	_ZThn216_N4inet9httptools15HttpServerEvilBD1Ev
	_ZThn216_N4inet9httptools16HttpServerDirectD0Ev
	_ZThn216_N4inet9httptools16HttpServerDirectD1Ev
	_ZThn216_N4inet9httptools17HttpBrowserDirectD0Ev
	_ZThn216_N4inet9httptools17HttpBrowserDirectD1Ev
	_ZThn216_N4inet9httptools21HttpServerDirectEvilAD0Ev
	_ZThn216_N4inet9httptools21HttpServerDirectEvilAD1Ev
	_ZThn216_N4inet9httptools21HttpServerDirectEvilBD0Ev
	_ZThn216_N4inet9httptools21HttpServerDirectEvilBD1Ev
	_ZThn216_N4inet9ieee8021110AckHandler18frameGotInProgressERKNS_12IntrusivePtrIKNS0_25Ieee80211DataOrMgmtHeaderEEE
	_ZThn216_N4inet9ieee8021110AckHandler18isOutstandingFrameERKNS_12IntrusivePtrIKNS0_25Ieee80211DataOrMgmtHeaderEEE
	_ZThn216_N4inet9ieee8021110AckHandler20isEligibleToTransmitERKNS_12IntrusivePtrIKNS0_25Ieee80211DataOrMgmtHeaderEEE
	_ZThn216_N4inet9ieee8021110AckHandlerD0Ev
	_ZThn216_N4inet9ieee8021110AckHandlerD1Ev
	_ZThn216_N4inet9ieee8021110Contention15startContentionEiN7omnetpp7SimTimeES3_S3_PNS0_11IContention9ICallbackE
	_ZThn216_N4inet9ieee8021110Contention18mediumStateChangedEb
	_ZThn216_N4inet9ieee8021110Contention22corruptedFrameReceivedEv
	_ZThn216_N4inet9ieee8021110Contention22isContentionInProgressEv
	_ZThn216_N4inet9ieee8021110ContentionD0Ev
	_ZThn216_N4inet9ieee8021110ContentionD1Ev
	_ZThn216_N4inet9ieee8021112Ieee80211MacD0Ev
	_ZThn216_N4inet9ieee8021112Ieee80211MacD1Ev
	_ZThn216_N4inet9ieee8021112QosCtsPolicyD0Ev
	_ZThn216_N4inet9ieee8021112QosCtsPolicyD1Ev
	_ZThn216_N4inet9ieee8021112QosRtsPolicyD0Ev
	_ZThn216_N4inet9ieee8021112QosRtsPolicyD1Ev
	_ZThn216_N4inet9ieee8021113QosAckHandler18frameGotInProgressERKNS_12IntrusivePtrIKNS0_25Ieee80211DataOrMgmtHeaderEEE
	_ZThn216_N4inet9ieee8021113QosAckHandler18isOutstandingFrameERKNS_12IntrusivePtrIKNS0_25Ieee80211DataOrMgmtHeaderEEE
	_ZThn216_N4inet9ieee8021113QosAckHandler20isEligibleToTransmitERKNS_12IntrusivePtrIKNS0_25Ieee80211DataOrMgmtHeaderEEE
	_ZThn216_N4inet9ieee8021113QosAckHandlerD0Ev
	_ZThn216_N4inet9ieee8021113QosAckHandlerD1Ev
	_ZThn216_N4inet9ieee8021113TxopProcedureD0Ev
	_ZThn216_N4inet9ieee8021113TxopProcedureD1Ev
	_ZThn216_N4inet9ieee8021115AarfRateControlD0Ev
	_ZThn216_N4inet9ieee8021115AarfRateControlD1Ev
	_ZThn216_N4inet9ieee8021115Ieee80211LlcLpdD0Ev
	_ZThn216_N4inet9ieee8021115Ieee80211LlcLpdD1Ev
	_ZThn216_N4inet9ieee8021115Ieee80211MgmtApD0Ev
	_ZThn216_N4inet9ieee8021115Ieee80211MgmtApD1Ev
	_ZThn216_N4inet9ieee8021115ModeSetListener13receiveSignalEPN7omnetpp10cComponentEiPNS2_7cObjectES6_
	_ZThn216_N4inet9ieee8021115ModeSetListenerD0Ev
	_ZThn216_N4inet9ieee8021115ModeSetListenerD1Ev
	_ZThn216_N4inet9ieee8021115OnoeRateControlD0Ev
	_ZThn216_N4inet9ieee8021115OnoeRateControlD1Ev
	_ZThn216_N4inet9ieee8021115RateControlBase13receiveSignalEPN7omnetpp10cComponentEiPNS2_7cObjectES6_
	_ZThn216_N4inet9ieee8021115RateControlBaseD0Ev
	_ZThn216_N4inet9ieee8021115RateControlBaseD1Ev
	_ZThn216_N4inet9ieee8021116Ieee80211MgmtStaD0Ev
	_ZThn216_N4inet9ieee8021116Ieee80211MgmtStaD1Ev
	_ZThn216_N4inet9ieee8021117Ieee80211AgentSta13receiveSignalEPN7omnetpp10cComponentEiPNS2_7cObjectES6_
	_ZThn216_N4inet9ieee8021117Ieee80211AgentStaD0Ev
	_ZThn216_N4inet9ieee8021117Ieee80211AgentStaD1Ev
	_ZThn216_N4inet9ieee8021117Ieee80211MgmtBaseD0Ev
	_ZThn216_N4inet9ieee8021117Ieee80211MgmtBaseD1Ev
	_ZThn216_N4inet9ieee8021118Ieee80211MgmtAdhocD0Ev
	_ZThn216_N4inet9ieee8021118Ieee80211MgmtAdhocD1Ev
	_ZThn216_N4inet9ieee8021118RecipientAckPolicyD0Ev
	_ZThn216_N4inet9ieee8021118RecipientAckPolicyD1Ev
	_ZThn216_N4inet9ieee8021119Ieee80211MgmtApBaseD0Ev
	_ZThn216_N4inet9ieee8021119Ieee80211MgmtApBaseD1Ev
	_ZThn216_N4inet9ieee8021119OriginatorAckPolicyD0Ev
	_ZThn216_N4inet9ieee8021119OriginatorAckPolicyD1Ev
	_ZThn216_N4inet9ieee8021120QosRecoveryProcedureD0Ev
	_ZThn216_N4inet9ieee8021120QosRecoveryProcedureD1Ev
	_ZThn216_N4inet9ieee8021121RecipientQosAckPolicyD0Ev
	_ZThn216_N4inet9ieee8021121RecipientQosAckPolicyD1Ev
	_ZThn216_N4inet9ieee8021122OriginatorQosAckPolicyD0Ev
	_ZThn216_N4inet9ieee8021122OriginatorQosAckPolicyD1Ev
	_ZThn216_N4inet9ieee8021123NonQosRecoveryProcedureD0Ev
	_ZThn216_N4inet9ieee8021123NonQosRecoveryProcedureD1Ev
	_ZThn216_N4inet9ieee8021123RecipientMacDataService17dataFrameReceivedEPNS_6PacketERKNS_12IntrusivePtrIKNS0_19Ieee80211DataHeaderEEE
	_ZThn216_N4inet9ieee8021123RecipientMacDataService20controlFrameReceivedEPNS_6PacketERKNS_12IntrusivePtrIKNS0_18Ieee80211MacHeaderEEE
	_ZThn216_N4inet9ieee8021123RecipientMacDataService23managementFrameReceivedEPNS_6PacketERKNS_12IntrusivePtrIKNS0_19Ieee80211MgmtHeaderEEE
	_ZThn216_N4inet9ieee8021123RecipientMacDataServiceD0Ev
	_ZThn216_N4inet9ieee8021123RecipientMacDataServiceD1Ev
	_ZThn216_N4inet9ieee8021125Ieee80211MgmtApSimplifiedD0Ev
	_ZThn216_N4inet9ieee8021125Ieee80211MgmtApSimplifiedD1Ev
	_ZThn216_N4inet9ieee8021125SingleProtectionMechanismD0Ev
	_ZThn216_N4inet9ieee8021125SingleProtectionMechanismD1Ev
	_ZThn216_N4inet9ieee8021126Ieee80211MgmtStaSimplifiedD0Ev
	_ZThn216_N4inet9ieee8021126Ieee80211MgmtStaSimplifiedD1Ev
	_ZThn216_N4inet9ieee8021129OriginatorProtectionMechanismD0Ev
	_ZThn216_N4inet9ieee8021129OriginatorProtectionMechanismD1Ev
	_ZThn216_N4inet9ieee802112Ds16processDataFrameEPNS_6PacketERKNS_12IntrusivePtrIKNS0_19Ieee80211DataHeaderEEE
	_ZThn216_N4inet9ieee802112DsD0Ev
	_ZThn216_N4inet9ieee802112DsD1Ev
	_ZThn216_N4inet9ieee802112Rx16frameTransmittedEN7omnetpp7SimTimeE
	_ZThn216_N4inet9ieee802112Rx18lowerFrameReceivedEPNS_6PacketE
	_ZThn216_N4inet9ieee802112Rx18registerContentionEPNS0_11IContentionE
	_ZThn216_N4inet9ieee802112Rx21receptionStateChangedENS_13physicallayer6IRadio14ReceptionStateE
	_ZThn216_N4inet9ieee802112Rx24transmissionStateChangedENS_13physicallayer6IRadio17TransmissionStateE
	_ZThn216_N4inet9ieee802112Rx25receivedSignalPartChangedENS_13physicallayer12IRadioSignal10SignalPartE
	_ZThn216_N4inet9ieee802112RxD0Ev
	_ZThn216_N4inet9ieee802112RxD1Ev
	_ZThn216_N4inet9ieee802112Tx13transmitFrameEPNS_6PacketERKNS_12IntrusivePtrIKNS0_18Ieee80211MacHeaderEEEN7omnetpp7SimTimeEPNS0_3ITx9ICallbackE
	_ZThn216_N4inet9ieee802112Tx13transmitFrameEPNS_6PacketERKNS_12IntrusivePtrIKNS0_18Ieee80211MacHeaderEEEPNS0_3ITx9ICallbackE
	_ZThn216_N4inet9ieee802112Tx25radioTransmissionFinishedEv
	_ZThn216_N4inet9ieee802112TxD0Ev
	_ZThn216_N4inet9ieee802112TxD1Ev
	_ZThn216_N4inet9ieee8021132RecipientBlockAckAgreementPolicy15isDelbaAcceptedERKNS_12IntrusivePtrIKNS0_14Ieee80211DelbaEEE
	_ZThn216_N4inet9ieee8021132RecipientBlockAckAgreementPolicy18isAddbaReqAcceptedERKNS_12IntrusivePtrIKNS0_21Ieee80211AddbaRequestEEE
	_ZThn216_N4inet9ieee8021132RecipientBlockAckAgreementPolicyD0Ev
	_ZThn216_N4inet9ieee8021132RecipientBlockAckAgreementPolicyD1Ev
	_ZThn216_N4inet9ieee8021133OriginatorBlockAckAgreementPolicyD0Ev
	_ZThn216_N4inet9ieee8021133OriginatorBlockAckAgreementPolicyD1Ev
	_ZThn216_N4inet9ieee802119CtsPolicyD0Ev
	_ZThn216_N4inet9ieee802119CtsPolicyD1Ev
	_ZThn216_N4inet9ieee802119RtsPolicyD0Ev
	_ZThn216_N4inet9ieee802119RtsPolicyD1Ev
	_ZThn216_NK4inet10DscpMarker17supportsPopPacketEPN7omnetpp5cGateE
	_ZThn216_NK4inet10DscpMarker18supportsPushPacketEPN7omnetpp5cGateE
	_ZThn216_NK4inet10MoBanLocal11getMaxSpeedEv
	_ZThn216_NK4inet12MassMobility11getMaxSpeedEv
	_ZThn216_NK4inet12MobilityBase11getMaxSpeedEv
	_ZThn216_NK4inet12MobilityBase20getConstraintAreaMaxEv
	_ZThn216_NK4inet12MobilityBase20getConstraintAreaMinEv
	_ZThn216_NK4inet13AnsimMobility11getMaxSpeedEv
	_ZThn216_NK4inet13physicallayer11ApskDecoder13printToStreamERSoi
	_ZThn216_NK4inet13physicallayer11ApskDecoder6decodeEPKNS0_18IReceptionBitModelE
	_ZThn216_NK4inet13physicallayer17GridNeighborCache13printToStreamERSoi
	_ZThn216_NK4inet13physicallayer17GridNeighborCache15sendToNeighborsEPNS0_6IRadioEPKNS0_7ISignalEd
	_ZThn216_NK4inet13physicallayer21QuadTreeNeighborCache13printToStreamERSoi
	_ZThn216_NK4inet13physicallayer21QuadTreeNeighborCache15sendToNeighborsEPNS0_6IRadioEPKNS0_7ISignalEd
	_ZThn216_NK4inet13physicallayer23AdditiveScramblerModule10descrambleERKNS_9BitVectorE
	_ZThn216_NK4inet13physicallayer23AdditiveScramblerModule13getScramblingEv
	_ZThn216_NK4inet13physicallayer23AdditiveScramblerModule13printToStreamERSoi
	_ZThn216_NK4inet13physicallayer23AdditiveScramblerModule8scrambleERKNS_9BitVectorE
	_ZThn216_NK4inet13physicallayer23Ieee80211OfdmErrorModel13printToStreamERSoi
	_ZThn216_NK4inet13physicallayer23Ieee80211OfdmErrorModel15computeBitModelEPKNS0_19LayeredTransmissionEPKNS0_5ISnirE
	_ZThn216_NK4inet13physicallayer23Ieee80211OfdmErrorModel18computePacketModelEPKNS0_19LayeredTransmissionEPKNS0_5ISnirE
	_ZThn216_NK4inet13physicallayer23Ieee80211OfdmErrorModel18computeSampleModelEPKNS0_19LayeredTransmissionEPKNS0_5ISnirE
	_ZThn216_NK4inet13physicallayer23Ieee80211OfdmErrorModel18computeSymbolModelEPKNS0_19LayeredTransmissionEPKNS0_5ISnirE
	_ZThn216_NK4inet13physicallayer24ConvolutionalCoderModule13printToStreamERSoi
	_ZThn216_NK4inet13physicallayer24ConvolutionalCoderModule25getForwardErrorCorrectionEv
	_ZThn216_NK4inet13physicallayer24ConvolutionalCoderModule6decodeERKNS_9BitVectorE
	_ZThn216_NK4inet13physicallayer24ConvolutionalCoderModule6encodeERKNS_9BitVectorE
	_ZThn216_NK4inet13physicallayer25NeighborListNeighborCache13printToStreamERSoi
	_ZThn216_NK4inet13physicallayer25NeighborListNeighborCache15sendToNeighborsEPNS0_6IRadioEPKNS0_7ISignalEd
	_ZThn216_NK4inet13physicallayer26Ieee80211OfdmDecoderModule13printToStreamERSoi
	_ZThn216_NK4inet13physicallayer26Ieee80211OfdmDecoderModule6decodeEPKNS0_18IReceptionBitModelE
	_ZThn216_NK4inet13physicallayer26StateBasedEpEnergyConsumer19getPowerConsumptionEv
	_ZThn216_NK4inet13physicallayer30Ieee80211OfdmInterleaverModule10interleaveERKNS_9BitVectorE
	_ZThn216_NK4inet13physicallayer30Ieee80211OfdmInterleaverModule12deinterleaveERKNS_9BitVectorE
	_ZThn216_NK4inet13physicallayer30Ieee80211OfdmInterleaverModule13printToStreamERSoi
	_ZThn216_NK4inet13physicallayer30Ieee80211OfdmInterleaverModule15getInterleavingEv
	_ZThn216_NK4inet14ChiangMobility11getMaxSpeedEv
	_ZThn216_NK4inet14CircleMobility11getMaxSpeedEv
	_ZThn216_NK4inet14LinearMobility11getMaxSpeedEv
	_ZThn216_NK4inet14TurtleMobility11getMaxSpeedEv
	_ZThn216_NK4inet15PacketMeterBase17supportsPopPacketEPN7omnetpp5cGateE
	_ZThn216_NK4inet15PacketMeterBase18supportsPushPacketEPN7omnetpp5cGateE
	_ZThn216_NK4inet15TractorMobility11getMaxSpeedEv
	_ZThn216_NK4inet15VehicleMobility11getMaxSpeedEv
	_ZThn216_NK4inet16Ipv4RoutingTable11getRouterIdEv
	_ZThn216_NK4inet16Ipv4RoutingTable12getNumRoutesEv
	_ZThn216_NK4inet16Ipv4RoutingTable14isLocalAddressERKNS_11Ipv4AddressE
	_ZThn216_NK4inet16Ipv4RoutingTable14isLocalAddressERKNS_9L3AddressE
	_ZThn216_NK4inet16Ipv4RoutingTable15gatherAddressesEv
	_ZThn216_NK4inet16Ipv4RoutingTable15getDefaultRouteEv
	_ZThn216_NK4inet16Ipv4RoutingTable17getMulticastRouteEi
	_ZThn216_NK4inet16Ipv4RoutingTable17printRoutingTableEv
	_ZThn216_NK4inet16Ipv4RoutingTable18isAdminDistEnabledEv
	_ZThn216_NK4inet16Ipv4RoutingTable19isForwardingEnabledEv
	_ZThn216_NK4inet16Ipv4RoutingTable20getRouterIdAsGenericEv
	_ZThn216_NK4inet16Ipv4RoutingTable21findBestMatchingRouteERKNS_11Ipv4AddressE
	_ZThn216_NK4inet16Ipv4RoutingTable21findBestMatchingRouteERKNS_9L3AddressE
	_ZThn216_NK4inet16Ipv4RoutingTable21getGatewayForDestAddrERKNS_11Ipv4AddressE
	_ZThn216_NK4inet16Ipv4RoutingTable21getInterfaceByAddressERKNS_11Ipv4AddressE
	_ZThn216_NK4inet16Ipv4RoutingTable21getInterfaceByAddressERKNS_9L3AddressE
	_ZThn216_NK4inet16Ipv4RoutingTable21getNumMulticastRoutesEv
	_ZThn216_NK4inet16Ipv4RoutingTable23getInterfaceForDestAddrERKNS_11Ipv4AddressE
	_ZThn216_NK4inet16Ipv4RoutingTable23isLocalBroadcastAddressERKNS_11Ipv4AddressE
	_ZThn216_NK4inet16Ipv4RoutingTable23isLocalMulticastAddressERKNS_11Ipv4AddressE
	_ZThn216_NK4inet16Ipv4RoutingTable23isLocalMulticastAddressERKNS_9L3AddressE
	_ZThn216_NK4inet16Ipv4RoutingTable24getNextHopForDestinationERKNS_9L3AddressE
	_ZThn216_NK4inet16Ipv4RoutingTable26printMulticastRoutingTableEv
	_ZThn216_NK4inet16Ipv4RoutingTable28isMulticastForwardingEnabledEv
	_ZThn216_NK4inet16Ipv4RoutingTable30findBestMatchingMulticastRouteERKNS_11Ipv4AddressES3_
	_ZThn216_NK4inet16Ipv4RoutingTable30findBestMatchingMulticastRouteERKNS_9L3AddressES3_
	_ZThn216_NK4inet16Ipv4RoutingTable32getOutputInterfaceForDestinationERKNS_9L3AddressE
	_ZThn216_NK4inet16Ipv4RoutingTable36findInterfaceByLocalBroadcastAddressERKNS_11Ipv4AddressE
	_ZThn216_NK4inet16Ipv4RoutingTable8getRouteEi
	_ZThn216_NK4inet16Ipv6RoutingTable12getNumRoutesEv
	_ZThn216_NK4inet16Ipv6RoutingTable14isLocalAddressERKNS_9L3AddressE
	_ZThn216_NK4inet16Ipv6RoutingTable15getDefaultRouteEv
	_ZThn216_NK4inet16Ipv6RoutingTable17getMulticastRouteEi
	_ZThn216_NK4inet16Ipv6RoutingTable17printRoutingTableEv
	_ZThn216_NK4inet16Ipv6RoutingTable18isAdminDistEnabledEv
	_ZThn216_NK4inet16Ipv6RoutingTable19isForwardingEnabledEv
	_ZThn216_NK4inet16Ipv6RoutingTable20getRouterIdAsGenericEv
	_ZThn216_NK4inet16Ipv6RoutingTable21findBestMatchingRouteERKNS_9L3AddressE
	_ZThn216_NK4inet16Ipv6RoutingTable21getInterfaceByAddressERKNS_9L3AddressE
	_ZThn216_NK4inet16Ipv6RoutingTable21getNumMulticastRoutesEv
	_ZThn216_NK4inet16Ipv6RoutingTable23isLocalMulticastAddressERKNS_9L3AddressE
	_ZThn216_NK4inet16Ipv6RoutingTable24getNextHopForDestinationERKNS_9L3AddressE
	_ZThn216_NK4inet16Ipv6RoutingTable28isMulticastForwardingEnabledEv
	_ZThn216_NK4inet16Ipv6RoutingTable30findBestMatchingMulticastRouteERKNS_9L3AddressES3_
	_ZThn216_NK4inet16Ipv6RoutingTable32getOutputInterfaceForDestinationERKNS_9L3AddressE
	_ZThn216_NK4inet16MoBanCoordinator11getMaxSpeedEv
	_ZThn216_NK4inet17Ns2MotionMobility11getMaxSpeedEv
	_ZThn216_NK4inet17RectangleMobility11getMaxSpeedEv
	_ZThn216_NK4inet18BonnMotionMobility11getMaxSpeedEv
	_ZThn216_NK4inet18Ipv4RoutingTableLR11getRouterIdEv
	_ZThn216_NK4inet18Ipv4RoutingTableLR12getNumRoutesEv
	_ZThn216_NK4inet18Ipv4RoutingTableLR14isLocalAddressERKNS_11Ipv4AddressE
	_ZThn216_NK4inet18Ipv4RoutingTableLR14isLocalAddressERKNS_9L3AddressE
	_ZThn216_NK4inet18Ipv4RoutingTableLR15gatherAddressesEv
	_ZThn216_NK4inet18Ipv4RoutingTableLR15getDefaultRouteEv
	_ZThn216_NK4inet18Ipv4RoutingTableLR17getMulticastRouteEi
	_ZThn216_NK4inet18Ipv4RoutingTableLR17printRoutingTableEv
	_ZThn216_NK4inet18Ipv4RoutingTableLR18isAdminDistEnabledEv
	_ZThn216_NK4inet18Ipv4RoutingTableLR19isForwardingEnabledEv
	_ZThn216_NK4inet18Ipv4RoutingTableLR20getRouterIdAsGenericEv
	_ZThn216_NK4inet18Ipv4RoutingTableLR21findBestMatchingRouteERKNS_11Ipv4AddressE
	_ZThn216_NK4inet18Ipv4RoutingTableLR21findBestMatchingRouteERKNS_9L3AddressE
	_ZThn216_NK4inet18Ipv4RoutingTableLR21getGatewayForDestAddrERKNS_11Ipv4AddressE
	_ZThn216_NK4inet18Ipv4RoutingTableLR21getInterfaceByAddressERKNS_11Ipv4AddressE
	_ZThn216_NK4inet18Ipv4RoutingTableLR21getInterfaceByAddressERKNS_9L3AddressE
	_ZThn216_NK4inet18Ipv4RoutingTableLR21getNumMulticastRoutesEv
	_ZThn216_NK4inet18Ipv4RoutingTableLR23getInterfaceForDestAddrERKNS_11Ipv4AddressE
	_ZThn216_NK4inet18Ipv4RoutingTableLR23isLocalBroadcastAddressERKNS_11Ipv4AddressE
	_ZThn216_NK4inet18Ipv4RoutingTableLR23isLocalMulticastAddressERKNS_11Ipv4AddressE
	_ZThn216_NK4inet18Ipv4RoutingTableLR23isLocalMulticastAddressERKNS_9L3AddressE
	_ZThn216_NK4inet18Ipv4RoutingTableLR24getNextHopForDestinationERKNS_9L3AddressE
	_ZThn216_NK4inet18Ipv4RoutingTableLR26printMulticastRoutingTableEv
	_ZThn216_NK4inet18Ipv4RoutingTableLR28isMulticastForwardingEnabledEv
	_ZThn216_NK4inet18Ipv4RoutingTableLR30findBestMatchingMulticastRouteERKNS_11Ipv4AddressES3_
	_ZThn216_NK4inet18Ipv4RoutingTableLR30findBestMatchingMulticastRouteERKNS_9L3AddressES3_
	_ZThn216_NK4inet18Ipv4RoutingTableLR32getOutputInterfaceForDestinationERKNS_9L3AddressE
	_ZThn216_NK4inet18Ipv4RoutingTableLR36findInterfaceByLocalBroadcastAddressERKNS_11Ipv4AddressE
	_ZThn216_NK4inet18Ipv4RoutingTableLR8getRouteEi
	_ZThn216_NK4inet19GaussMarkovMobility11getMaxSpeedEv
	_ZThn216_NK4inet19NextHopRoutingTable12getNumRoutesEv
	_ZThn216_NK4inet19NextHopRoutingTable14isLocalAddressERKNS_9L3AddressE
	_ZThn216_NK4inet19NextHopRoutingTable15getDefaultRouteEv
	_ZThn216_NK4inet19NextHopRoutingTable17getMulticastRouteEi
	_ZThn216_NK4inet19NextHopRoutingTable17printRoutingTableEv
	_ZThn216_NK4inet19NextHopRoutingTable18isAdminDistEnabledEv
	_ZThn216_NK4inet19NextHopRoutingTable19isForwardingEnabledEv
	_ZThn216_NK4inet19NextHopRoutingTable20getRouterIdAsGenericEv
	_ZThn216_NK4inet19NextHopRoutingTable21getInterfaceByAddressERKNS_9L3AddressE
	_ZThn216_NK4inet19NextHopRoutingTable21getNumMulticastRoutesEv
	_ZThn216_NK4inet19NextHopRoutingTable23isLocalMulticastAddressERKNS_9L3AddressE
	_ZThn216_NK4inet19NextHopRoutingTable24getNextHopForDestinationERKNS_9L3AddressE
	_ZThn216_NK4inet19NextHopRoutingTable28isMulticastForwardingEnabledEv
	_ZThn216_NK4inet19NextHopRoutingTable30findBestMatchingMulticastRouteERKNS_9L3AddressES3_
	_ZThn216_NK4inet19NextHopRoutingTable32getOutputInterfaceForDestinationERKNS_9L3AddressE
	_ZThn216_NK4inet19NextHopRoutingTable8getRouteEi
	_ZThn216_NK4inet22RandomWaypointMobility11getMaxSpeedEv
	_ZThn216_NK4inet22StationaryMobilityBase11getMaxSpeedEv
	_ZThn216_NK4inet22StationaryMobilityBase20getConstraintAreaMaxEv
	_ZThn216_NK4inet22StationaryMobilityBase20getConstraintAreaMinEv
	_ZThn216_NK4inet29OsgGeographicCoordinateSystem16getScenePositionEv
	_ZThn216_NK4inet29OsgGeographicCoordinateSystem19getSceneOrientationEv
	_ZThn216_NK4inet29OsgGeographicCoordinateSystem22computeSceneCoordinateERKNS_8GeoCoordE
	_ZThn216_NK4inet29OsgGeographicCoordinateSystem27computeGeographicCoordinateERKNS_5CoordE
	_ZThn216_NK4inet32SimpleGeographicCoordinateSystem16getScenePositionEv
	_ZThn216_NK4inet32SimpleGeographicCoordinateSystem19getSceneOrientationEv
	_ZThn216_NK4inet32SimpleGeographicCoordinateSystem22computeSceneCoordinateERKNS_8GeoCoordE
	_ZThn216_NK4inet32SimpleGeographicCoordinateSystem27computeGeographicCoordinateERKNS_5CoordE
	_ZThn216_NK4inet5power15SimpleCcBattery26getTotalCurrentConsumptionEv
	_ZThn216_NK4inet5power27AlternatingEpEnergyConsumer19getPowerConsumptionEv
	_ZThn216_NK4inet5power28AlternatingEpEnergyGenerator18getPowerGenerationEv
	_ZThn216_NK4inet8queueing10PacketGate17supportsPopPacketEPN7omnetpp5cGateE
	_ZThn216_NK4inet8queueing10PacketGate18supportsPushPacketEPN7omnetpp5cGateE
	_ZThn216_NK4inet8queueing11PacketQueue17supportsPopPacketEPN7omnetpp5cGateE
	_ZThn216_NK4inet8queueing11PacketQueue18supportsPushPacketEPN7omnetpp5cGateE
	_ZThn216_NK4inet8queueing12PacketBuffer17supportsPopPacketEPN7omnetpp5cGateE
	_ZThn216_NK4inet8queueing12PacketBuffer18supportsPushPacketEPN7omnetpp5cGateE
	_ZThn216_NK4inet8queueing12PacketCloner17supportsPopPacketEPN7omnetpp5cGateE
	_ZThn216_NK4inet8queueing12PacketCloner18supportsPushPacketEPN7omnetpp5cGateE
	_ZThn216_NK4inet8queueing13PacketDelayer17supportsPopPacketEPN7omnetpp5cGateE
	_ZThn216_NK4inet8queueing13PacketDelayer18supportsPushPacketEPN7omnetpp5cGateE
	_ZThn216_NK4inet8queueing15MarkovScheduler17supportsPopPacketEPN7omnetpp5cGateE
	_ZThn216_NK4inet8queueing15MarkovScheduler18supportsPushPacketEPN7omnetpp5cGateE
	_ZThn216_NK4inet8queueing15PacketMeterBase17supportsPopPacketEPN7omnetpp5cGateE
	_ZThn216_NK4inet8queueing15PacketMeterBase18supportsPushPacketEPN7omnetpp5cGateE
	_ZThn216_NK4inet8queueing16ActivePacketSink17supportsPopPacketEPN7omnetpp5cGateE
	_ZThn216_NK4inet8queueing16ActivePacketSink18supportsPushPacketEPN7omnetpp5cGateE
	_ZThn216_NK4inet8queueing16MarkovClassifier17supportsPopPacketEPN7omnetpp5cGateE
	_ZThn216_NK4inet8queueing16MarkovClassifier18supportsPushPacketEPN7omnetpp5cGateE
	_ZThn216_NK4inet8queueing16PacketDuplicator17supportsPopPacketEPN7omnetpp5cGateE
	_ZThn216_NK4inet8queueing16PacketDuplicator18supportsPushPacketEPN7omnetpp5cGateE
	_ZThn216_NK4inet8queueing16PacketFilterBase17supportsPopPacketEPN7omnetpp5cGateE
	_ZThn216_NK4inet8queueing16PacketFilterBase18supportsPushPacketEPN7omnetpp5cGateE
	_ZThn216_NK4inet8queueing16PacketMarkerBase17supportsPopPacketEPN7omnetpp5cGateE
	_ZThn216_NK4inet8queueing16PacketMarkerBase18supportsPushPacketEPN7omnetpp5cGateE
	_ZThn216_NK4inet8queueing16PacketServerBase17supportsPopPacketEPN7omnetpp5cGateE
	_ZThn216_NK4inet8queueing16PacketServerBase18supportsPushPacketEPN7omnetpp5cGateE
	_ZThn216_NK4inet8queueing17EmptyPacketSource17supportsPopPacketEPN7omnetpp5cGateE
	_ZThn216_NK4inet8queueing17EmptyPacketSource18supportsPushPacketEPN7omnetpp5cGateE
	_ZThn216_NK4inet8queueing17PacketMultiplexer17supportsPopPacketEPN7omnetpp5cGateE
	_ZThn216_NK4inet8queueing17PacketMultiplexer18supportsPushPacketEPN7omnetpp5cGateE
	_ZThn216_NK4inet8queueing17PassivePacketSink17supportsPopPacketEPN7omnetpp5cGateE
	_ZThn216_NK4inet8queueing17PassivePacketSink18supportsPushPacketEPN7omnetpp5cGateE
	_ZThn216_NK4inet8queueing18ActivePacketSource17supportsPopPacketEPN7omnetpp5cGateE
	_ZThn216_NK4inet8queueing18ActivePacketSource18supportsPushPacketEPN7omnetpp5cGateE
	_ZThn216_NK4inet8queueing18TokenGeneratorBase17supportsPopPacketEPN7omnetpp5cGateE
	_ZThn216_NK4inet8queueing18TokenGeneratorBase18supportsPushPacketEPN7omnetpp5cGateE
	_ZThn216_NK4inet8queueing19CompoundPacketQueue17supportsPopPacketEPN7omnetpp5cGateE
	_ZThn216_NK4inet8queueing19CompoundPacketQueue18supportsPushPacketEPN7omnetpp5cGateE
	_ZThn216_NK4inet8queueing19PacketDemultiplexer17supportsPopPacketEPN7omnetpp5cGateE
	_ZThn216_NK4inet8queueing19PacketDemultiplexer18supportsPushPacketEPN7omnetpp5cGateE
	_ZThn216_NK4inet8queueing19PacketSchedulerBase17supportsPopPacketEPN7omnetpp5cGateE
	_ZThn216_NK4inet8queueing19PacketSchedulerBase18supportsPushPacketEPN7omnetpp5cGateE
	_ZThn216_NK4inet8queueing19PassivePacketSource17supportsPopPacketEPN7omnetpp5cGateE
	_ZThn216_NK4inet8queueing19PassivePacketSource18supportsPushPacketEPN7omnetpp5cGateE
	_ZThn216_NK4inet8queueing20PacketClassifierBase17supportsPopPacketEPN7omnetpp5cGateE
	_ZThn216_NK4inet8queueing20PacketClassifierBase18supportsPushPacketEPN7omnetpp5cGateE
	_ZThn216_NK4inet8queueing20PacketDuplicatorBase17supportsPopPacketEPN7omnetpp5cGateE
	_ZThn216_NK4inet8queueing20PacketDuplicatorBase18supportsPushPacketEPN7omnetpp5cGateE
	_ZThn216_NK4inet8queueing22PcapFilePacketConsumer17supportsPopPacketEPN7omnetpp5cGateE
	_ZThn216_NK4inet8queueing22PcapFilePacketConsumer18supportsPushPacketEPN7omnetpp5cGateE
	_ZThn216_NK4inet8queueing22PcapFilePacketProducer17supportsPopPacketEPN7omnetpp5cGateE
	_ZThn216_NK4inet8queueing22PcapFilePacketProducer18supportsPushPacketEPN7omnetpp5cGateE
	_ZThn216_NK4inet8queueing23TimeBasedTokenGenerator17supportsPopPacketEPN7omnetpp5cGateE
	_ZThn216_NK4inet8queueing23TimeBasedTokenGenerator18supportsPushPacketEPN7omnetpp5cGateE
	_ZThn216_NK4inet8queueing24QueueBasedTokenGenerator17supportsPopPacketEPN7omnetpp5cGateE
	_ZThn216_NK4inet8queueing24QueueBasedTokenGenerator18supportsPushPacketEPN7omnetpp5cGateE
	_ZThn216_NK4inet8queueing25PacketBasedTokenGenerator17supportsPopPacketEPN7omnetpp5cGateE
	_ZThn216_NK4inet8queueing25PacketBasedTokenGenerator18supportsPushPacketEPN7omnetpp5cGateE
	_ZThn216_NK4inet8queueing25SignalBasedTokenGenerator17supportsPopPacketEPN7omnetpp5cGateE
	_ZThn216_NK4inet8queueing25SignalBasedTokenGenerator18supportsPushPacketEPN7omnetpp5cGateE
	_ZThn216_NK4inet9ieee8021115Ieee80211LlcEpd11getProtocolEv
	_ZThn216_NK4inet9ieee8021115Ieee80211Portal11getProtocolEv
	_ZThn216_NK4inet9ieee802112Rx12isMediumFreeEv
	_ZThn216_NK4inet9ieee802112Rx21isReceptionInProgressEv
	_ZThn216_NK4inet9ieee8021132RecipientBlockAckAgreementPolicy14aMsduSupportedEv
	_ZThn216_NK4inet9ieee8021132RecipientBlockAckAgreementPolicy23getBlockAckTimeoutValueEv
	_ZThn216_NK4inet9ieee8021132RecipientBlockAckAgreementPolicy27getMaximumAllowedBufferSizeEv
	_ZThn216_NK4inet9ieee8021132RecipientBlockAckAgreementPolicy30delayedBlockAckPolicySupportedEv
	_ZThn224_N4inet10DscpMarker10pushPacketEPNS_6PacketEPN7omnetpp5cGateE
	_ZThn224_N4inet10DscpMarkerD0Ev
	_ZThn224_N4inet10DscpMarkerD1Ev
	_ZThn224_N4inet10SctpClientD0Ev
	_ZThn224_N4inet10SctpClientD1Ev
	_ZThn224_N4inet11SctpNatPeerD0Ev
	_ZThn224_N4inet11SctpNatPeerD1Ev
	_ZThn224_N4inet13physicallayer26StateBasedEpEnergyConsumer13receiveSignalEPN7omnetpp10cComponentEilPNS2_7cObjectE
	_ZThn224_N4inet13physicallayer26StateBasedEpEnergyConsumerD0Ev
	_ZThn224_N4inet13physicallayer26StateBasedEpEnergyConsumerD1Ev
	_ZThn224_N4inet13physicallayer29Ieee80211UnitDiskTransmissionD0Ev
	_ZThn224_N4inet13physicallayer29Ieee80211UnitDiskTransmissionD1Ev
	_ZThn224_N4inet14RsvpClassifier11lookupLabelEPNS_6PacketERSt6vectorINS_7LabelOpESaIS4_EERNSt7__cxx1112basic_stringIcSt11char_traitsIcESaIcEEERi
	_ZThn224_N4inet14RsvpClassifier4bindERKNS_10SessionObjERKNS_17SenderTemplateObjEi
	_ZThn224_N4inet14RsvpClassifierD0Ev
	_ZThn224_N4inet14RsvpClassifierD1Ev
	_ZThn224_N4inet16Ipv4RoutingTable13receiveSignalEPN7omnetpp10cComponentEiPNS1_7cObjectES5_
	_ZThn224_N4inet16Ipv4RoutingTableD0Ev
	_ZThn224_N4inet16Ipv4RoutingTableD1Ev
	_ZThn224_N4inet16Ipv6RoutingTable13receiveSignalEPN7omnetpp10cComponentEiPNS1_7cObjectES5_
	_ZThn224_N4inet16Ipv6RoutingTableD0Ev
	_ZThn224_N4inet16Ipv6RoutingTableD1Ev
	_ZThn224_N4inet17MessageDispatcher23handleRegisterInterfaceERKNS_14InterfaceEntryEPN7omnetpp5cGateES6_
	_ZThn224_N4inet18Ipv4RoutingTableLR13receiveSignalEPN7omnetpp10cComponentEiPNS1_7cObjectES5_
	_ZThn224_N4inet18Ipv4RoutingTableLRD0Ev
	_ZThn224_N4inet18Ipv4RoutingTableLRD1Ev
	_ZThn224_N4inet18L2NodeConfigurator13receiveSignalEPN7omnetpp10cComponentEiPNS1_7cObjectES5_
	_ZThn224_N4inet18L2NodeConfiguratorD0Ev
	_ZThn224_N4inet18L2NodeConfiguratorD1Ev
	_ZThn224_N4inet18SimpleVoipReceiver12socketClosedEPNS_9UdpSocketE
	_ZThn224_N4inet18SimpleVoipReceiver17socketDataArrivedEPNS_9UdpSocketEPNS_6PacketE
	_ZThn224_N4inet18SimpleVoipReceiver18socketErrorArrivedEPNS_9UdpSocketEPNS_10IndicationE
	_ZThn224_N4inet18SimpleVoipReceiverD0Ev
	_ZThn224_N4inet18SimpleVoipReceiverD1Ev
	_ZThn224_N4inet19NextHopRoutingTable13receiveSignalEPN7omnetpp10cComponentEiPNS1_7cObjectES5_
	_ZThn224_N4inet19NextHopRoutingTableD0Ev
	_ZThn224_N4inet19NextHopRoutingTableD1Ev
	_ZThn224_N4inet20Ipv4NodeConfigurator13receiveSignalEPN7omnetpp10cComponentEiPNS1_7cObjectES5_
	_ZThn224_N4inet20Ipv4NodeConfiguratorD0Ev
	_ZThn224_N4inet20Ipv4NodeConfiguratorD1Ev
	_ZThn224_N4inet4Mpls23handleRegisterInterfaceERKNS_14InterfaceEntryEPN7omnetpp5cGateES6_
	_ZThn224_N4inet6Icmpv621handleRegisterServiceERKNS_8ProtocolEPN7omnetpp5cGateENS_16ServicePrimitiveE
	_ZThn224_N4inet6Icmpv622handleRegisterProtocolERKNS_8ProtocolEPN7omnetpp5cGateENS_16ServicePrimitiveE
	_ZThn224_N4inet6Igmpv213receiveSignalEPN7omnetpp10cComponentEiPNS1_7cObjectES5_
	_ZThn224_N4inet6Igmpv2D0Ev
	_ZThn224_N4inet6Igmpv2D1Ev
	_ZThn224_N4inet8SctpPeerD0Ev
	_ZThn224_N4inet8SctpPeerD1Ev
	_ZThn224_N4inet8queueing11PacketQueue12removePacketEPNS_6PacketE
	_ZThn224_N4inet8queueing11PacketQueueD0Ev
	_ZThn224_N4inet8queueing11PacketQueueD1Ev
	_ZThn224_N4inet8queueing12PacketBuffer12removePacketEPNS_6PacketE
	_ZThn224_N4inet8queueing15PacketQueueBaseD0Ev
	_ZThn224_N4inet8queueing15PacketQueueBaseD1Ev
	_ZThn224_N4inet8queueing17EmptyPacketSource11getConsumerEPN7omnetpp5cGateE
	_ZThn224_N4inet8queueing17EmptyPacketSource19handleCanPushPacketEPN7omnetpp5cGateE
	_ZThn224_N4inet8queueing17EmptyPacketSourceD0Ev
	_ZThn224_N4inet8queueing17EmptyPacketSourceD1Ev
	_ZThn224_N4inet8queueing19CompoundPacketQueue12removePacketEPNS_6PacketE
	_ZThn224_N4inet8queueing19CompoundPacketQueueD0Ev
	_ZThn224_N4inet8queueing19CompoundPacketQueueD1Ev
	_ZThn224_N4inet8queueing20PacketDuplicatorBase10pushPacketEPNS_6PacketEPN7omnetpp5cGateE
	_ZThn224_N4inet8queueing20PacketDuplicatorBaseD0Ev
	_ZThn224_N4inet8queueing20PacketDuplicatorBaseD1Ev
	_ZThn224_N4inet8queueing22OrdinalBasedDuplicatorD0Ev
	_ZThn224_N4inet8queueing22OrdinalBasedDuplicatorD1Ev
	_ZThn224_N4inet8queueing22PcapFilePacketProducer11getConsumerEPN7omnetpp5cGateE
	_ZThn224_N4inet8queueing22PcapFilePacketProducer19handleCanPushPacketEPN7omnetpp5cGateE
	_ZThn224_N4inet8queueing22PcapFilePacketProducerD0Ev
	_ZThn224_N4inet8queueing22PcapFilePacketProducerD1Ev
	_ZThn224_N4inet9ieee8021113RateSelection13receiveSignalEPN7omnetpp10cComponentEiPNS2_7cObjectES6_
	_ZThn224_N4inet9ieee8021113RateSelectionD0Ev
	_ZThn224_N4inet9ieee8021113RateSelectionD1Ev
	_ZThn224_N4inet9ieee8021116QosRateSelection13receiveSignalEPN7omnetpp10cComponentEiPNS2_7cObjectES6_
	_ZThn224_N4inet9ieee8021116QosRateSelectionD0Ev
	_ZThn224_N4inet9ieee8021116QosRateSelectionD1Ev
	_ZThn224_NK4inet10DscpMarker13canPushPacketEPNS_6PacketEPN7omnetpp5cGateE
	_ZThn224_NK4inet10DscpMarker17canPushSomePacketEPN7omnetpp5cGateE
	_ZThn224_NK4inet13physicallayer29Ieee80211UnitDiskTransmission13printToStreamERSoi
	_ZThn224_NK4inet8queueing11PacketQueue13getNumPacketsEv
	_ZThn224_NK4inet8queueing11PacketQueue14getTotalLengthEv
	_ZThn224_NK4inet8queueing11PacketQueue16getMaxNumPacketsEv
	_ZThn224_NK4inet8queueing11PacketQueue17getMaxTotalLengthEv
	_ZThn224_NK4inet8queueing11PacketQueue7isEmptyEv
	_ZThn224_NK4inet8queueing11PacketQueue9getPacketEi
	_ZThn224_NK4inet8queueing12PacketBuffer13getNumPacketsEv
	_ZThn224_NK4inet8queueing12PacketBuffer14getTotalLengthEv
	_ZThn224_NK4inet8queueing12PacketBuffer16getMaxNumPacketsEv
	_ZThn224_NK4inet8queueing12PacketBuffer17getMaxTotalLengthEv
	_ZThn224_NK4inet8queueing12PacketBuffer7isEmptyEv
	_ZThn224_NK4inet8queueing12PacketBuffer9getPacketEi
	_ZThn224_NK4inet8queueing12PacketServer16resolveDirectiveEc
	_ZThn224_NK4inet8queueing15MarkovScheduler16resolveDirectiveEc
	_ZThn224_NK4inet8queueing16MarkovClassifier16resolveDirectiveEc
	_ZThn224_NK4inet8queueing16PacketFilterBase16resolveDirectiveEc
	_ZThn224_NK4inet8queueing16TokenBasedServer16resolveDirectiveEc
	_ZThn224_NK4inet8queueing18TokenGeneratorBase16resolveDirectiveEc
	_ZThn224_NK4inet8queueing19CompoundPacketQueue13getNumPacketsEv
	_ZThn224_NK4inet8queueing19CompoundPacketQueue14getTotalLengthEv
	_ZThn224_NK4inet8queueing19CompoundPacketQueue16getMaxNumPacketsEv
	_ZThn224_NK4inet8queueing19CompoundPacketQueue17getMaxTotalLengthEv
	_ZThn224_NK4inet8queueing19CompoundPacketQueue7isEmptyEv
	_ZThn224_NK4inet8queueing19CompoundPacketQueue9getPacketEi
	_ZThn224_NK4inet8queueing19PacketProcessorBase16resolveDirectiveEc
	_ZThn224_NK4inet8queueing20PacketDuplicatorBase13canPushPacketEPNS_6PacketEPN7omnetpp5cGateE
	_ZThn224_NK4inet8queueing20PacketDuplicatorBase17canPushSomePacketEPN7omnetpp5cGateE
	_ZThn224_NK4inet8queueing25PacketBasedTokenGenerator16resolveDirectiveEc
	_ZThn232_N4inet10DscpMarker11getConsumerEPN7omnetpp5cGateE
	_ZThn232_N4inet10DscpMarker19handleCanPushPacketEPN7omnetpp5cGateE
	_ZThn232_N4inet10DscpMarkerD0Ev
	_ZThn232_N4inet10DscpMarkerD1Ev
	_ZThn232_N4inet13physicallayer11RadioMedium11removeRadioEPKNS0_6IRadioE
	_ZThn232_N4inet13physicallayer11RadioMedium13receivePacketEPKNS0_6IRadioEPNS0_7ISignalE
	_ZThn232_N4inet13physicallayer11RadioMedium14transmitPacketEPKNS0_6IRadioEPNS_6PacketE
	_ZThn232_N4inet13physicallayer11RadioMedium8addRadioEPKNS0_6IRadioE
	_ZThn232_N4inet13physicallayer11RadioMediumD0Ev
	_ZThn232_N4inet13physicallayer11RadioMediumD1Ev
	_ZThn232_N4inet3bgp3BgpD0Ev
	_ZThn232_N4inet3bgp3BgpD1Ev
	_ZThn232_N4inet8queueing11PacketQueue10pushPacketEPNS_6PacketEPN7omnetpp5cGateE
	_ZThn232_N4inet8queueing11PacketQueueD0Ev
	_ZThn232_N4inet8queueing11PacketQueueD1Ev
	_ZThn232_N4inet8queueing15PacketQueueBaseD0Ev
	_ZThn232_N4inet8queueing15PacketQueueBaseD1Ev
	_ZThn232_N4inet8queueing19CompoundPacketQueue10pushPacketEPNS_6PacketEPN7omnetpp5cGateE
	_ZThn232_N4inet8queueing19CompoundPacketQueueD0Ev
	_ZThn232_N4inet8queueing19CompoundPacketQueueD1Ev
	_ZThn232_N4inet8queueing20PacketDuplicatorBase11getConsumerEPN7omnetpp5cGateE
	_ZThn232_N4inet8queueing20PacketDuplicatorBase19handleCanPushPacketEPN7omnetpp5cGateE
	_ZThn232_N4inet8queueing20PacketDuplicatorBaseD0Ev
	_ZThn232_N4inet8queueing20PacketDuplicatorBaseD1Ev
	_ZThn232_N4inet8queueing22OrdinalBasedDuplicatorD0Ev
	_ZThn232_N4inet8queueing22OrdinalBasedDuplicatorD1Ev
	_ZThn232_NK4inet13physicallayer11RadioMedium10getArrivalEPKNS0_6IRadioEPKNS0_13ITransmissionE
	_ZThn232_NK4inet13physicallayer11RadioMedium11getMaterialEv
	_ZThn232_NK4inet13physicallayer11RadioMedium11getPathLossEv
	_ZThn232_NK4inet13physicallayer11RadioMedium12getListeningEPKNS0_6IRadioEPKNS0_13ITransmissionE
	_ZThn232_NK4inet13physicallayer11RadioMedium12getReceptionEPKNS0_6IRadioEPKNS0_13ITransmissionE
	_ZThn232_NK4inet13physicallayer11RadioMedium13printToStreamERSoi
	_ZThn232_NK4inet13physicallayer11RadioMedium14getAnalogModelEv
	_ZThn232_NK4inet13physicallayer11RadioMedium14getPropagationEv
	_ZThn232_NK4inet13physicallayer11RadioMedium14listenOnMediumEPKNS0_6IRadioEPKNS0_10IListeningE
	_ZThn232_NK4inet13physicallayer11RadioMedium15getInterferenceEPKNS0_6IRadioEPKNS0_13ITransmissionE
	_ZThn232_NK4inet13physicallayer11RadioMedium15getObstacleLossEv
	_ZThn232_NK4inet13physicallayer11RadioMedium15getTransmissionEi
	_ZThn232_NK4inet13physicallayer11RadioMedium16getNeighborCacheEv
	_ZThn232_NK4inet13physicallayer11RadioMedium18getBackgroundNoiseEv
	_ZThn232_NK4inet13physicallayer11RadioMedium18getReceptionResultEPKNS0_6IRadioEPKNS0_10IListeningEPKNS0_13ITransmissionE
	_ZThn232_NK4inet13physicallayer11RadioMedium19getMediumLimitCacheEv
	_ZThn232_NK4inet13physicallayer11RadioMedium19isReceptionPossibleEPKNS0_6IRadioEPKNS0_13ITransmissionENS0_12IRadioSignal10SignalPartE
	_ZThn232_NK4inet13physicallayer11RadioMedium20getReceptionDecisionEPKNS0_6IRadioEPKNS0_10IListeningEPKNS0_13ITransmissionENS0_12IRadioSignal10SignalPartE
	_ZThn232_NK4inet13physicallayer11RadioMedium20isReceptionAttemptedEPKNS0_6IRadioEPKNS0_13ITransmissionENS0_12IRadioSignal10SignalPartE
	_ZThn232_NK4inet13physicallayer11RadioMedium21getCommunicationCacheEv
	_ZThn232_NK4inet13physicallayer11RadioMedium21isReceptionSuccessfulEPKNS0_6IRadioEPKNS0_13ITransmissionENS0_12IRadioSignal10SignalPartE
	_ZThn232_NK4inet13physicallayer11RadioMedium22getPhysicalEnvironmentEv
	_ZThn232_NK4inet13physicallayer11RadioMedium7getSNIREPKNS0_6IRadioEPKNS0_13ITransmissionE
	_ZThn232_NK4inet13physicallayer11RadioMedium8getNoiseEPKNS0_6IRadioEPKNS0_13ITransmissionE
	_ZThn232_NK4inet13physicallayer11RadioMedium8getRadioEi
	_ZThn232_NK4inet8queueing11PacketQueue13canPushPacketEPNS_6PacketEPN7omnetpp5cGateE
	_ZThn232_NK4inet8queueing11PacketQueue17canPushSomePacketEPN7omnetpp5cGateE
	_ZThn232_NK4inet8queueing15PacketQueueBase17canPushSomePacketEPN7omnetpp5cGateE
	_ZThn232_NK4inet8queueing19CompoundPacketQueue13canPushPacketEPNS_6PacketEPN7omnetpp5cGateE
	_ZThn240_N4inet10visualizer18LinkVisualizerBase13receiveSignalEPN7omnetpp10cComponentEiPNS2_7cObjectES6_
	_ZThn240_N4inet10visualizer18LinkVisualizerBaseD0Ev
	_ZThn240_N4inet10visualizer18LinkVisualizerBaseD1Ev
	_ZThn240_N4inet10visualizer18PathVisualizerBase13receiveSignalEPN7omnetpp10cComponentEiPNS2_7cObjectES6_
	_ZThn240_N4inet10visualizer18PathVisualizerBaseD0Ev
	_ZThn240_N4inet10visualizer18PathVisualizerBaseD1Ev
	_ZThn240_N4inet10visualizer18RadioOsgVisualizerD0Ev
	_ZThn240_N4inet10visualizer18RadioOsgVisualizerD1Ev
	_ZThn240_N4inet10visualizer19MediumOsgVisualizerD0Ev
	_ZThn240_N4inet10visualizer19MediumOsgVisualizerD1Ev
	_ZThn240_N4inet10visualizer19RadioVisualizerBase13receiveSignalEPN7omnetpp10cComponentEilPNS2_7cObjectE
	_ZThn240_N4inet10visualizer19RadioVisualizerBaseD0Ev
	_ZThn240_N4inet10visualizer19RadioVisualizerBaseD1Ev
	_ZThn240_N4inet10visualizer20MediumVisualizerBase13receiveSignalEPN7omnetpp10cComponentEiPNS2_7cObjectES6_
	_ZThn240_N4inet10visualizer20MediumVisualizerBaseD0Ev
	_ZThn240_N4inet10visualizer20MediumVisualizerBaseD1Ev
	_ZThn240_N4inet10visualizer21DataLinkOsgVisualizerD0Ev
	_ZThn240_N4inet10visualizer21DataLinkOsgVisualizerD1Ev
	_ZThn240_N4inet10visualizer21LinkOsgVisualizerBaseD0Ev
	_ZThn240_N4inet10visualizer21LinkOsgVisualizerBaseD1Ev
	_ZThn240_N4inet10visualizer21MobilityOsgVisualizer13receiveSignalEPN7omnetpp10cComponentEiPNS2_7cObjectES6_
	_ZThn240_N4inet10visualizer21MobilityOsgVisualizerD0Ev
	_ZThn240_N4inet10visualizer21MobilityOsgVisualizerD1Ev
	_ZThn240_N4inet10visualizer21PathOsgVisualizerBaseD0Ev
	_ZThn240_N4inet10visualizer21PathOsgVisualizerBaseD1Ev
	_ZThn240_N4inet10visualizer21RadioCanvasVisualizerD0Ev
	_ZThn240_N4inet10visualizer21RadioCanvasVisualizerD1Ev
	_ZThn240_N4inet10visualizer22Ieee80211OsgVisualizerD0Ev
	_ZThn240_N4inet10visualizer22Ieee80211OsgVisualizerD1Ev
	_ZThn240_N4inet10visualizer22LinkBreakOsgVisualizerD0Ev
	_ZThn240_N4inet10visualizer22LinkBreakOsgVisualizerD1Ev
	_ZThn240_N4inet10visualizer22MediumCanvasVisualizer13receiveSignalEPN7omnetpp10cComponentEiPNS2_7cObjectES6_
	_ZThn240_N4inet10visualizer22MediumCanvasVisualizerD0Ev
	_ZThn240_N4inet10visualizer22MediumCanvasVisualizerD1Ev
	_ZThn240_N4inet10visualizer22MobilityVisualizerBaseD0Ev
	_ZThn240_N4inet10visualizer22MobilityVisualizerBaseD1Ev
	_ZThn240_N4inet10visualizer22StatisticOsgVisualizerD0Ev
	_ZThn240_N4inet10visualizer22StatisticOsgVisualizerD1Ev
	_ZThn240_N4inet10visualizer23Ieee80211VisualizerBase13receiveSignalEPN7omnetpp10cComponentEiPNS2_7cObjectES6_
	_ZThn240_N4inet10visualizer23Ieee80211VisualizerBaseD0Ev
	_ZThn240_N4inet10visualizer23Ieee80211VisualizerBaseD1Ev
	_ZThn240_N4inet10visualizer23LinkBreakVisualizerBase13receiveSignalEPN7omnetpp10cComponentEiPNS2_7cObjectES6_
	_ZThn240_N4inet10visualizer23LinkBreakVisualizerBaseD0Ev
	_ZThn240_N4inet10visualizer23LinkBreakVisualizerBaseD1Ev
	_ZThn240_N4inet10visualizer23PacketDropOsgVisualizerD0Ev
	_ZThn240_N4inet10visualizer23PacketDropOsgVisualizerD1Ev
	_ZThn240_N4inet10visualizer23StatisticVisualizerBase13receiveSignalEPN7omnetpp10cComponentEiPKcPNS2_7cObjectE
	_ZThn240_N4inet10visualizer23StatisticVisualizerBase13receiveSignalEPN7omnetpp10cComponentEiPNS2_7cObjectES6_
	_ZThn240_N4inet10visualizer23StatisticVisualizerBase13receiveSignalEPN7omnetpp10cComponentEiRKNS2_7SimTimeEPNS2_7cObjectE
	_ZThn240_N4inet10visualizer23StatisticVisualizerBase13receiveSignalEPN7omnetpp10cComponentEibPNS2_7cObjectE
	_ZThn240_N4inet10visualizer23StatisticVisualizerBase13receiveSignalEPN7omnetpp10cComponentEidPNS2_7cObjectE
	_ZThn240_N4inet10visualizer23StatisticVisualizerBase13receiveSignalEPN7omnetpp10cComponentEilPNS2_7cObjectE
	_ZThn240_N4inet10visualizer23StatisticVisualizerBase13receiveSignalEPN7omnetpp10cComponentEimPNS2_7cObjectE
	_ZThn240_N4inet10visualizer23StatisticVisualizerBaseD0Ev
	_ZThn240_N4inet10visualizer23StatisticVisualizerBaseD1Ev
	_ZThn240_N4inet10visualizer24DataLinkCanvasVisualizerD0Ev
	_ZThn240_N4inet10visualizer24DataLinkCanvasVisualizerD1Ev
	_ZThn240_N4inet10visualizer24LinkCanvasVisualizerBaseD0Ev
	_ZThn240_N4inet10visualizer24LinkCanvasVisualizerBaseD1Ev
	_ZThn240_N4inet10visualizer24MobilityCanvasVisualizer13receiveSignalEPN7omnetpp10cComponentEiPNS2_7cObjectES6_
	_ZThn240_N4inet10visualizer24MobilityCanvasVisualizerD0Ev
	_ZThn240_N4inet10visualizer24MobilityCanvasVisualizerD1Ev
	_ZThn240_N4inet10visualizer24NetworkNodeOsgVisualizerD0Ev
	_ZThn240_N4inet10visualizer24NetworkNodeOsgVisualizerD1Ev
	_ZThn240_N4inet10visualizer24PacketDropVisualizerBase13receiveSignalEPN7omnetpp10cComponentEiPNS2_7cObjectES6_
	_ZThn240_N4inet10visualizer24PacketDropVisualizerBaseD0Ev
	_ZThn240_N4inet10visualizer24PacketDropVisualizerBaseD1Ev
	_ZThn240_N4inet10visualizer24PathCanvasVisualizerBaseD0Ev
	_ZThn240_N4inet10visualizer24PathCanvasVisualizerBaseD1Ev
	_ZThn240_N4inet10visualizer25Ieee80211CanvasVisualizerD0Ev
	_ZThn240_N4inet10visualizer25Ieee80211CanvasVisualizerD1Ev
	_ZThn240_N4inet10visualizer25LinkBreakCanvasVisualizerD0Ev
	_ZThn240_N4inet10visualizer25LinkBreakCanvasVisualizerD1Ev
	_ZThn240_N4inet10visualizer25NetworkNodeVisualizerBase13receiveSignalEPN7omnetpp10cComponentEiPNS2_7cObjectES6_
	_ZThn240_N4inet10visualizer25NetworkNodeVisualizerBaseD0Ev
	_ZThn240_N4inet10visualizer25NetworkNodeVisualizerBaseD1Ev
	_ZThn240_N4inet10visualizer25NetworkRouteOsgVisualizerD0Ev
	_ZThn240_N4inet10visualizer25NetworkRouteOsgVisualizerD1Ev
	_ZThn240_N4inet10visualizer25PhysicalLinkOsgVisualizerD0Ev
	_ZThn240_N4inet10visualizer25PhysicalLinkOsgVisualizerD1Ev
	_ZThn240_N4inet10visualizer25RoutingTableOsgVisualizerD0Ev
	_ZThn240_N4inet10visualizer25RoutingTableOsgVisualizerD1Ev
	_ZThn240_N4inet10visualizer25StatisticCanvasVisualizerD0Ev
	_ZThn240_N4inet10visualizer25StatisticCanvasVisualizerD1Ev
	_ZThn240_N4inet10visualizer26PacketDropCanvasVisualizerD0Ev
	_ZThn240_N4inet10visualizer26PacketDropCanvasVisualizerD1Ev
	_ZThn240_N4inet10visualizer26RoutingTableVisualizerBase13receiveSignalEPN7omnetpp10cComponentEiPNS2_7cObjectES6_
	_ZThn240_N4inet10visualizer26RoutingTableVisualizerBaseD0Ev
	_ZThn240_N4inet10visualizer26RoutingTableVisualizerBaseD1Ev
	_ZThn240_N4inet10visualizer27InterfaceTableOsgVisualizerD0Ev
	_ZThn240_N4inet10visualizer27InterfaceTableOsgVisualizerD1Ev
	_ZThn240_N4inet10visualizer27NetworkNodeCanvasVisualizerD0Ev
	_ZThn240_N4inet10visualizer27NetworkNodeCanvasVisualizerD1Ev
	_ZThn240_N4inet10visualizer27TransportRouteOsgVisualizerD0Ev
	_ZThn240_N4inet10visualizer27TransportRouteOsgVisualizerD1Ev
	_ZThn240_N4inet10visualizer28InterfaceTableVisualizerBase13receiveSignalEPN7omnetpp10cComponentEiPNS2_7cObjectES6_
	_ZThn240_N4inet10visualizer28InterfaceTableVisualizerBaseD0Ev
	_ZThn240_N4inet10visualizer28InterfaceTableVisualizerBaseD1Ev
	_ZThn240_N4inet10visualizer28NetworkRouteCanvasVisualizerD0Ev
	_ZThn240_N4inet10visualizer28NetworkRouteCanvasVisualizerD1Ev
	_ZThn240_N4inet10visualizer28PhysicalLinkCanvasVisualizerD0Ev
	_ZThn240_N4inet10visualizer28PhysicalLinkCanvasVisualizerD1Ev
	_ZThn240_N4inet10visualizer28RoutingTableCanvasVisualizerD0Ev
	_ZThn240_N4inet10visualizer28RoutingTableCanvasVisualizerD1Ev
	_ZThn240_N4inet10visualizer30InterfaceTableCanvasVisualizerD0Ev
	_ZThn240_N4inet10visualizer30InterfaceTableCanvasVisualizerD1Ev
	_ZThn240_N4inet10visualizer30NetworkConnectionOsgVisualizerD0Ev
	_ZThn240_N4inet10visualizer30NetworkConnectionOsgVisualizerD1Ev
	_ZThn240_N4inet10visualizer30TransportRouteCanvasVisualizerD0Ev
	_ZThn240_N4inet10visualizer30TransportRouteCanvasVisualizerD1Ev
	_ZThn240_N4inet10visualizer31NetworkConnectionVisualizerBaseD0Ev
	_ZThn240_N4inet10visualizer31NetworkConnectionVisualizerBaseD1Ev
	_ZThn240_N4inet10visualizer32TracingObstacleLossOsgVisualizerD0Ev
	_ZThn240_N4inet10visualizer32TracingObstacleLossOsgVisualizerD1Ev
	_ZThn240_N4inet10visualizer32TransportConnectionOsgVisualizerD0Ev
	_ZThn240_N4inet10visualizer32TransportConnectionOsgVisualizerD1Ev
	_ZThn240_N4inet10visualizer33NetworkConnectionCanvasVisualizerD0Ev
	_ZThn240_N4inet10visualizer33NetworkConnectionCanvasVisualizerD1Ev
	_ZThn240_N4inet10visualizer33TracingObstacleLossVisualizerBase13receiveSignalEPN7omnetpp10cComponentEiPNS2_7cObjectES6_
	_ZThn240_N4inet10visualizer33TracingObstacleLossVisualizerBaseD0Ev
	_ZThn240_N4inet10visualizer33TracingObstacleLossVisualizerBaseD1Ev
	_ZThn240_N4inet10visualizer33TransportConnectionVisualizerBase13receiveSignalEPN7omnetpp10cComponentEiPNS2_7cObjectES6_
	_ZThn240_N4inet10visualizer33TransportConnectionVisualizerBaseD0Ev
	_ZThn240_N4inet10visualizer33TransportConnectionVisualizerBaseD1Ev
	_ZThn240_N4inet10visualizer35TracingObstacleLossCanvasVisualizerD0Ev
	_ZThn240_N4inet10visualizer35TracingObstacleLossCanvasVisualizerD1Ev
	_ZThn240_N4inet10visualizer35TransportConnectionCanvasVisualizerD0Ev
	_ZThn240_N4inet10visualizer35TransportConnectionCanvasVisualizerD1Ev
	_ZThn240_N4inet13physicallayer28Ieee80211LayeredTransmissionD0Ev
	_ZThn240_N4inet13physicallayer28Ieee80211LayeredTransmissionD1Ev
	_ZThn240_N4inet16Ipv4RoutingTable20handleOperationStageEPNS_18LifecycleOperationEPNS_13IDoneCallbackE
	_ZThn240_N4inet16Ipv4RoutingTableD0Ev
	_ZThn240_N4inet16Ipv4RoutingTableD1Ev
	_ZThn240_N4inet16Ipv6RoutingTable20handleOperationStageEPNS_18LifecycleOperationEPNS_13IDoneCallbackE
	_ZThn240_N4inet16Ipv6RoutingTableD0Ev
	_ZThn240_N4inet16Ipv6RoutingTableD1Ev
	_ZThn240_N4inet18Ipv4RoutingTableLR20handleOperationStageEPNS_18LifecycleOperationEPNS_13IDoneCallbackE
	_ZThn240_N4inet18Ipv4RoutingTableLRD0Ev
	_ZThn240_N4inet18Ipv4RoutingTableLRD1Ev
	_ZThn240_N4inet8queueing11PacketQueue9popPacketEPN7omnetpp5cGateE
	_ZThn240_N4inet8queueing11PacketQueueD0Ev
	_ZThn240_N4inet8queueing11PacketQueueD1Ev
	_ZThn240_N4inet8queueing15PacketQueueBaseD0Ev
	_ZThn240_N4inet8queueing15PacketQueueBaseD1Ev
	_ZThn240_N4inet8queueing19CompoundPacketQueue9popPacketEPN7omnetpp5cGateE
	_ZThn240_N4inet8queueing19CompoundPacketQueueD0Ev
	_ZThn240_N4inet8queueing19CompoundPacketQueueD1Ev
	_ZThn240_N4inet9ieee8021112QosCtsPolicyD0Ev
	_ZThn240_N4inet9ieee8021112QosCtsPolicyD1Ev
	_ZThn240_N4inet9ieee8021112QosRtsPolicyD0Ev
	_ZThn240_N4inet9ieee8021112QosRtsPolicyD1Ev
	_ZThn240_N4inet9ieee8021115AarfRateControl13frameReceivedEPNS_6PacketE
	_ZThn240_N4inet9ieee8021115AarfRateControl16frameTransmittedEPNS_6PacketEibb
	_ZThn240_N4inet9ieee8021115AarfRateControl7getRateEv
	_ZThn240_N4inet9ieee8021115AarfRateControlD0Ev
	_ZThn240_N4inet9ieee8021115AarfRateControlD1Ev
	_ZThn240_N4inet9ieee8021115OnoeRateControl13frameReceivedEPNS_6PacketE
	_ZThn240_N4inet9ieee8021115OnoeRateControl16frameTransmittedEPNS_6PacketEibb
	_ZThn240_N4inet9ieee8021115OnoeRateControl7getRateEv
	_ZThn240_N4inet9ieee8021115OnoeRateControlD0Ev
	_ZThn240_N4inet9ieee8021115OnoeRateControlD1Ev
	_ZThn240_N4inet9ieee8021115RateControlBaseD0Ev
	_ZThn240_N4inet9ieee8021115RateControlBaseD1Ev
	_ZThn240_N4inet9ieee8021118RecipientAckPolicyD0Ev
	_ZThn240_N4inet9ieee8021118RecipientAckPolicyD1Ev
	_ZThn240_N4inet9ieee8021119OriginatorAckPolicyD0Ev
	_ZThn240_N4inet9ieee8021119OriginatorAckPolicyD1Ev
	_ZThn240_N4inet9ieee8021121RecipientQosAckPolicyD0Ev
	_ZThn240_N4inet9ieee8021121RecipientQosAckPolicyD1Ev
	_ZThn240_N4inet9ieee8021122OriginatorQosAckPolicyD0Ev
	_ZThn240_N4inet9ieee8021122OriginatorQosAckPolicyD1Ev
	_ZThn240_N4inet9ieee8021133OriginatorBlockAckAgreementPolicy15isDelbaAcceptedERKNS_12IntrusivePtrIKNS0_14Ieee80211DelbaEEE
	_ZThn240_N4inet9ieee8021133OriginatorBlockAckAgreementPolicy16isAddbaReqNeededEPNS_6PacketERKNS_12IntrusivePtrIKNS0_19Ieee80211DataHeaderEEE
	_ZThn240_N4inet9ieee8021133OriginatorBlockAckAgreementPolicy18isAddbaReqAcceptedERKNS_12IntrusivePtrIKNS0_22Ieee80211AddbaResponseEEEPNS0_27OriginatorBlockAckAgreementE
	_ZThn240_N4inet9ieee8021133OriginatorBlockAckAgreementPolicyD0Ev
	_ZThn240_N4inet9ieee8021133OriginatorBlockAckAgreementPolicyD1Ev
	_ZThn240_N4inet9ieee802114Dcaf13receiveSignalEPN7omnetpp10cComponentEiPNS2_7cObjectES6_
	_ZThn240_N4inet9ieee802114DcafD0Ev
	_ZThn240_N4inet9ieee802114DcafD1Ev
	_ZThn240_N4inet9ieee802115Edcaf13receiveSignalEPN7omnetpp10cComponentEiPNS2_7cObjectES6_
	_ZThn240_N4inet9ieee802115EdcafD0Ev
	_ZThn240_N4inet9ieee802115EdcafD1Ev
	_ZThn240_N4inet9ieee802119CtsPolicyD0Ev
	_ZThn240_N4inet9ieee802119CtsPolicyD1Ev
	_ZThn240_N4inet9ieee802119RtsPolicyD0Ev
	_ZThn240_N4inet9ieee802119RtsPolicyD1Ev
	_ZThn240_NK4inet13physicallayer28Ieee80211LayeredTransmission13printToStreamERSoi
	_ZThn240_NK4inet8queueing11PacketQueue12canPopPacketEPN7omnetpp5cGateE
	_ZThn240_NK4inet8queueing11PacketQueue16canPopSomePacketEPN7omnetpp5cGateE
	_ZThn240_NK4inet8queueing15PacketQueueBase16canPopSomePacketEPN7omnetpp5cGateE
	_ZThn240_NK4inet8queueing19CompoundPacketQueue12canPopPacketEPN7omnetpp5cGateE
	_ZThn240_NK4inet9ieee8021112QosCtsPolicy11isCtsNeededERKNS_12IntrusivePtrIKNS0_17Ieee80211RtsFrameEEE
	_ZThn240_NK4inet9ieee8021112QosCtsPolicy23computeCtsDurationFieldEPNS_6PacketERKNS_12IntrusivePtrIKNS0_17Ieee80211RtsFrameEEE
	_ZThn240_NK4inet9ieee8021112QosRtsPolicy11isRtsNeededEPNS_6PacketERKNS_12IntrusivePtrIKNS0_18Ieee80211MacHeaderEEE
	_ZThn240_NK4inet9ieee8021112QosRtsPolicy13getCtsTimeoutEPNS_6PacketERKNS_12IntrusivePtrIKNS0_17Ieee80211RtsFrameEEE
	_ZThn240_NK4inet9ieee8021112QosRtsPolicy15getRtsThresholdEv
	_ZThn240_NK4inet9ieee8021118RecipientAckPolicy11isAckNeededERKNS_12IntrusivePtrIKNS0_25Ieee80211DataOrMgmtHeaderEEE
	_ZThn240_NK4inet9ieee8021118RecipientAckPolicy23computeAckDurationFieldEPNS_6PacketERKNS_12IntrusivePtrIKNS0_25Ieee80211DataOrMgmtHeaderEEE
	_ZThn240_NK4inet9ieee8021119OriginatorAckPolicy11isAckNeededERKNS_12IntrusivePtrIKNS0_25Ieee80211DataOrMgmtHeaderEEE
	_ZThn240_NK4inet9ieee8021119OriginatorAckPolicy13getAckTimeoutEPNS_6PacketERKNS_12IntrusivePtrIKNS0_25Ieee80211DataOrMgmtHeaderEEE
	_ZThn240_NK4inet9ieee8021121RecipientQosAckPolicy11isAckNeededERKNS_12IntrusivePtrIKNS0_25Ieee80211DataOrMgmtHeaderEEE
	_ZThn240_NK4inet9ieee8021121RecipientQosAckPolicy23computeAckDurationFieldEPNS_6PacketERKNS_12IntrusivePtrIKNS0_25Ieee80211DataOrMgmtHeaderEEE
	_ZThn240_NK4inet9ieee8021122OriginatorQosAckPolicy11isAckNeededERKNS_12IntrusivePtrIKNS0_19Ieee80211MgmtHeaderEEE
	_ZThn240_NK4inet9ieee8021122OriginatorQosAckPolicy13getAckTimeoutEPNS_6PacketERKNS_12IntrusivePtrIKNS0_25Ieee80211DataOrMgmtHeaderEEE
	_ZThn240_NK4inet9ieee8021122OriginatorQosAckPolicy16computeAckPolicyEPNS_6PacketERKNS_12IntrusivePtrIKNS0_19Ieee80211DataHeaderEEEPNS0_27OriginatorBlockAckAgreementE
	_ZThn240_NK4inet9ieee8021122OriginatorQosAckPolicy18getBlockAckTimeoutEPNS_6PacketERKNS_12IntrusivePtrIKNS0_20Ieee80211BlockAckReqEEE
	_ZThn240_NK4inet9ieee8021122OriginatorQosAckPolicy19isBlockAckReqNeededEPNS0_16InProgressFramesEPNS0_13TxopProcedureE
	_ZThn240_NK4inet9ieee8021122OriginatorQosAckPolicy28computeBlockAckReqParametersEPNS0_16InProgressFramesEPNS0_13TxopProcedureE
	_ZThn240_NK4inet9ieee8021122OriginatorQosAckPolicy29isBlockAckPolicyEligibleFrameEPNS_6PacketERKNS_12IntrusivePtrIKNS0_19Ieee80211DataHeaderEEE
	_ZThn240_NK4inet9ieee8021133OriginatorBlockAckAgreementPolicy15isMsduSupportedEv
	_ZThn240_NK4inet9ieee8021133OriginatorBlockAckAgreementPolicy23getBlockAckTimeoutValueEv
	_ZThn240_NK4inet9ieee8021133OriginatorBlockAckAgreementPolicy26computeAddbaFailureTimeoutEv
	_ZThn240_NK4inet9ieee8021133OriginatorBlockAckAgreementPolicy27getMaximumAllowedBufferSizeEv
	_ZThn240_NK4inet9ieee8021133OriginatorBlockAckAgreementPolicy27isDelayedAckPolicySupportedEv
	_ZThn240_NK4inet9ieee802119CtsPolicy11isCtsNeededERKNS_12IntrusivePtrIKNS0_17Ieee80211RtsFrameEEE
	_ZThn240_NK4inet9ieee802119CtsPolicy23computeCtsDurationFieldEPNS_6PacketERKNS_12IntrusivePtrIKNS0_17Ieee80211RtsFrameEEE
	_ZThn240_NK4inet9ieee802119RtsPolicy11isRtsNeededEPNS_6PacketERKNS_12IntrusivePtrIKNS0_18Ieee80211MacHeaderEEE
	_ZThn240_NK4inet9ieee802119RtsPolicy13getCtsTimeoutEPNS_6PacketERKNS_12IntrusivePtrIKNS0_17Ieee80211RtsFrameEEE
	_ZThn240_NK4inet9ieee802119RtsPolicy15getRtsThresholdEv
	_ZThn248_N4inet5power15SimpleCcBatteryD0Ev
	_ZThn248_N4inet5power15SimpleCcBatteryD1Ev
	_ZThn248_N4inet5power19CcEnergyStorageBase13receiveSignalEPN7omnetpp10cComponentEidPNS2_7cObjectE
	_ZThn248_N4inet5power19CcEnergyStorageBaseD0Ev
	_ZThn248_N4inet5power19CcEnergyStorageBaseD1Ev
	_ZThn248_N4inet5power19EpEnergyStorageBase13receiveSignalEPN7omnetpp10cComponentEidPNS2_7cObjectE
	_ZThn248_N4inet5power19EpEnergyStorageBaseD0Ev
	_ZThn248_N4inet5power19EpEnergyStorageBaseD1Ev
	_ZThn248_N4inet5power20IdealEpEnergyStorageD0Ev
	_ZThn248_N4inet5power20IdealEpEnergyStorageD1Ev
	_ZThn248_N4inet5power21SimpleEpEnergyStorageD0Ev
	_ZThn248_N4inet5power21SimpleEpEnergyStorageD1Ev
	_ZThn248_N4inet9ieee8021121RecipientQosAckPolicyD0Ev
	_ZThn248_N4inet9ieee8021121RecipientQosAckPolicyD1Ev
	_ZThn248_NK4inet13physicallayer23DimensionalTransmission8getPowerEv
	_ZThn248_NK4inet9ieee8021121RecipientQosAckPolicy11isAckNeededERKNS_12IntrusivePtrIKNS0_25Ieee80211DataOrMgmtHeaderEEE
	_ZThn248_NK4inet9ieee8021121RecipientQosAckPolicy16isBlockAckNeededERKNS_12IntrusivePtrIKNS0_20Ieee80211BlockAckReqEEEPNS0_26RecipientBlockAckAgreementE
	_ZThn248_NK4inet9ieee8021121RecipientQosAckPolicy23computeAckDurationFieldEPNS_6PacketERKNS_12IntrusivePtrIKNS0_25Ieee80211DataOrMgmtHeaderEEE
	_ZThn248_NK4inet9ieee8021121RecipientQosAckPolicy33computeBasicBlockAckDurationFieldEPNS_6PacketERKNS_12IntrusivePtrIKNS0_25Ieee80211BasicBlockAckReqEEE
	_ZThn24_N4inet13physicallayer20ReceptionPacketModelD0Ev
	_ZThn24_N4inet13physicallayer20ReceptionPacketModelD1Ev
	_ZThn24_N4inet8queueing12IPacketMeterD0Ev
	_ZThn24_N4inet8queueing12IPacketMeterD1Ev
	_ZThn24_N4inet8queueing13IPacketFilterD0Ev
	_ZThn24_N4inet8queueing13IPacketFilterD1Ev
	_ZThn24_N4inet8queueing13IPacketMarkerD0Ev
	_ZThn24_N4inet8queueing13IPacketMarkerD1Ev
	_ZThn24_N4inet9ieee802113Dcf20transmissionCompleteEPNS_6PacketERKNS_12IntrusivePtrIKNS0_18Ieee80211MacHeaderEEE
	_ZThn24_N4inet9ieee802113DcfD0Ev
	_ZThn24_N4inet9ieee802113DcfD1Ev
	_ZThn24_N4inet9ieee802113Hcf20transmissionCompleteEPNS_6PacketERKNS_12IntrusivePtrIKNS0_18Ieee80211MacHeaderEEE
	_ZThn24_N4inet9ieee802113HcfD0Ev
	_ZThn24_N4inet9ieee802113HcfD1Ev
	_ZThn24_N4inet9ieee802114Dcaf10initializeEi
	_ZThn24_N4inet9ieee802114Dcaf13receiveSignalEPN7omnetpp10cComponentEiPNS2_7cObjectES6_
	_ZThn24_N4inet9ieee802114DcafD0Ev
	_ZThn24_N4inet9ieee802114DcafD1Ev
	_ZThn24_N4inet9ieee802115Edcaf10initializeEi
	_ZThn24_N4inet9ieee802115Edcaf13receiveSignalEPN7omnetpp10cComponentEiPNS2_7cObjectES6_
	_ZThn24_N4inet9ieee802115EdcafD0Ev
	_ZThn24_N4inet9ieee802115EdcafD1Ev
	_ZThn24_NK4inet19physicalenvironment14PhysicalObject10getOpacityEv
	_ZThn24_NK4inet19physicalenvironment14PhysicalObject10getTextureEv
	_ZThn24_NK4inet19physicalenvironment14PhysicalObject11getPositionEv
	_ZThn24_NK4inet19physicalenvironment14PhysicalObject12getFillColorEv
	_ZThn24_NK4inet19physicalenvironment14PhysicalObject12getLineColorEv
	_ZThn24_NK4inet19physicalenvironment14PhysicalObject12getLineWidthEv
	_ZThn24_NK4inet19physicalenvironment14PhysicalObject14getOrientationEv
	_ZThn24_NK4inet19physicalenvironment14PhysicalObject7getTagsEv
	_ZThn24_NK4inet19physicalenvironment14PhysicalObject8getShapeEv
	_ZThn24_NK4inet19physicalenvironment8Material14getResistivityEv
	_ZThn24_NK4inet19physicalenvironment8Material18getRefractiveIndexEv
	_ZThn24_NK4inet19physicalenvironment8Material19getPropagationSpeedEv
	_ZThn24_NK4inet19physicalenvironment8Material23getRelativePermeabilityEv
	_ZThn24_NK4inet19physicalenvironment8Material23getRelativePermittivityEv
	_ZThn24_NK4inet19physicalenvironment8Material24getDielectricLossTangentENS_5units5valueIdNS2_3powINS2_5units1sELin1ELi1EEEEE
	_ZThn24_NK4inet9ieee802114Dcaf13numInitStagesEv
	_ZThn24_NK4inet9ieee802114Dcaf14refreshDisplayEv
	_ZThn24_NK4inet9ieee802115Edcaf13numInitStagesEv
	_ZThn24_NK4inet9ieee802115Edcaf14refreshDisplayEv
	_ZThn256_N4inet13physicallayer27Ieee80211ScalarTransmissionD0Ev
	_ZThn256_N4inet13physicallayer27Ieee80211ScalarTransmissionD1Ev
	_ZThn256_N4inet13physicallayer42Ieee802154NarrowbandDimensionalTransmitter10initializeEi
	_ZThn256_N4inet13physicallayer42Ieee802154NarrowbandDimensionalTransmitterD0Ev
	_ZThn256_N4inet13physicallayer42Ieee802154NarrowbandDimensionalTransmitterD1Ev
	_ZThn256_N4inet15PacketMeterBaseD0Ev
	_ZThn256_N4inet15PacketMeterBaseD1Ev
	_ZThn256_N4inet16TokenBucketMeter10pushPacketEPNS_6PacketEPN7omnetpp5cGateE
	_ZThn256_N4inet16TokenBucketMeterD0Ev
	_ZThn256_N4inet16TokenBucketMeterD1Ev
	_ZThn256_N4inet20EtherFrameClassifierD0Ev
	_ZThn256_N4inet20EtherFrameClassifierD1Ev
	_ZThn256_N4inet20MultiFieldClassifier10pushPacketEPNS_6PacketEPN7omnetpp5cGateE
	_ZThn256_N4inet20MultiFieldClassifierD0Ev
	_ZThn256_N4inet20MultiFieldClassifierD1Ev
	_ZThn256_N4inet22TwoRateThreeColorMeter10pushPacketEPNS_6PacketEPN7omnetpp5cGateE
	_ZThn256_N4inet22TwoRateThreeColorMeterD0Ev
	_ZThn256_N4inet22TwoRateThreeColorMeterD1Ev
	_ZThn256_N4inet25SingleRateThreeColorMeter10pushPacketEPNS_6PacketEPN7omnetpp5cGateE
	_ZThn256_N4inet25SingleRateThreeColorMeterD0Ev
	_ZThn256_N4inet25SingleRateThreeColorMeterD1Ev
	_ZThn256_N4inet27BehaviorAggregateClassifier10pushPacketEPNS_6PacketEPN7omnetpp5cGateE
	_ZThn256_N4inet27BehaviorAggregateClassifierD0Ev
	_ZThn256_N4inet27BehaviorAggregateClassifierD1Ev
	_ZThn256_N4inet8queueing10PacketGate9popPacketEPN7omnetpp5cGateE
	_ZThn256_N4inet8queueing10PacketGateD0Ev
	_ZThn256_N4inet8queueing10PacketGateD1Ev
	_ZThn256_N4inet8queueing10RedDropperD0Ev
	_ZThn256_N4inet8queueing10RedDropperD1Ev
	_ZThn256_N4inet8queueing11RateLimiterD0Ev
	_ZThn256_N4inet8queueing11RateLimiterD1Ev
	_ZThn256_N4inet8queueing12PacketBuffer12removePacketEPNS_6PacketE
	_ZThn256_N4inet8queueing12PacketBuffer9addPacketEPNS_6PacketE
	_ZThn256_N4inet8queueing12PacketBufferD0Ev
	_ZThn256_N4inet8queueing12PacketBufferD1Ev
	_ZThn256_N4inet8queueing12PacketCloner10pushPacketEPNS_6PacketEPN7omnetpp5cGateE
	_ZThn256_N4inet8queueing12PacketClonerD0Ev
	_ZThn256_N4inet8queueing12PacketClonerD1Ev
	_ZThn256_N4inet8queueing12PacketFilterD0Ev
	_ZThn256_N4inet8queueing12PacketFilterD1Ev
	_ZThn256_N4inet8queueing12PacketServer11getProviderEPN7omnetpp5cGateE
	_ZThn256_N4inet8queueing12PacketServer18handleCanPopPacketEPN7omnetpp5cGateE
	_ZThn256_N4inet8queueing12PacketServerD0Ev
	_ZThn256_N4inet8queueing12PacketServerD1Ev
	_ZThn256_N4inet8queueing12PacketTaggerD0Ev
	_ZThn256_N4inet8queueing12PacketTaggerD1Ev
	_ZThn256_N4inet8queueing12WrrSchedulerD0Ev
	_ZThn256_N4inet8queueing12WrrSchedulerD1Ev
	_ZThn256_N4inet8queueing13PacketDelayer10pushPacketEPNS_6PacketEPN7omnetpp5cGateE
	_ZThn256_N4inet8queueing13PacketDelayerD0Ev
	_ZThn256_N4inet8queueing13PacketDelayerD1Ev
	_ZThn256_N4inet8queueing13PacketLabelerD0Ev
	_ZThn256_N4inet8queueing13PacketLabelerD1Ev
	_ZThn256_N4inet8queueing13WrrClassifierD0Ev
	_ZThn256_N4inet8queueing13WrrClassifierD1Ev
	_ZThn256_N4inet8queueing14LabelSchedulerD0Ev
	_ZThn256_N4inet8queueing14LabelSchedulerD1Ev
	_ZThn256_N4inet8queueing15LabelClassifierD0Ev
	_ZThn256_N4inet8queueing15LabelClassifierD1Ev
	_ZThn256_N4inet8queueing15MarkovSchedulerD0Ev
	_ZThn256_N4inet8queueing15MarkovSchedulerD1Ev
	_ZThn256_N4inet8queueing15PacketMeterBase10pushPacketEPNS_6PacketEPN7omnetpp5cGateE
	_ZThn256_N4inet8queueing15PacketMeterBaseD0Ev
	_ZThn256_N4inet8queueing15PacketMeterBaseD1Ev
	_ZThn256_N4inet8queueing15PacketSchedulerD0Ev
	_ZThn256_N4inet8queueing15PacketSchedulerD1Ev
	_ZThn256_N4inet8queueing16ActivePacketSink11getProviderEPN7omnetpp5cGateE
	_ZThn256_N4inet8queueing16ActivePacketSink18handleCanPopPacketEPN7omnetpp5cGateE
	_ZThn256_N4inet8queueing16ActivePacketSinkD0Ev
	_ZThn256_N4inet8queueing16ActivePacketSinkD1Ev
	_ZThn256_N4inet8queueing16MarkovClassifierD0Ev
	_ZThn256_N4inet8queueing16MarkovClassifierD1Ev
	_ZThn256_N4inet8queueing16PacketClassifierD0Ev
	_ZThn256_N4inet8queueing16PacketClassifierD1Ev
	_ZThn256_N4inet8queueing16PacketDuplicator10pushPacketEPNS_6PacketEPN7omnetpp5cGateE
	_ZThn256_N4inet8queueing16PacketDuplicatorD0Ev
	_ZThn256_N4inet8queueing16PacketDuplicatorD1Ev
	_ZThn256_N4inet8queueing16PacketFilterBase10pushPacketEPNS_6PacketEPN7omnetpp5cGateE
	_ZThn256_N4inet8queueing16PacketFilterBaseD0Ev
	_ZThn256_N4inet8queueing16PacketFilterBaseD1Ev
	_ZThn256_N4inet8queueing16PacketMarkerBase10pushPacketEPNS_6PacketEPN7omnetpp5cGateE
	_ZThn256_N4inet8queueing16PacketMarkerBaseD0Ev
	_ZThn256_N4inet8queueing16PacketMarkerBaseD1Ev
	_ZThn256_N4inet8queueing16PacketServerBase11getProviderEPN7omnetpp5cGateE
	_ZThn256_N4inet8queueing16PacketServerBaseD0Ev
	_ZThn256_N4inet8queueing16PacketServerBaseD1Ev
	_ZThn256_N4inet8queueing16PacketTaggerBaseD0Ev
	_ZThn256_N4inet8queueing16PacketTaggerBaseD1Ev
	_ZThn256_N4inet8queueing16TokenBasedServer18handleCanPopPacketEPN7omnetpp5cGateE
	_ZThn256_N4inet8queueing16TokenBasedServerD0Ev
	_ZThn256_N4inet8queueing16TokenBasedServerD1Ev
	_ZThn256_N4inet8queueing17PacketLabelerBaseD0Ev
	_ZThn256_N4inet8queueing17PacketLabelerBaseD1Ev
	_ZThn256_N4inet8queueing17PacketMultiplexer10pushPacketEPNS_6PacketEPN7omnetpp5cGateE
	_ZThn256_N4inet8queueing17PacketMultiplexerD0Ev
	_ZThn256_N4inet8queueing17PacketMultiplexerD1Ev
	_ZThn256_N4inet8queueing17PassivePacketSink10pushPacketEPNS_6PacketEPN7omnetpp5cGateE
	_ZThn256_N4inet8queueing17PassivePacketSinkD0Ev
	_ZThn256_N4inet8queueing17PassivePacketSinkD1Ev
	_ZThn256_N4inet8queueing17PrioritySchedulerD0Ev
	_ZThn256_N4inet8queueing17PrioritySchedulerD1Ev
	_ZThn256_N4inet8queueing18ContentBasedFilterD0Ev
	_ZThn256_N4inet8queueing18ContentBasedFilterD1Ev
	_ZThn256_N4inet8queueing18ContentBasedTaggerD0Ev
	_ZThn256_N4inet8queueing18ContentBasedTaggerD1Ev
	_ZThn256_N4inet8queueing18PriorityClassifierD0Ev
	_ZThn256_N4inet8queueing18PriorityClassifierD1Ev
	_ZThn256_N4inet8queueing19ContentBasedLabelerD0Ev
	_ZThn256_N4inet8queueing19ContentBasedLabelerD1Ev
	_ZThn256_N4inet8queueing19OrdinalBasedDropperD0Ev
	_ZThn256_N4inet8queueing19OrdinalBasedDropperD1Ev
	_ZThn256_N4inet8queueing19PacketDemultiplexer11getProviderEPN7omnetpp5cGateE
	_ZThn256_N4inet8queueing19PacketDemultiplexer18handleCanPopPacketEPN7omnetpp5cGateE
	_ZThn256_N4inet8queueing19PacketDemultiplexerD0Ev
	_ZThn256_N4inet8queueing19PacketDemultiplexerD1Ev
	_ZThn256_N4inet8queueing19PacketSchedulerBase11getProviderEPN7omnetpp5cGateE
	_ZThn256_N4inet8queueing19PacketSchedulerBase18handleCanPopPacketEPN7omnetpp5cGateE
	_ZThn256_N4inet8queueing19PacketSchedulerBaseD0Ev
	_ZThn256_N4inet8queueing19PacketSchedulerBaseD1Ev
	_ZThn256_N4inet8queueing20PacketClassifierBase10pushPacketEPNS_6PacketEPN7omnetpp5cGateE
	_ZThn256_N4inet8queueing20PacketClassifierBaseD0Ev
	_ZThn256_N4inet8queueing20PacketClassifierBaseD1Ev
	_ZThn256_N4inet8queueing21ContentBasedSchedulerD0Ev
	_ZThn256_N4inet8queueing21ContentBasedSchedulerD1Ev
	_ZThn256_N4inet8queueing21PassivePacketSinkBaseD0Ev
	_ZThn256_N4inet8queueing21PassivePacketSinkBaseD1Ev
	_ZThn256_N4inet8queueing22ContentBasedClassifierD0Ev
	_ZThn256_N4inet8queueing22ContentBasedClassifierD1Ev
	_ZThn256_N4inet8queueing22PcapFilePacketConsumer10pushPacketEPNS_6PacketEPN7omnetpp5cGateE
	_ZThn256_N4inet8queueing22PcapFilePacketConsumerD0Ev
	_ZThn256_N4inet8queueing22PcapFilePacketConsumerD1Ev
	_ZThn256_N4inet8queueing24QueueBasedTokenGenerator13receiveSignalEPN7omnetpp10cComponentEiPNS2_7cObjectES6_
	_ZThn256_N4inet8queueing24QueueBasedTokenGeneratorD0Ev
	_ZThn256_N4inet8queueing24QueueBasedTokenGeneratorD1Ev
	_ZThn256_N4inet8queueing25PacketBasedTokenGenerator10pushPacketEPNS_6PacketEPN7omnetpp5cGateE
	_ZThn256_N4inet8queueing25PacketBasedTokenGeneratorD0Ev
	_ZThn256_N4inet8queueing25PacketBasedTokenGeneratorD1Ev
	_ZThn256_N4inet8queueing25SignalBasedTokenGenerator13receiveSignalEPN7omnetpp10cComponentEiPNS2_7cObjectES6_
	_ZThn256_N4inet8queueing25SignalBasedTokenGenerator13receiveSignalEPN7omnetpp10cComponentEidPNS2_7cObjectE
	_ZThn256_N4inet8queueing25SignalBasedTokenGenerator13receiveSignalEPN7omnetpp10cComponentEilPNS2_7cObjectE
	_ZThn256_N4inet8queueing25SignalBasedTokenGeneratorD0Ev
	_ZThn256_N4inet8queueing25SignalBasedTokenGeneratorD1Ev
	_ZThn256_N4inet8queueing9EcnMarkerD0Ev
	_ZThn256_N4inet8queueing9EcnMarkerD1Ev
	_ZThn256_N4inet8queueing9RateMeterD0Ev
	_ZThn256_N4inet8queueing9RateMeterD1Ev
	_ZThn256_N4inet9ieee802113DcfD0Ev
	_ZThn256_N4inet9ieee802113DcfD1Ev
	_ZThn256_NK4inet13physicallayer27Ieee80211ScalarTransmission13printToStreamERSoi
	_ZThn256_NK4inet13physicallayer42Ieee802154NarrowbandDimensionalTransmitter13printToStreamERSoi
	_ZThn256_NK4inet8queueing10PacketGate12canPopPacketEPN7omnetpp5cGateE
	_ZThn256_NK4inet8queueing10PacketGate16canPopSomePacketEPN7omnetpp5cGateE
	_ZThn256_NK4inet8queueing15PacketMeterBase13canPushPacketEPNS_6PacketEPN7omnetpp5cGateE
	_ZThn256_NK4inet8queueing15PacketMeterBase17canPushSomePacketEPN7omnetpp5cGateE
	_ZThn256_NK4inet8queueing16PacketFilterBase13canPushPacketEPNS_6PacketEPN7omnetpp5cGateE
	_ZThn256_NK4inet8queueing16PacketFilterBase17canPushSomePacketEPN7omnetpp5cGateE
	_ZThn256_NK4inet8queueing16PacketMarkerBase13canPushPacketEPNS_6PacketEPN7omnetpp5cGateE
	_ZThn256_NK4inet8queueing16PacketMarkerBase17canPushSomePacketEPN7omnetpp5cGateE
	_ZThn256_NK4inet8queueing17PacketMultiplexer13canPushPacketEPNS_6PacketEPN7omnetpp5cGateE
	_ZThn256_NK4inet8queueing17PacketMultiplexer17canPushSomePacketEPN7omnetpp5cGateE
	_ZThn256_NK4inet8queueing17PassivePacketSink13canPushPacketEPNS_6PacketEPN7omnetpp5cGateE
	_ZThn256_NK4inet8queueing17PassivePacketSink17canPushSomePacketEPN7omnetpp5cGateE
	_ZThn256_NK4inet8queueing18PriorityClassifier13canPushPacketEPNS_6PacketEPN7omnetpp5cGateE
	_ZThn256_NK4inet8queueing18PriorityClassifier17canPushSomePacketEPN7omnetpp5cGateE
	_ZThn256_NK4inet8queueing20PacketClassifierBase13canPushPacketEPNS_6PacketEPN7omnetpp5cGateE
	_ZThn256_NK4inet8queueing20PacketClassifierBase17canPushSomePacketEPN7omnetpp5cGateE
	_ZThn256_NK4inet8queueing21PassivePacketSinkBase13canPushPacketEPNS_6PacketEPN7omnetpp5cGateE
	_ZThn256_NK4inet8queueing21PassivePacketSinkBase17canPushSomePacketEPN7omnetpp5cGateE
	_ZThn256_NK4inet8queueing25PacketBasedTokenGenerator13canPushPacketEPNS_6PacketEPN7omnetpp5cGateE
	_ZThn256_NK4inet8queueing25PacketBasedTokenGenerator17canPushSomePacketEPN7omnetpp5cGateE
	_ZThn264_N4inet13physicallayer32Ieee80211DimensionalTransmissionD0Ev
	_ZThn264_N4inet13physicallayer32Ieee80211DimensionalTransmissionD1Ev
	_ZThn264_N4inet15PacketMeterBase11getConsumerEPN7omnetpp5cGateE
	_ZThn264_N4inet15PacketMeterBase19handleCanPushPacketEPN7omnetpp5cGateE
	_ZThn264_N4inet15PacketMeterBaseD0Ev
	_ZThn264_N4inet15PacketMeterBaseD1Ev
	_ZThn264_N4inet16TokenBucketMeterD0Ev
	_ZThn264_N4inet16TokenBucketMeterD1Ev
	_ZThn264_N4inet20EtherFrameClassifierD0Ev
	_ZThn264_N4inet20EtherFrameClassifierD1Ev
	_ZThn264_N4inet20MultiFieldClassifierD0Ev
	_ZThn264_N4inet20MultiFieldClassifierD1Ev
	_ZThn264_N4inet22TwoRateThreeColorMeterD0Ev
	_ZThn264_N4inet22TwoRateThreeColorMeterD1Ev
	_ZThn264_N4inet25SingleRateThreeColorMeterD0Ev
	_ZThn264_N4inet25SingleRateThreeColorMeterD1Ev
	_ZThn264_N4inet27BehaviorAggregateClassifierD0Ev
	_ZThn264_N4inet27BehaviorAggregateClassifierD1Ev
	_ZThn264_N4inet8queueing10PacketGate11getConsumerEPN7omnetpp5cGateE
	_ZThn264_N4inet8queueing10PacketGate19handleCanPushPacketEPN7omnetpp5cGateE
	_ZThn264_N4inet8queueing10PacketGateD0Ev
	_ZThn264_N4inet8queueing10PacketGateD1Ev
	_ZThn264_N4inet8queueing10RedDropperD0Ev
	_ZThn264_N4inet8queueing10RedDropperD1Ev
	_ZThn264_N4inet8queueing11RateLimiterD0Ev
	_ZThn264_N4inet8queueing11RateLimiterD1Ev
	_ZThn264_N4inet8queueing12PacketCloner11getConsumerEPN7omnetpp5cGateE
	_ZThn264_N4inet8queueing12PacketCloner19handleCanPushPacketEPN7omnetpp5cGateE
	_ZThn264_N4inet8queueing12PacketClonerD0Ev
	_ZThn264_N4inet8queueing12PacketClonerD1Ev
	_ZThn264_N4inet8queueing12PacketFilterD0Ev
	_ZThn264_N4inet8queueing12PacketFilterD1Ev
	_ZThn264_N4inet8queueing12PacketServer11getConsumerEPN7omnetpp5cGateE
	_ZThn264_N4inet8queueing12PacketServer19handleCanPushPacketEPN7omnetpp5cGateE
	_ZThn264_N4inet8queueing12PacketServerD0Ev
	_ZThn264_N4inet8queueing12PacketServerD1Ev
	_ZThn264_N4inet8queueing12PacketTaggerD0Ev
	_ZThn264_N4inet8queueing12PacketTaggerD1Ev
	_ZThn264_N4inet8queueing12WrrSchedulerD0Ev
	_ZThn264_N4inet8queueing12WrrSchedulerD1Ev
	_ZThn264_N4inet8queueing13PacketDelayer11getConsumerEPN7omnetpp5cGateE
	_ZThn264_N4inet8queueing13PacketDelayer19handleCanPushPacketEPN7omnetpp5cGateE
	_ZThn264_N4inet8queueing13PacketDelayerD0Ev
	_ZThn264_N4inet8queueing13PacketDelayerD1Ev
	_ZThn264_N4inet8queueing13PacketLabelerD0Ev
	_ZThn264_N4inet8queueing13PacketLabelerD1Ev
	_ZThn264_N4inet8queueing13WrrClassifierD0Ev
	_ZThn264_N4inet8queueing13WrrClassifierD1Ev
	_ZThn264_N4inet8queueing14LabelSchedulerD0Ev
	_ZThn264_N4inet8queueing14LabelSchedulerD1Ev
	_ZThn264_N4inet8queueing15LabelClassifierD0Ev
	_ZThn264_N4inet8queueing15LabelClassifierD1Ev
	_ZThn264_N4inet8queueing15MarkovSchedulerD0Ev
	_ZThn264_N4inet8queueing15MarkovSchedulerD1Ev
	_ZThn264_N4inet8queueing15PacketMeterBase11getProviderEPN7omnetpp5cGateE
	_ZThn264_N4inet8queueing15PacketMeterBase18handleCanPopPacketEPN7omnetpp5cGateE
	_ZThn264_N4inet8queueing15PacketMeterBaseD0Ev
	_ZThn264_N4inet8queueing15PacketMeterBaseD1Ev
	_ZThn264_N4inet8queueing15PacketSchedulerD0Ev
	_ZThn264_N4inet8queueing15PacketSchedulerD1Ev
	_ZThn264_N4inet8queueing16MarkovClassifierD0Ev
	_ZThn264_N4inet8queueing16MarkovClassifierD1Ev
	_ZThn264_N4inet8queueing16PacketClassifierD0Ev
	_ZThn264_N4inet8queueing16PacketClassifierD1Ev
	_ZThn264_N4inet8queueing16PacketDuplicator11getConsumerEPN7omnetpp5cGateE
	_ZThn264_N4inet8queueing16PacketDuplicator19handleCanPushPacketEPN7omnetpp5cGateE
	_ZThn264_N4inet8queueing16PacketDuplicatorD0Ev
	_ZThn264_N4inet8queueing16PacketDuplicatorD1Ev
	_ZThn264_N4inet8queueing16PacketFilterBase11getProviderEPN7omnetpp5cGateE
	_ZThn264_N4inet8queueing16PacketFilterBase18handleCanPopPacketEPN7omnetpp5cGateE
	_ZThn264_N4inet8queueing16PacketFilterBaseD0Ev
	_ZThn264_N4inet8queueing16PacketFilterBaseD1Ev
	_ZThn264_N4inet8queueing16PacketMarkerBase11getProviderEPN7omnetpp5cGateE
	_ZThn264_N4inet8queueing16PacketMarkerBase18handleCanPopPacketEPN7omnetpp5cGateE
	_ZThn264_N4inet8queueing16PacketMarkerBaseD0Ev
	_ZThn264_N4inet8queueing16PacketMarkerBaseD1Ev
	_ZThn264_N4inet8queueing16PacketServerBase11getConsumerEPN7omnetpp5cGateE
	_ZThn264_N4inet8queueing16PacketServerBaseD0Ev
	_ZThn264_N4inet8queueing16PacketServerBaseD1Ev
	_ZThn264_N4inet8queueing16PacketTaggerBaseD0Ev
	_ZThn264_N4inet8queueing16PacketTaggerBaseD1Ev
	_ZThn264_N4inet8queueing16TokenBasedServer19handleCanPushPacketEPN7omnetpp5cGateE
	_ZThn264_N4inet8queueing16TokenBasedServerD0Ev
	_ZThn264_N4inet8queueing16TokenBasedServerD1Ev
	_ZThn264_N4inet8queueing17PacketLabelerBaseD0Ev
	_ZThn264_N4inet8queueing17PacketLabelerBaseD1Ev
	_ZThn264_N4inet8queueing17PacketMultiplexer11getConsumerEPN7omnetpp5cGateE
	_ZThn264_N4inet8queueing17PacketMultiplexer19handleCanPushPacketEPN7omnetpp5cGateE
	_ZThn264_N4inet8queueing17PacketMultiplexerD0Ev
	_ZThn264_N4inet8queueing17PacketMultiplexerD1Ev
	_ZThn264_N4inet8queueing17PrioritySchedulerD0Ev
	_ZThn264_N4inet8queueing17PrioritySchedulerD1Ev
	_ZThn264_N4inet8queueing18ContentBasedFilterD0Ev
	_ZThn264_N4inet8queueing18ContentBasedFilterD1Ev
	_ZThn264_N4inet8queueing18ContentBasedTaggerD0Ev
	_ZThn264_N4inet8queueing18ContentBasedTaggerD1Ev
	_ZThn264_N4inet8queueing18PriorityClassifierD0Ev
	_ZThn264_N4inet8queueing18PriorityClassifierD1Ev
	_ZThn264_N4inet8queueing19ContentBasedLabelerD0Ev
	_ZThn264_N4inet8queueing19ContentBasedLabelerD1Ev
	_ZThn264_N4inet8queueing19OrdinalBasedDropperD0Ev
	_ZThn264_N4inet8queueing19OrdinalBasedDropperD1Ev
	_ZThn264_N4inet8queueing19PacketDemultiplexer9popPacketEPN7omnetpp5cGateE
	_ZThn264_N4inet8queueing19PacketDemultiplexerD0Ev
	_ZThn264_N4inet8queueing19PacketDemultiplexerD1Ev
	_ZThn264_N4inet8queueing19PacketSchedulerBase9popPacketEPN7omnetpp5cGateE
	_ZThn264_N4inet8queueing19PacketSchedulerBaseD0Ev
	_ZThn264_N4inet8queueing19PacketSchedulerBaseD1Ev
	_ZThn264_N4inet8queueing20PacketClassifierBase11getConsumerEPN7omnetpp5cGateE
	_ZThn264_N4inet8queueing20PacketClassifierBase19handleCanPushPacketEPN7omnetpp5cGateE
	_ZThn264_N4inet8queueing20PacketClassifierBaseD0Ev
	_ZThn264_N4inet8queueing20PacketClassifierBaseD1Ev
	_ZThn264_N4inet8queueing21ContentBasedSchedulerD0Ev
	_ZThn264_N4inet8queueing21ContentBasedSchedulerD1Ev
	_ZThn264_N4inet8queueing22ContentBasedClassifierD0Ev
	_ZThn264_N4inet8queueing22ContentBasedClassifierD1Ev
	_ZThn264_N4inet8queueing25PacketBasedTokenGenerator13receiveSignalEPN7omnetpp10cComponentEidPNS2_7cObjectE
	_ZThn264_N4inet8queueing25PacketBasedTokenGeneratorD0Ev
	_ZThn264_N4inet8queueing25PacketBasedTokenGeneratorD1Ev
	_ZThn264_N4inet8queueing9EcnMarkerD0Ev
	_ZThn264_N4inet8queueing9EcnMarkerD1Ev
	_ZThn264_N4inet8queueing9RateMeterD0Ev
	_ZThn264_N4inet8queueing9RateMeterD1Ev
	_ZThn264_N4inet9ieee802113HcfD0Ev
	_ZThn264_N4inet9ieee802113HcfD1Ev
	_ZThn264_NK4inet13physicallayer32Ieee80211DimensionalTransmission13printToStreamERSoi
	_ZThn264_NK4inet8queueing19PacketDemultiplexer12canPopPacketEPN7omnetpp5cGateE
	_ZThn264_NK4inet8queueing19PacketDemultiplexer16canPopSomePacketEPN7omnetpp5cGateE
	_ZThn264_NK4inet8queueing19PacketSchedulerBase12canPopPacketEPN7omnetpp5cGateE
	_ZThn264_NK4inet8queueing19PacketSchedulerBase16canPopSomePacketEPN7omnetpp5cGateE
	_ZThn272_N4inet4Ipv6D0Ev
	_ZThn272_N4inet4Ipv6D1Ev
	_ZThn272_N4inet5power15SimpleCcBattery28updateTotalCurrentGenerationEv
	_ZThn272_N4inet5power15SimpleCcBatteryD0Ev
	_ZThn272_N4inet5power15SimpleCcBatteryD1Ev
	_ZThn272_N4inet5power19CcEnergyStorageBase18addEnergyGeneratorEPKNS0_16IEnergyGeneratorE
	_ZThn272_N4inet5power19CcEnergyStorageBase21removeEnergyGeneratorEPKNS0_16IEnergyGeneratorE
	_ZThn272_N4inet5power19CcEnergyStorageBase28updateTotalCurrentGenerationEv
	_ZThn272_N4inet5power19CcEnergyStorageBaseD0Ev
	_ZThn272_N4inet5power19CcEnergyStorageBaseD1Ev
	_ZThn272_N4inet5power19EpEnergyStorageBase18addEnergyGeneratorEPKNS0_16IEnergyGeneratorE
	_ZThn272_N4inet5power19EpEnergyStorageBase21removeEnergyGeneratorEPKNS0_16IEnergyGeneratorE
	_ZThn272_N4inet5power19EpEnergyStorageBase26updateTotalPowerGenerationEv
	_ZThn272_N4inet5power19EpEnergyStorageBaseD0Ev
	_ZThn272_N4inet5power19EpEnergyStorageBaseD1Ev
	_ZThn272_N4inet5power20IdealEpEnergyStorage26updateTotalPowerGenerationEv
	_ZThn272_N4inet5power20IdealEpEnergyStorageD0Ev
	_ZThn272_N4inet5power20IdealEpEnergyStorageD1Ev
	_ZThn272_N4inet5power21SimpleEpEnergyStorage26updateTotalPowerGenerationEv
	_ZThn272_N4inet5power21SimpleEpEnergyStorageD0Ev
	_ZThn272_N4inet5power21SimpleEpEnergyStorageD1Ev
	_ZThn272_N4inet8queueing10PacketGate10pushPacketEPNS_6PacketEPN7omnetpp5cGateE
	_ZThn272_N4inet8queueing10PacketGateD0Ev
	_ZThn272_N4inet8queueing10PacketGateD1Ev
	_ZThn272_N4inet8queueing10RedDropperD0Ev
	_ZThn272_N4inet8queueing10RedDropperD1Ev
	_ZThn272_N4inet8queueing11RateLimiterD0Ev
	_ZThn272_N4inet8queueing11RateLimiterD1Ev
	_ZThn272_N4inet8queueing12PacketFilterD0Ev
	_ZThn272_N4inet8queueing12PacketFilterD1Ev
	_ZThn272_N4inet8queueing12PacketTaggerD0Ev
	_ZThn272_N4inet8queueing12PacketTaggerD1Ev
	_ZThn272_N4inet8queueing13PacketLabelerD0Ev
	_ZThn272_N4inet8queueing13PacketLabelerD1Ev
	_ZThn272_N4inet8queueing15PacketMeterBase9popPacketEPN7omnetpp5cGateE
	_ZThn272_N4inet8queueing15PacketMeterBaseD0Ev
	_ZThn272_N4inet8queueing15PacketMeterBaseD1Ev
	_ZThn272_N4inet8queueing16PacketFilterBase9popPacketEPN7omnetpp5cGateE
	_ZThn272_N4inet8queueing16PacketFilterBaseD0Ev
	_ZThn272_N4inet8queueing16PacketFilterBaseD1Ev
	_ZThn272_N4inet8queueing16PacketMarkerBase9popPacketEPN7omnetpp5cGateE
	_ZThn272_N4inet8queueing16PacketMarkerBaseD0Ev
	_ZThn272_N4inet8queueing16PacketMarkerBaseD1Ev
	_ZThn272_N4inet8queueing16PacketTaggerBaseD0Ev
	_ZThn272_N4inet8queueing16PacketTaggerBaseD1Ev
	_ZThn272_N4inet8queueing17PacketLabelerBaseD0Ev
	_ZThn272_N4inet8queueing17PacketLabelerBaseD1Ev
	_ZThn272_N4inet8queueing18ContentBasedFilterD0Ev
	_ZThn272_N4inet8queueing18ContentBasedFilterD1Ev
	_ZThn272_N4inet8queueing18ContentBasedTaggerD0Ev
	_ZThn272_N4inet8queueing18ContentBasedTaggerD1Ev
	_ZThn272_N4inet8queueing19ContentBasedLabelerD0Ev
	_ZThn272_N4inet8queueing19ContentBasedLabelerD1Ev
	_ZThn272_N4inet8queueing19OrdinalBasedDropperD0Ev
	_ZThn272_N4inet8queueing19OrdinalBasedDropperD1Ev
	_ZThn272_N4inet8queueing9EcnMarkerD0Ev
	_ZThn272_N4inet8queueing9EcnMarkerD1Ev
	_ZThn272_N4inet8queueing9RateMeterD0Ev
	_ZThn272_N4inet8queueing9RateMeterD1Ev
	_ZThn272_NK4inet5power15SimpleCcBattery25getTotalCurrentGenerationEv
	_ZThn272_NK4inet8queueing10PacketGate13canPushPacketEPNS_6PacketEPN7omnetpp5cGateE
	_ZThn272_NK4inet8queueing10PacketGate17canPushSomePacketEPN7omnetpp5cGateE
	_ZThn272_NK4inet8queueing15PacketMeterBase12canPopPacketEPN7omnetpp5cGateE
	_ZThn272_NK4inet8queueing15PacketMeterBase16canPopSomePacketEPN7omnetpp5cGateE
	_ZThn272_NK4inet8queueing16PacketFilterBase12canPopPacketEPN7omnetpp5cGateE
	_ZThn272_NK4inet8queueing16PacketFilterBase16canPopSomePacketEPN7omnetpp5cGateE
	_ZThn272_NK4inet8queueing16PacketMarkerBase12canPopPacketEPN7omnetpp5cGateE
	_ZThn272_NK4inet8queueing16PacketMarkerBase16canPopSomePacketEPN7omnetpp5cGateE
	_ZThn280_N4inet10DhcpClient13receiveSignalEPN7omnetpp10cComponentEiPNS1_7cObjectES5_
	_ZThn280_N4inet10DhcpClientD0Ev
	_ZThn280_N4inet10DhcpClientD1Ev
	_ZThn280_N4inet10DhcpServer13receiveSignalEPN7omnetpp10cComponentEiPNS1_7cObjectES5_
	_ZThn280_N4inet10DhcpServerD0Ev
	_ZThn280_N4inet10DhcpServerD1Ev
	_ZThn280_N4inet10TcpAppBase12socketClosedEPNS_9TcpSocketE
	_ZThn280_N4inet10TcpAppBase13socketDeletedEPNS_9TcpSocketE
	_ZThn280_N4inet10TcpAppBase13socketFailureEPNS_9TcpSocketEi
	_ZThn280_N4inet10TcpAppBase15socketAvailableEPNS_9TcpSocketEPNS_16TcpAvailableInfoE
	_ZThn280_N4inet10TcpAppBase16socketPeerClosedEPNS_9TcpSocketE
	_ZThn280_N4inet10TcpAppBase17socketDataArrivedEPNS_9TcpSocketEPNS_6PacketEb
	_ZThn280_N4inet10TcpAppBase17socketEstablishedEPNS_9TcpSocketE
	_ZThn280_N4inet10TcpAppBase19socketStatusArrivedEPNS_9TcpSocketEPNS_13TcpStatusInfoE
	_ZThn280_N4inet10TcpAppBaseD0Ev
	_ZThn280_N4inet10TcpAppBaseD1Ev
	_ZThn280_N4inet10TcpEchoAppD0Ev
	_ZThn280_N4inet10TcpEchoAppD1Ev
	_ZThn280_N4inet10TcpSinkAppD0Ev
	_ZThn280_N4inet10TcpSinkAppD1Ev
	_ZThn280_N4inet10UdpEchoApp12socketClosedEPNS_9UdpSocketE
	_ZThn280_N4inet10UdpEchoApp17socketDataArrivedEPNS_9UdpSocketEPNS_6PacketE
	_ZThn280_N4inet10UdpEchoApp18socketErrorArrivedEPNS_9UdpSocketEPNS_10IndicationE
	_ZThn280_N4inet10UdpEchoAppD0Ev
	_ZThn280_N4inet10UdpEchoAppD1Ev
	_ZThn280_N4inet11Ieee8022Llc21handleRegisterServiceERKNS_8ProtocolEPN7omnetpp5cGateENS_16ServicePrimitiveE
	_ZThn280_N4inet11Ieee8022Llc22handleRegisterProtocolERKNS_8ProtocolEPN7omnetpp5cGateENS_16ServicePrimitiveE
	_ZThn280_N4inet11ShortcutMacD0Ev
	_ZThn280_N4inet11ShortcutMacD1Ev
	_ZThn280_N4inet11UdpBasicApp12socketClosedEPNS_9UdpSocketE
	_ZThn280_N4inet11UdpBasicApp17socketDataArrivedEPNS_9UdpSocketEPNS_6PacketE
	_ZThn280_N4inet11UdpBasicApp18socketErrorArrivedEPNS_9UdpSocketEPNS_10IndicationE
	_ZThn280_N4inet11UdpBasicAppD0Ev
	_ZThn280_N4inet11UdpBasicAppD1Ev
	_ZThn280_N4inet11UdpSocketIo12socketClosedEPNS_9UdpSocketE
	_ZThn280_N4inet11UdpSocketIo17socketDataArrivedEPNS_9UdpSocketEPNS_6PacketE
	_ZThn280_N4inet11UdpSocketIo18socketErrorArrivedEPNS_9UdpSocketEPNS_10IndicationE
	_ZThn280_N4inet11UdpSocketIoD0Ev
	_ZThn280_N4inet11UdpSocketIoD1Ev
	_ZThn280_N4inet12EtherMacBase13receiveSignalEPN7omnetpp10cComponentEiPNS1_7cObjectES5_
	_ZThn280_N4inet12EtherMacBaseD0Ev
	_ZThn280_N4inet12EtherMacBaseD1Ev
	_ZThn280_N4inet13Ieee802154Mac13receiveSignalEPN7omnetpp10cComponentEilPNS1_7cObjectE
	_ZThn280_N4inet13Ieee802154MacD0Ev
	_ZThn280_N4inet13Ieee802154MacD1Ev
	_ZThn280_N4inet13TcpSessionApp12socketClosedEPNS_9TcpSocketE
	_ZThn280_N4inet13TcpSessionApp13socketFailureEPNS_9TcpSocketEi
	_ZThn280_N4inet13TcpSessionApp17socketDataArrivedEPNS_9TcpSocketEPNS_6PacketEb
	_ZThn280_N4inet13TcpSessionApp17socketEstablishedEPNS_9TcpSocketE
	_ZThn280_N4inet13TcpSessionAppD0Ev
	_ZThn280_N4inet13TcpSessionAppD1Ev
	_ZThn280_N4inet13UdpBasicBurst12socketClosedEPNS_9UdpSocketE
	_ZThn280_N4inet13UdpBasicBurst17socketDataArrivedEPNS_9UdpSocketEPNS_6PacketE
	_ZThn280_N4inet13UdpBasicBurst18socketErrorArrivedEPNS_9UdpSocketEPNS_10IndicationE
	_ZThn280_N4inet13UdpBasicBurstD0Ev
	_ZThn280_N4inet13UdpBasicBurstD1Ev
	_ZThn280_N4inet13physicallayer13FlatRadioBaseD0Ev
	_ZThn280_N4inet13physicallayer13FlatRadioBaseD1Ev
	_ZThn280_N4inet13physicallayer13ShortcutRadioD0Ev
	_ZThn280_N4inet13physicallayer13ShortcutRadioD1Ev
	_ZThn280_N4inet13physicallayer13UnitDiskRadioD0Ev
	_ZThn280_N4inet13physicallayer13UnitDiskRadioD1Ev
	_ZThn280_N4inet13physicallayer14Ieee80211RadioD0Ev
	_ZThn280_N4inet13physicallayer14Ieee80211RadioD1Ev
	_ZThn280_N4inet13physicallayer17PhysicalLayerBaseD0Ev
	_ZThn280_N4inet13physicallayer17PhysicalLayerBaseD1Ev
	_ZThn280_N4inet13physicallayer18Ieee80211OfdmRadioD0Ev
	_ZThn280_N4inet13physicallayer18Ieee80211OfdmRadioD1Ev
	_ZThn280_N4inet13physicallayer19NarrowbandRadioBaseD0Ev
	_ZThn280_N4inet13physicallayer19NarrowbandRadioBaseD1Ev
	_ZThn280_N4inet13physicallayer5RadioD0Ev
	_ZThn280_N4inet13physicallayer5RadioD1Ev
	_ZThn280_N4inet13physicallayer9ApskRadioD0Ev
	_ZThn280_N4inet13physicallayer9ApskRadioD1Ev
	_ZThn280_N4inet14EtherAppClient12socketClosedEPNS_17Ieee8022LlcSocketE
	_ZThn280_N4inet14EtherAppClient17socketDataArrivedEPNS_17Ieee8022LlcSocketEPNS_6PacketE
	_ZThn280_N4inet14EtherAppClientD0Ev
	_ZThn280_N4inet14EtherAppClientD1Ev
	_ZThn280_N4inet14EtherAppServer12socketClosedEPNS_17Ieee8022LlcSocketE
	_ZThn280_N4inet14EtherAppServer17socketDataArrivedEPNS_17Ieee8022LlcSocketEPNS_6PacketE
	_ZThn280_N4inet14EtherAppServerD0Ev
	_ZThn280_N4inet14EtherAppServerD1Ev
	_ZThn280_N4inet14InterfaceTable12addInterfaceEPNS_14InterfaceEntryE
	_ZThn280_N4inet14InterfaceTable15deleteInterfaceEPNS_14InterfaceEntryE
	_ZThn280_N4inet14InterfaceTable16interfaceChangedEiPKNS_27InterfaceEntryChangeDetailsE
	_ZThn280_N4inet14InterfaceTableD0Ev
	_ZThn280_N4inet14InterfaceTableD1Ev
	_ZThn280_N4inet14PacketDrillApp12socketClosedEPNS_9UdpSocketE
	_ZThn280_N4inet14PacketDrillApp17socketDataArrivedEPNS_9UdpSocketEPNS_6PacketE
	_ZThn280_N4inet14PacketDrillApp18socketErrorArrivedEPNS_9UdpSocketEPNS_10IndicationE
	_ZThn280_N4inet14PacketDrillAppD0Ev
	_ZThn280_N4inet14PacketDrillAppD1Ev
	_ZThn280_N4inet15MacAddressTable10clearTableEv
	_ZThn280_N4inet15MacAddressTable10printStateEv
	_ZThn280_N4inet15MacAddressTable12setAgingTimeEN7omnetpp7SimTimeE
	_ZThn280_N4inet15MacAddressTable15initializeTableEv
	_ZThn280_N4inet15MacAddressTable16readAddressTableEPKc
	_ZThn280_N4inet15MacAddressTable17resetDefaultAgingEv
	_ZThn280_N4inet15MacAddressTable22updateTableWithAddressEiRKNS_10MacAddressEj
	_ZThn280_N4inet15MacAddressTable24getInterfaceIdForAddressERKNS_10MacAddressEj
	_ZThn280_N4inet15MacAddressTable25removeAgedEntriesFromVlanEj
	_ZThn280_N4inet15MacAddressTable25removeAgedEntriesIfNeededEv
	_ZThn280_N4inet15MacAddressTable29removeAgedEntriesFromAllVlansEv
	_ZThn280_N4inet15MacAddressTable5flushEi
	_ZThn280_N4inet15MacAddressTable9copyTableEii
	_ZThn280_N4inet15MacProtocolBase13receiveSignalEPN7omnetpp10cComponentEiPNS1_7cObjectES5_
	_ZThn280_N4inet15MacProtocolBaseD0Ev
	_ZThn280_N4inet15MacProtocolBaseD1Ev
	_ZThn280_N4inet16TcpServerHostApp12socketClosedEPNS_9TcpSocketE
	_ZThn280_N4inet16TcpServerHostApp13socketDeletedEPNS_9TcpSocketE
	_ZThn280_N4inet16TcpServerHostApp13socketFailureEPNS_9TcpSocketEi
	_ZThn280_N4inet16TcpServerHostApp15socketAvailableEPNS_9TcpSocketEPNS_16TcpAvailableInfoE
	_ZThn280_N4inet16TcpServerHostApp16socketPeerClosedEPNS_9TcpSocketE
	_ZThn280_N4inet16TcpServerHostApp17socketDataArrivedEPNS_9TcpSocketEPNS_6PacketEb
	_ZThn280_N4inet16TcpServerHostApp17socketEstablishedEPNS_9TcpSocketE
	_ZThn280_N4inet16TcpServerHostApp19socketStatusArrivedEPNS_9TcpSocketEPNS_13TcpStatusInfoE
	_ZThn280_N4inet16TcpServerHostAppD0Ev
	_ZThn280_N4inet16TcpServerHostAppD1Ev
	_ZThn280_N4inet17NextHopForwarding12registerHookEiPNS_10INetfilter5IHookE
	_ZThn280_N4inet17NextHopForwarding14unregisterHookEPNS_10INetfilter5IHookE
	_ZThn280_N4inet17NextHopForwarding18dropQueuedDatagramEPKNS_6PacketE
	_ZThn280_N4inet17NextHopForwarding22reinjectQueuedDatagramEPKNS_6PacketE
	_ZThn280_N4inet17NextHopForwardingD0Ev
	_ZThn280_N4inet17NextHopForwardingD1Ev
	_ZThn280_N4inet17TcpBasicClientApp12socketClosedEPNS_9TcpSocketE
	_ZThn280_N4inet17TcpBasicClientApp13socketFailureEPNS_9TcpSocketEi
	_ZThn280_N4inet17TcpBasicClientApp17socketDataArrivedEPNS_9TcpSocketEPNS_6PacketEb
	_ZThn280_N4inet17TcpBasicClientApp17socketEstablishedEPNS_9TcpSocketE
	_ZThn280_N4inet17TcpBasicClientAppD0Ev
	_ZThn280_N4inet17TcpBasicClientAppD1Ev
	_ZThn280_N4inet17TcpServerListener12socketClosedEPNS_9TcpSocketE
	_ZThn280_N4inet17TcpServerListener13socketDeletedEPNS_9TcpSocketE
	_ZThn280_N4inet17TcpServerListener13socketFailureEPNS_9TcpSocketEi
	_ZThn280_N4inet17TcpServerListener15socketAvailableEPNS_9TcpSocketEPNS_16TcpAvailableInfoE
	_ZThn280_N4inet17TcpServerListener16socketPeerClosedEPNS_9TcpSocketE
	_ZThn280_N4inet17TcpServerListener17socketDataArrivedEPNS_9TcpSocketEPNS_6PacketEb
	_ZThn280_N4inet17TcpServerListener17socketEstablishedEPNS_9TcpSocketE
	_ZThn280_N4inet17TcpServerListener19socketStatusArrivedEPNS_9TcpSocketEPNS_13TcpStatusInfoE
	_ZThn280_N4inet17TcpServerListenerD0Ev
	_ZThn280_N4inet17TcpServerListenerD1Ev
	_ZThn280_N4inet18EtherMacFullDuplexD0Ev
	_ZThn280_N4inet18EtherMacFullDuplexD1Ev
	_ZThn280_N4inet19NetworkProtocolBase21handleRegisterServiceERKNS_8ProtocolEPN7omnetpp5cGateENS_16ServicePrimitiveE
	_ZThn280_N4inet19NetworkProtocolBase22handleRegisterProtocolERKNS_8ProtocolEPN7omnetpp5cGateENS_16ServicePrimitiveE
	_ZThn280_N4inet20UdpVideoStreamClient12socketClosedEPNS_9UdpSocketE
	_ZThn280_N4inet20UdpVideoStreamClient17socketDataArrivedEPNS_9UdpSocketEPNS_6PacketE
	_ZThn280_N4inet20UdpVideoStreamClient18socketErrorArrivedEPNS_9UdpSocketEPNS_10IndicationE
	_ZThn280_N4inet20UdpVideoStreamClientD0Ev
	_ZThn280_N4inet20UdpVideoStreamClientD1Ev
	_ZThn280_N4inet20UdpVideoStreamServer12socketClosedEPNS_9UdpSocketE
	_ZThn280_N4inet20UdpVideoStreamServer17socketDataArrivedEPNS_9UdpSocketEPNS_6PacketE
	_ZThn280_N4inet20UdpVideoStreamServer18socketErrorArrivedEPNS_9UdpSocketEPNS_10IndicationE
	_ZThn280_N4inet20UdpVideoStreamServerD0Ev
	_ZThn280_N4inet20UdpVideoStreamServerD1Ev
	_ZThn280_N4inet3Arp16resolveL3AddressERKNS_9L3AddressEPKNS_14InterfaceEntryE
	_ZThn280_N4inet3ArpD0Ev
	_ZThn280_N4inet3ArpD1Ev
	_ZThn280_N4inet3Ldp12socketClosedEPNS_9TcpSocketE
	_ZThn280_N4inet3Ldp13socketDeletedEPNS_9TcpSocketE
	_ZThn280_N4inet3Ldp13socketFailureEPNS_9TcpSocketEi
	_ZThn280_N4inet3Ldp15socketAvailableEPNS_9TcpSocketEPNS_16TcpAvailableInfoE
	_ZThn280_N4inet3Ldp16socketPeerClosedEPNS_9TcpSocketE
	_ZThn280_N4inet3Ldp17socketDataArrivedEPNS_9TcpSocketE
	_ZThn280_N4inet3Ldp17socketEstablishedEPNS_9TcpSocketE
	_ZThn280_N4inet3Ldp19socketStatusArrivedEPNS_9TcpSocketEPNS_13TcpStatusInfoE
	_ZThn280_N4inet3LdpD0Ev
	_ZThn280_N4inet3LdpD1Ev
	_ZThn280_N4inet3PimD0Ev
	_ZThn280_N4inet3PimD1Ev
	_ZThn280_N4inet3Ppp13receiveSignalEPN7omnetpp10cComponentEiPNS1_7cObjectES5_
	_ZThn280_N4inet3PppD0Ev
	_ZThn280_N4inet3PppD1Ev
	_ZThn280_N4inet3Rip13receiveSignalEPN7omnetpp10cComponentEiPNS1_7cObjectES5_
	_ZThn280_N4inet3RipD0Ev
	_ZThn280_N4inet3RipD1Ev
	_ZThn280_N4inet3StpD0Ev
	_ZThn280_N4inet3StpD1Ev
	_ZThn280_N4inet3TunD0Ev
	_ZThn280_N4inet3TunD1Ev
	_ZThn280_N4inet4BMac13receiveSignalEPN7omnetpp10cComponentEilPNS1_7cObjectE
	_ZThn280_N4inet4BMacD0Ev
	_ZThn280_N4inet4BMacD1Ev
	_ZThn280_N4inet4Gpsr13receiveSignalEPN7omnetpp10cComponentEiPNS1_7cObjectES5_
	_ZThn280_N4inet4GpsrD0Ev
	_ZThn280_N4inet4GpsrD1Ev
	_ZThn280_N4inet4Ipv412registerHookEiPNS_10INetfilter5IHookE
	_ZThn280_N4inet4Ipv414unregisterHookEPNS_10INetfilter5IHookE
	_ZThn280_N4inet4Ipv418dropQueuedDatagramEPKNS_6PacketE
	_ZThn280_N4inet4Ipv422reinjectQueuedDatagramEPKNS_6PacketE
	_ZThn280_N4inet4Ipv4D0Ev
	_ZThn280_N4inet4Ipv4D1Ev
	_ZThn280_N4inet4Ipv6D0Ev
	_ZThn280_N4inet4Ipv6D1Ev
	_ZThn280_N4inet4LMac13receiveSignalEPN7omnetpp10cComponentEilPNS1_7cObjectE
	_ZThn280_N4inet4LMacD0Ev
	_ZThn280_N4inet4LMacD1Ev
	_ZThn280_N4inet4Rstp13receiveSignalEPN7omnetpp10cComponentEiPNS1_7cObjectES5_
	_ZThn280_N4inet4RstpD0Ev
	_ZThn280_N4inet4RstpD1Ev
	_ZThn280_N4inet4XMac13receiveSignalEPN7omnetpp10cComponentEilPNS1_7cObjectE
	_ZThn280_N4inet4XMacD0Ev
	_ZThn280_N4inet4XMacD1Ev
	_ZThn280_N4inet4aodv4Aodv19datagramForwardHookEPNS_6PacketE
	_ZThn280_N4inet4aodv4Aodv19datagramLocalInHookEPNS_6PacketE
	_ZThn280_N4inet4aodv4Aodv20datagramLocalOutHookEPNS_6PacketE
	_ZThn280_N4inet4aodv4Aodv22datagramPreRoutingHookEPNS_6PacketE
	_ZThn280_N4inet4aodv4Aodv23datagramPostRoutingHookEPNS_6PacketE
	_ZThn280_N4inet4aodv4AodvD0Ev
	_ZThn280_N4inet4aodv4AodvD1Ev
	_ZThn280_N4inet4dymo4Dymo13receiveSignalEPN7omnetpp10cComponentEiPNS2_7cObjectES6_
	_ZThn280_N4inet4dymo4DymoD0Ev
	_ZThn280_N4inet4dymo4DymoD1Ev
	_ZThn280_N4inet6RsvpTe14processCommandERKN7omnetpp11cXMLElementE
	_ZThn280_N4inet6RsvpTeD0Ev
	_ZThn280_N4inet6RsvpTeD1Ev
	_ZThn280_N4inet6ospfv26Ospfv213receiveSignalEPN7omnetpp10cComponentEiPNS2_7cObjectES6_
	_ZThn280_N4inet6ospfv26Ospfv2D0Ev
	_ZThn280_N4inet6ospfv26Ospfv2D1Ev
	_ZThn280_N4inet7PingApp12socketClosedEPNS_14INetworkSocketE
	_ZThn280_N4inet7PingApp17socketDataArrivedEPNS_14INetworkSocketEPNS_6PacketE
	_ZThn280_N4inet7PingAppD0Ev
	_ZThn280_N4inet7PingAppD1Ev
	_ZThn280_N4inet7StpBase13receiveSignalEPN7omnetpp10cComponentEiPNS1_7cObjectES5_
	_ZThn280_N4inet7StpBaseD0Ev
	_ZThn280_N4inet7StpBaseD1Ev
	_ZThn280_N4inet7UdpSink12socketClosedEPNS_9UdpSocketE
	_ZThn280_N4inet7UdpSink17socketDataArrivedEPNS_9UdpSocketEPNS_6PacketE
	_ZThn280_N4inet7UdpSink18socketErrorArrivedEPNS_9UdpSocketEPNS_10IndicationE
	_ZThn280_N4inet7UdpSinkD0Ev
	_ZThn280_N4inet7UdpSinkD1Ev
	_ZThn280_N4inet8EtherMacD0Ev
	_ZThn280_N4inet8EtherMacD1Ev
	_ZThn280_N4inet8LoopbackD0Ev
	_ZThn280_N4inet8LoopbackD1Ev
	_ZThn280_N4inet8queueing10PacketGate11getProviderEPN7omnetpp5cGateE
	_ZThn280_N4inet8queueing10PacketGate18handleCanPopPacketEPN7omnetpp5cGateE
	_ZThn280_N4inet8queueing10PacketGateD0Ev
	_ZThn280_N4inet8queueing10PacketGateD1Ev
	_ZThn280_N4inet8queueing10RedDropperD0Ev
	_ZThn280_N4inet8queueing10RedDropperD1Ev
	_ZThn280_N4inet8queueing11PacketQueue19handlePacketRemovedEPNS_6PacketE
	_ZThn280_N4inet8queueing11RateLimiterD0Ev
	_ZThn280_N4inet8queueing11RateLimiterD1Ev
	_ZThn280_N4inet8queueing12PacketFilterD0Ev
	_ZThn280_N4inet8queueing12PacketFilterD1Ev
	_ZThn280_N4inet8queueing12PacketTaggerD0Ev
	_ZThn280_N4inet8queueing12PacketTaggerD1Ev
	_ZThn280_N4inet8queueing13PacketLabelerD0Ev
	_ZThn280_N4inet8queueing13PacketLabelerD1Ev
	_ZThn280_N4inet8queueing15PacketMeterBase11getConsumerEPN7omnetpp5cGateE
	_ZThn280_N4inet8queueing15PacketMeterBase19handleCanPushPacketEPN7omnetpp5cGateE
	_ZThn280_N4inet8queueing15PacketMeterBaseD0Ev
	_ZThn280_N4inet8queueing15PacketMeterBaseD1Ev
	_ZThn280_N4inet8queueing16PacketFilterBase11getConsumerEPN7omnetpp5cGateE
	_ZThn280_N4inet8queueing16PacketFilterBase19handleCanPushPacketEPN7omnetpp5cGateE
	_ZThn280_N4inet8queueing16PacketFilterBaseD0Ev
	_ZThn280_N4inet8queueing16PacketFilterBaseD1Ev
	_ZThn280_N4inet8queueing16PacketMarkerBase11getConsumerEPN7omnetpp5cGateE
	_ZThn280_N4inet8queueing16PacketMarkerBase19handleCanPushPacketEPN7omnetpp5cGateE
	_ZThn280_N4inet8queueing16PacketMarkerBaseD0Ev
	_ZThn280_N4inet8queueing16PacketMarkerBaseD1Ev
	_ZThn280_N4inet8queueing16PacketTaggerBaseD0Ev
	_ZThn280_N4inet8queueing16PacketTaggerBaseD1Ev
	_ZThn280_N4inet8queueing17PacketLabelerBaseD0Ev
	_ZThn280_N4inet8queueing17PacketLabelerBaseD1Ev
	_ZThn280_N4inet8queueing18ContentBasedFilterD0Ev
	_ZThn280_N4inet8queueing18ContentBasedFilterD1Ev
	_ZThn280_N4inet8queueing18ContentBasedTaggerD0Ev
	_ZThn280_N4inet8queueing18ContentBasedTaggerD1Ev
	_ZThn280_N4inet8queueing19CompoundPacketQueue13receiveSignalEPN7omnetpp10cComponentEiPNS2_7cObjectES6_
	_ZThn280_N4inet8queueing19CompoundPacketQueueD0Ev
	_ZThn280_N4inet8queueing19CompoundPacketQueueD1Ev
	_ZThn280_N4inet8queueing19ContentBasedLabelerD0Ev
	_ZThn280_N4inet8queueing19ContentBasedLabelerD1Ev
	_ZThn280_N4inet8queueing19OrdinalBasedDropperD0Ev
	_ZThn280_N4inet8queueing19OrdinalBasedDropperD1Ev
	_ZThn280_N4inet8queueing9EcnMarkerD0Ev
	_ZThn280_N4inet8queueing9EcnMarkerD1Ev
	_ZThn280_N4inet8queueing9RateMeterD0Ev
	_ZThn280_N4inet8queueing9RateMeterD1Ev
	_ZThn280_N4inet9AckingMac13receiveSignalEPN7omnetpp10cComponentEilPNS1_7cObjectE
	_ZThn280_N4inet9AckingMacD0Ev
	_ZThn280_N4inet9AckingMacD1Ev
	_ZThn280_N4inet9CsmaCaMac13receiveSignalEPN7omnetpp10cComponentEilPNS1_7cObjectE
	_ZThn280_N4inet9CsmaCaMacD0Ev
	_ZThn280_N4inet9CsmaCaMacD1Ev
	_ZThn280_N4inet9GlobalArp16resolveL3AddressERKNS_9L3AddressEPKNS_14InterfaceEntryE
	_ZThn280_N4inet9GlobalArpD0Ev
	_ZThn280_N4inet9GlobalArpD1Ev
	_ZThn280_N4inet9TelnetApp12socketClosedEPNS_9TcpSocketE
	_ZThn280_N4inet9TelnetApp13socketFailureEPNS_9TcpSocketEi
	_ZThn280_N4inet9TelnetApp17socketDataArrivedEPNS_9TcpSocketEPNS_6PacketEb
	_ZThn280_N4inet9TelnetApp17socketEstablishedEPNS_9TcpSocketE
	_ZThn280_N4inet9TelnetAppD0Ev
	_ZThn280_N4inet9TelnetAppD1Ev
	_ZThn280_N4inet9TunnelApp12socketClosedEPNS_9UdpSocketE
	_ZThn280_N4inet9TunnelApp17socketDataArrivedEPNS_9UdpSocketEPNS_6PacketE
	_ZThn280_N4inet9TunnelApp18socketErrorArrivedEPNS_9UdpSocketEPNS_10IndicationE
	_ZThn280_N4inet9TunnelAppD0Ev
	_ZThn280_N4inet9TunnelAppD1Ev
	_ZThn280_N4inet9ieee8021112Ieee80211Mac13receiveSignalEPN7omnetpp10cComponentEilPNS2_7cObjectE
	_ZThn280_N4inet9ieee8021112Ieee80211MacD0Ev
	_ZThn280_N4inet9ieee8021112Ieee80211MacD1Ev
	_ZThn280_NK4inet14InterfaceTable11getFullPathB5cxx11Ev
	_ZThn280_NK4inet14InterfaceTable12getInterfaceEi
	_ZThn280_NK4inet14InterfaceTable13getHostModuleEv
	_ZThn280_NK4inet14InterfaceTable14isLocalAddressERKNS_9L3AddressE
	_ZThn280_NK4inet14InterfaceTable16getInterfaceByIdEi
	_ZThn280_NK4inet14InterfaceTable16getNumInterfacesEv
	_ZThn280_NK4inet14InterfaceTable17findInterfaceByIdEi
	_ZThn280_NK4inet14InterfaceTable17isNeighborAddressERKNS_9L3AddressE
	_ZThn280_NK4inet14InterfaceTable19findInterfaceByNameEPKc
	_ZThn280_NK4inet14InterfaceTable21getBiggestInterfaceIdEv
	_ZThn280_NK4inet14InterfaceTable22collectMulticastGroupsEv
	_ZThn280_NK4inet14InterfaceTable22findInterfaceByAddressERKNS_9L3AddressE
	_ZThn280_NK4inet14InterfaceTable26findFirstLoopbackInterfaceEv
	_ZThn280_NK4inet14InterfaceTable27findFirstMulticastInterfaceEv
	_ZThn280_NK4inet14InterfaceTable29findFirstNonLoopbackInterfaceEv
	_ZThn280_NK4inet14InterfaceTable30findInterfaceByInterfaceModuleEPN7omnetpp7cModuleE
	_ZThn280_NK4inet14InterfaceTable30findInterfaceByNodeInputGateIdEi
	_ZThn280_NK4inet14InterfaceTable31findInterfaceByNodeOutputGateIdEi
	_ZThn280_NK4inet3Arp15getL3AddressForERKNS_10MacAddressE
	_ZThn280_NK4inet9GlobalArp15getL3AddressForERKNS_10MacAddressE
	_ZThn288_N4inet13physicallayer31Ieee80211DimensionalTransmitter10initializeEi
	_ZThn288_N4inet13physicallayer31Ieee80211DimensionalTransmitterD0Ev
	_ZThn288_N4inet13physicallayer31Ieee80211DimensionalTransmitterD1Ev
	_ZThn288_N4inet14InterfaceTable13receiveSignalEPN7omnetpp10cComponentEiPNS1_7cObjectES5_
	_ZThn288_N4inet14InterfaceTableD0Ev
	_ZThn288_N4inet14InterfaceTableD1Ev
	_ZThn288_N4inet14PacketDrillApp12socketClosedEPNS_9TcpSocketE
	_ZThn288_N4inet14PacketDrillApp13socketDeletedEPNS_9TcpSocketE
	_ZThn288_N4inet14PacketDrillApp13socketFailureEPNS_9TcpSocketEi
	_ZThn288_N4inet14PacketDrillApp15socketAvailableEPNS_9TcpSocketEPNS_16TcpAvailableInfoE
	_ZThn288_N4inet14PacketDrillApp16socketPeerClosedEPNS_9TcpSocketE
	_ZThn288_N4inet14PacketDrillApp17socketDataArrivedEPNS_9TcpSocketEPNS_6PacketEb
	_ZThn288_N4inet14PacketDrillApp17socketEstablishedEPNS_9TcpSocketE
	_ZThn288_N4inet14PacketDrillApp19socketStatusArrivedEPNS_9TcpSocketEPNS_13TcpStatusInfoE
	_ZThn288_N4inet14PacketDrillAppD0Ev
	_ZThn288_N4inet14PacketDrillAppD1Ev
	_ZThn288_N4inet19IndicatorTextFigure8setValueEiN7omnetpp7SimTimeEd
	_ZThn288_N4inet19IndicatorTextFigureD0Ev
	_ZThn288_N4inet19IndicatorTextFigureD1Ev
	_ZThn288_N4inet3Ldp12socketClosedEPNS_9UdpSocketE
	_ZThn288_N4inet3Ldp17socketDataArrivedEPNS_9UdpSocketEPNS_6PacketE
	_ZThn288_N4inet3Ldp18socketErrorArrivedEPNS_9UdpSocketEPNS_10IndicationE
	_ZThn288_N4inet3LdpD0Ev
	_ZThn288_N4inet3LdpD1Ev
	_ZThn288_N4inet4Ipv621handleRegisterServiceERKNS_8ProtocolEPN7omnetpp5cGateENS_16ServicePrimitiveE
	_ZThn288_N4inet4Ipv622handleRegisterProtocolERKNS_8ProtocolEPN7omnetpp5cGateENS_16ServicePrimitiveE
	_ZThn288_N4inet8queueing18ActivePacketSource11getConsumerEPN7omnetpp5cGateE
	_ZThn288_N4inet8queueing18ActivePacketSource19handleCanPushPacketEPN7omnetpp5cGateE
	_ZThn288_N4inet8queueing18ActivePacketSourceD0Ev
	_ZThn288_N4inet8queueing18ActivePacketSourceD1Ev
	_ZThn288_N4inet8queueing19PassivePacketSource9popPacketEPN7omnetpp5cGateE
	_ZThn288_N4inet8queueing19PassivePacketSourceD0Ev
	_ZThn288_N4inet8queueing19PassivePacketSourceD1Ev
	_ZThn288_N4inet9GlobalArp13receiveSignalEPN7omnetpp10cComponentEiPNS1_7cObjectES5_
	_ZThn288_N4inet9GlobalArpD0Ev
	_ZThn288_N4inet9GlobalArpD1Ev
	_ZThn288_N4inet9TunnelApp12socketClosedEPNS_10Ipv4SocketE
	_ZThn288_N4inet9TunnelApp17socketDataArrivedEPNS_10Ipv4SocketEPNS_6PacketE
	_ZThn288_N4inet9TunnelAppD0Ev
	_ZThn288_N4inet9TunnelAppD1Ev
	_ZThn288_NK4inet13physicallayer31Ieee80211DimensionalTransmitter13printToStreamERSoi
	_ZThn288_NK4inet19IndicatorTextFigure7getSizeEv
	_ZThn288_NK4inet8queueing19PassivePacketSource12canPopPacketEPN7omnetpp5cGateE
	_ZThn288_NK4inet8queueing19PassivePacketSource16canPopSomePacketEPN7omnetpp5cGateE
	_ZThn296_N4inet10DhcpClient12socketClosedEPNS_9UdpSocketE
	_ZThn296_N4inet10DhcpClient17socketDataArrivedEPNS_9UdpSocketEPNS_6PacketE
	_ZThn296_N4inet10DhcpClient18socketErrorArrivedEPNS_9UdpSocketEPNS_10IndicationE
	_ZThn296_N4inet10DhcpClientD0Ev
	_ZThn296_N4inet10DhcpClientD1Ev
	_ZThn296_N4inet10DhcpServer12socketClosedEPNS_9UdpSocketE
	_ZThn296_N4inet10DhcpServer17socketDataArrivedEPNS_9UdpSocketEPNS_6PacketE
	_ZThn296_N4inet10DhcpServer18socketErrorArrivedEPNS_9UdpSocketEPNS_10IndicationE
	_ZThn296_N4inet10DhcpServerD0Ev
	_ZThn296_N4inet10DhcpServerD1Ev
	_ZThn296_N4inet14PacketDrillApp12socketClosedEPNS_10SctpSocketE
	_ZThn296_N4inet14PacketDrillApp13socketDeletedEPNS_10SctpSocketE
	_ZThn296_N4inet14PacketDrillApp13socketFailureEPNS_10SctpSocketEi
	_ZThn296_N4inet14PacketDrillApp15socketAvailableEPNS_10SctpSocketEPNS_10IndicationE
	_ZThn296_N4inet14PacketDrillApp16socketPeerClosedEPNS_10SctpSocketE
	_ZThn296_N4inet14PacketDrillApp17socketDataArrivedEPNS_10SctpSocketEPNS_6PacketEb
	_ZThn296_N4inet14PacketDrillApp17socketEstablishedEPNS_10SctpSocketEm
	_ZThn296_N4inet14PacketDrillApp18sendRequestArrivedEPNS_10SctpSocketE
	_ZThn296_N4inet14PacketDrillApp19addressAddedArrivedEPNS_10SctpSocketENS_9L3AddressES3_
	_ZThn296_N4inet14PacketDrillApp19msgAbandonedArrivedEPNS_10SctpSocketE
	_ZThn296_N4inet14PacketDrillApp19socketStatusArrivedEPNS_10SctpSocketEPNS_13SctpStatusReqE
	_ZThn296_N4inet14PacketDrillApp20sendqueueFullArrivedEPNS_10SctpSocketE
	_ZThn296_N4inet14PacketDrillApp20socketOptionsArrivedEPNS_10SctpSocketEPNS_10IndicationE
	_ZThn296_N4inet14PacketDrillApp22sendqueueAbatedArrivedEPNS_10SctpSocketEm
	_ZThn296_N4inet14PacketDrillApp23shutdownReceivedArrivedEPNS_10SctpSocketE
	_ZThn296_N4inet14PacketDrillApp29socketDataNotificationArrivedEPNS_10SctpSocketEPNS_7MessageE
	_ZThn296_N4inet14PacketDrillAppD0Ev
	_ZThn296_N4inet14PacketDrillAppD1Ev
	_ZThn296_N4inet20IndicatorLabelFigure8setValueEiN7omnetpp7SimTimeEd
	_ZThn296_N4inet20IndicatorLabelFigureD0Ev
	_ZThn296_N4inet20IndicatorLabelFigureD1Ev
	_ZThn296_N4inet3Ldp11lookupLabelEPNS_6PacketERSt6vectorINS_7LabelOpESaIS4_EERNSt7__cxx1112basic_stringIcSt11char_traitsIcESaIcEEERi
	_ZThn296_N4inet3LdpD0Ev
	_ZThn296_N4inet3LdpD1Ev
	_ZThn296_N4inet4Gpsr19datagramForwardHookEPNS_6PacketE
	_ZThn296_N4inet4Gpsr19datagramLocalInHookEPNS_6PacketE
	_ZThn296_N4inet4Gpsr20datagramLocalOutHookEPNS_6PacketE
	_ZThn296_N4inet4Gpsr22datagramPreRoutingHookEPNS_6PacketE
	_ZThn296_N4inet4Gpsr23datagramPostRoutingHookEPNS_6PacketE
	_ZThn296_N4inet4GpsrD0Ev
	_ZThn296_N4inet4GpsrD1Ev
	_ZThn296_N4inet4dymo4Dymo19datagramForwardHookEPNS_6PacketE
	_ZThn296_N4inet4dymo4Dymo19datagramLocalInHookEPNS_6PacketE
	_ZThn296_N4inet4dymo4Dymo20datagramLocalOutHookEPNS_6PacketE
	_ZThn296_N4inet4dymo4Dymo22datagramPreRoutingHookEPNS_6PacketE
	_ZThn296_N4inet4dymo4Dymo23datagramPostRoutingHookEPNS_6PacketE
	_ZThn296_N4inet4dymo4DymoD0Ev
	_ZThn296_N4inet4dymo4DymoD1Ev
	_ZThn296_N4inet9TunnelApp12socketClosedEPNS_9TunSocketE
	_ZThn296_N4inet9TunnelApp17socketDataArrivedEPNS_9TunSocketEPNS_6PacketE
	_ZThn296_N4inet9TunnelAppD0Ev
	_ZThn296_N4inet9TunnelAppD1Ev
	_ZThn296_NK4inet20IndicatorLabelFigure7getSizeEv
	_ZThn304_N4inet14PacketDrillApp12socketClosedEPNS_9TunSocketE
	_ZThn304_N4inet14PacketDrillApp17socketDataArrivedEPNS_9TunSocketEPNS_6PacketE
	_ZThn304_N4inet14PacketDrillAppD0Ev
	_ZThn304_N4inet14PacketDrillAppD1Ev
	_ZThn304_N4inet3Ldp13receiveSignalEPN7omnetpp10cComponentEiPNS1_7cObjectES5_
	_ZThn304_N4inet3LdpD0Ev
	_ZThn304_N4inet3LdpD1Ev
	_ZThn304_N4inet5power15SimpleCcBatteryD0Ev
	_ZThn304_N4inet5power15SimpleCcBatteryD1Ev
	_ZThn304_N4inet5power19CcEnergyStorageBase13receiveSignalEPN7omnetpp10cComponentEidPNS2_7cObjectE
	_ZThn304_N4inet5power19CcEnergyStorageBaseD0Ev
	_ZThn304_N4inet5power19CcEnergyStorageBaseD1Ev
	_ZThn304_N4inet5power19EpEnergyStorageBase13receiveSignalEPN7omnetpp10cComponentEidPNS2_7cObjectE
	_ZThn304_N4inet5power19EpEnergyStorageBaseD0Ev
	_ZThn304_N4inet5power19EpEnergyStorageBaseD1Ev
	_ZThn304_N4inet5power20IdealEpEnergyStorageD0Ev
	_ZThn304_N4inet5power20IdealEpEnergyStorageD1Ev
	_ZThn304_N4inet5power21SimpleEpEnergyStorageD0Ev
	_ZThn304_N4inet5power21SimpleEpEnergyStorageD1Ev
	_ZThn312_N4inet4aodv4Aodv12socketClosedEPNS_9UdpSocketE
	_ZThn312_N4inet4aodv4Aodv17socketDataArrivedEPNS_9UdpSocketEPNS_6PacketE
	_ZThn312_N4inet4aodv4Aodv18socketErrorArrivedEPNS_9UdpSocketEPNS_10IndicationE
	_ZThn312_N4inet4aodv4AodvD0Ev
	_ZThn312_N4inet4aodv4AodvD1Ev
	_ZThn312_N4inet9ieee8021115Ieee80211MgmtAp13receiveSignalEPN7omnetpp10cComponentEilPNS2_7cObjectE
	_ZThn312_N4inet9ieee8021115Ieee80211MgmtApD0Ev
	_ZThn312_N4inet9ieee8021115Ieee80211MgmtApD1Ev
	_ZThn312_N4inet9ieee8021116Ieee80211MgmtSta13receiveSignalEPN7omnetpp10cComponentEilPNS2_7cObjectE
	_ZThn312_N4inet9ieee8021116Ieee80211MgmtStaD0Ev
	_ZThn312_N4inet9ieee8021116Ieee80211MgmtStaD1Ev
	_ZThn320_N4inet4aodv4Aodv13receiveSignalEPN7omnetpp10cComponentEiPNS2_7cObjectES6_
	_ZThn320_N4inet4aodv4AodvD0Ev
	_ZThn320_N4inet4aodv4AodvD1Ev
	_ZThn32_N4inet5power16CcEnergySinkBaseD0Ev
	_ZThn32_N4inet5power16CcEnergySinkBaseD1Ev
	_ZThn32_N4inet5power16EpEnergySinkBaseD0Ev
	_ZThn32_N4inet5power16EpEnergySinkBaseD1Ev
	_ZThn32_N4inet5power18CcEnergySourceBaseD0Ev
	_ZThn32_N4inet5power18CcEnergySourceBaseD1Ev
	_ZThn32_N4inet5power18EpEnergySourceBaseD0Ev
	_ZThn32_N4inet5power18EpEnergySourceBaseD1Ev
	_ZThn32_N4inet9ieee802113Dcf16processMgmtFrameEPNS_6PacketERKNS_12IntrusivePtrIKNS0_19Ieee80211MgmtHeaderEEE
	_ZThn32_N4inet9ieee802113Dcf28transmitControlResponseFrameEPNS_6PacketERKNS_12IntrusivePtrIKNS0_18Ieee80211MacHeaderEEES3_S9_
	_ZThn32_N4inet9ieee802113DcfD0Ev
	_ZThn32_N4inet9ieee802113DcfD1Ev
	_ZThn32_N4inet9ieee802113Hcf16processMgmtFrameEPNS_6PacketERKNS_12IntrusivePtrIKNS0_19Ieee80211MgmtHeaderEEE
	_ZThn32_N4inet9ieee802113Hcf28transmitControlResponseFrameEPNS_6PacketERKNS_12IntrusivePtrIKNS0_18Ieee80211MacHeaderEEES3_S9_
	_ZThn32_N4inet9ieee802113HcfD0Ev
	_ZThn32_N4inet9ieee802113HcfD1Ev
	_ZThn32_NK4inet13physicallayer28DimensionalSignalAnalogModel8getPowerEv
	_ZThn336_N4inet17NextHopForwardingD0Ev
	_ZThn336_N4inet17NextHopForwardingD1Ev
	_ZThn336_N4inet4Ipv4D0Ev
	_ZThn336_N4inet4Ipv4D1Ev
	_ZThn336_N4inet8queueing12WrrScheduler12removePacketEPNS_6PacketE
	_ZThn336_N4inet8queueing14LabelScheduler12removePacketEPNS_6PacketE
	_ZThn336_N4inet8queueing15MarkovScheduler10pushPacketEPNS_6PacketEPN7omnetpp5cGateE
	_ZThn336_N4inet8queueing15MarkovSchedulerD0Ev
	_ZThn336_N4inet8queueing15MarkovSchedulerD1Ev
	_ZThn336_N4inet8queueing16MarkovClassifier11getProviderEPN7omnetpp5cGateE
	_ZThn336_N4inet8queueing16MarkovClassifier18handleCanPopPacketEPN7omnetpp5cGateE
	_ZThn336_N4inet8queueing16MarkovClassifierD0Ev
	_ZThn336_N4inet8queueing16MarkovClassifierD1Ev
	_ZThn336_N4inet8queueing17PriorityScheduler12removePacketEPNS_6PacketE
	_ZThn336_NK4inet8queueing12WrrScheduler13getNumPacketsEv
	_ZThn336_NK4inet8queueing12WrrScheduler14getTotalLengthEv
	_ZThn336_NK4inet8queueing12WrrScheduler16getMaxNumPacketsEv
	_ZThn336_NK4inet8queueing12WrrScheduler17getMaxTotalLengthEv
	_ZThn336_NK4inet8queueing12WrrScheduler7isEmptyEv
	_ZThn336_NK4inet8queueing12WrrScheduler9getPacketEi
	_ZThn336_NK4inet8queueing14LabelScheduler13getNumPacketsEv
	_ZThn336_NK4inet8queueing14LabelScheduler14getTotalLengthEv
	_ZThn336_NK4inet8queueing14LabelScheduler16getMaxNumPacketsEv
	_ZThn336_NK4inet8queueing14LabelScheduler17getMaxTotalLengthEv
	_ZThn336_NK4inet8queueing14LabelScheduler7isEmptyEv
	_ZThn336_NK4inet8queueing14LabelScheduler9getPacketEi
	_ZThn336_NK4inet8queueing15MarkovScheduler13canPushPacketEPNS_6PacketEPN7omnetpp5cGateE
	_ZThn336_NK4inet8queueing15MarkovScheduler17canPushSomePacketEPN7omnetpp5cGateE
	_ZThn336_NK4inet8queueing17PriorityScheduler13getNumPacketsEv
	_ZThn336_NK4inet8queueing17PriorityScheduler14getTotalLengthEv
	_ZThn336_NK4inet8queueing17PriorityScheduler16getMaxNumPacketsEv
	_ZThn336_NK4inet8queueing17PriorityScheduler17getMaxTotalLengthEv
	_ZThn336_NK4inet8queueing17PriorityScheduler7isEmptyEv
	_ZThn336_NK4inet8queueing17PriorityScheduler9getPacketEi
	_ZThn344_N4inet13Ieee802154MacD0Ev
	_ZThn344_N4inet13Ieee802154MacD1Ev
	_ZThn344_N4inet13physicallayer26DimensionalBackgroundNoiseD0Ev
	_ZThn344_N4inet13physicallayer26DimensionalBackgroundNoiseD1Ev
	_ZThn344_N4inet17NextHopForwarding21handleRegisterServiceERKNS_8ProtocolEPN7omnetpp5cGateENS_16ServicePrimitiveE
	_ZThn344_N4inet17NextHopForwarding22handleRegisterProtocolERKNS_8ProtocolEPN7omnetpp5cGateENS_16ServicePrimitiveE
	_ZThn344_N4inet4BMacD0Ev
	_ZThn344_N4inet4BMacD1Ev
	_ZThn344_N4inet4Ipv421handleRegisterServiceERKNS_8ProtocolEPN7omnetpp5cGateENS_16ServicePrimitiveE
	_ZThn344_N4inet4Ipv422handleRegisterProtocolERKNS_8ProtocolEPN7omnetpp5cGateENS_16ServicePrimitiveE
	_ZThn344_N4inet4LMacD0Ev
	_ZThn344_N4inet4LMacD1Ev
	_ZThn344_N4inet4XMacD0Ev
	_ZThn344_N4inet4XMacD1Ev
	_ZThn344_N4inet8queueing15MarkovScheduler11getConsumerEPN7omnetpp5cGateE
	_ZThn344_N4inet8queueing15MarkovScheduler19handleCanPushPacketEPN7omnetpp5cGateE
	_ZThn344_N4inet8queueing15MarkovSchedulerD0Ev
	_ZThn344_N4inet8queueing15MarkovSchedulerD1Ev
	_ZThn344_N4inet8queueing16MarkovClassifier9popPacketEPN7omnetpp5cGateE
	_ZThn344_N4inet8queueing16MarkovClassifierD0Ev
	_ZThn344_N4inet8queueing16MarkovClassifierD1Ev
	_ZThn344_NK4inet13physicallayer26DimensionalBackgroundNoise12computeNoiseEPKNS0_10IListeningE
	_ZThn344_NK4inet13physicallayer26DimensionalBackgroundNoise13printToStreamERSoi
	_ZThn344_NK4inet8queueing16MarkovClassifier12canPopPacketEPN7omnetpp5cGateE
	_ZThn344_NK4inet8queueing16MarkovClassifier16canPopSomePacketEPN7omnetpp5cGateE
	_ZThn352_N4inet4Ipv413receiveSignalEPN7omnetpp10cComponentEiPNS1_7cObjectES5_
	_ZThn352_N4inet4Ipv4D0Ev
	_ZThn352_N4inet4Ipv4D1Ev
	_ZThn376_N4inet16AttachedMobility13receiveSignalEPN7omnetpp10cComponentEiPNS1_7cObjectES5_
	_ZThn376_N4inet16AttachedMobilityD0Ev
	_ZThn376_N4inet16AttachedMobilityD1Ev
	_ZThn376_N4inet24SuperpositioningMobility13receiveSignalEPN7omnetpp10cComponentEiPNS1_7cObjectES5_
	_ZThn376_N4inet24SuperpositioningMobilityD0Ev
	_ZThn376_N4inet24SuperpositioningMobilityD1Ev
	_ZThn376_N4inet5PimDm13receiveSignalEPN7omnetpp10cComponentEiPNS1_7cObjectES5_
	_ZThn376_N4inet5PimDmD0Ev
	_ZThn376_N4inet5PimDmD1Ev
	_ZThn376_N4inet5PimSm13receiveSignalEPN7omnetpp10cComponentEiPNS1_7cObjectES5_
	_ZThn376_N4inet5PimSmD0Ev
	_ZThn376_N4inet5PimSmD1Ev
	_ZThn384_NK4inet9ieee8021115Ieee80211LlcLpd11getProtocolEv
	_ZThn392_N4inet22ProbabilisticBroadcastD0Ev
	_ZThn392_N4inet22ProbabilisticBroadcastD1Ev
	_ZThn392_N4inet30AdaptiveProbabilisticBroadcastD0Ev
	_ZThn392_N4inet30AdaptiveProbabilisticBroadcastD1Ev
	_ZThn392_N4inet8FloodingD0Ev
	_ZThn392_N4inet8FloodingD1Ev
	_ZThn392_N4inet9WiseRouteD0Ev
	_ZThn392_N4inet9WiseRouteD1Ev
	_ZThn40_N4inet9ieee802113Dcf10initializeEi
	_ZThn40_N4inet9ieee802113Dcf12forEachChildEPN7omnetpp8cVisitorE
	_ZThn40_N4inet9ieee802113Dcf13handleMessageEPN7omnetpp8cMessageE
	_ZThn40_N4inet9ieee802113DcfD0Ev
	_ZThn40_N4inet9ieee802113DcfD1Ev
	_ZThn40_N4inet9ieee802113Hcf23scheduleInactivityTimerEN7omnetpp7SimTimeE
	_ZThn40_N4inet9ieee802113HcfD0Ev
	_ZThn40_N4inet9ieee802113HcfD1Ev
	_ZThn40_NK4inet9ieee802113Dcf13numInitStagesEv
	_ZThn48_N4inet9ieee802113Hcf10initializeEi
	_ZThn48_N4inet9ieee802113Hcf12forEachChildEPN7omnetpp8cVisitorE
	_ZThn48_N4inet9ieee802113Hcf13handleMessageEPN7omnetpp8cMessageE
	_ZThn48_N4inet9ieee802113HcfD0Ev
	_ZThn48_N4inet9ieee802113HcfD1Ev
	_ZThn48_NK4inet9ieee802113Hcf13numInitStagesEv
	_ZThn504_N4inet9httptools11HttpBrowser12socketClosedEPNS_9TcpSocketE
	_ZThn504_N4inet9httptools11HttpBrowser13socketDeletedEPNS_9TcpSocketE
	_ZThn504_N4inet9httptools11HttpBrowser13socketFailureEPNS_9TcpSocketEi
	_ZThn504_N4inet9httptools11HttpBrowser15socketAvailableEPNS_9TcpSocketEPNS_16TcpAvailableInfoE
	_ZThn504_N4inet9httptools11HttpBrowser16socketPeerClosedEPNS_9TcpSocketE
	_ZThn504_N4inet9httptools11HttpBrowser17socketDataArrivedEPNS_9TcpSocketE
	_ZThn504_N4inet9httptools11HttpBrowser17socketEstablishedEPNS_9TcpSocketE
	_ZThn504_N4inet9httptools11HttpBrowser19socketStatusArrivedEPNS_9TcpSocketEPNS_13TcpStatusInfoE
	_ZThn504_N4inet9httptools11HttpBrowserD0Ev
	_ZThn504_N4inet9httptools11HttpBrowserD1Ev
	_ZThn512_N4inet9httptools10HttpServer12socketClosedEPNS_9TcpSocketE
	_ZThn512_N4inet9httptools10HttpServer13socketDeletedEPNS_9TcpSocketE
	_ZThn512_N4inet9httptools10HttpServer13socketFailureEPNS_9TcpSocketEi
	_ZThn512_N4inet9httptools10HttpServer15socketAvailableEPNS_9TcpSocketEPNS_16TcpAvailableInfoE
	_ZThn512_N4inet9httptools10HttpServer16socketPeerClosedEPNS_9TcpSocketE
	_ZThn512_N4inet9httptools10HttpServer17socketDataArrivedEPNS_9TcpSocketE
	_ZThn512_N4inet9httptools10HttpServer17socketEstablishedEPNS_9TcpSocketE
	_ZThn512_N4inet9httptools10HttpServer19socketStatusArrivedEPNS_9TcpSocketEPNS_13TcpStatusInfoE
	_ZThn512_N4inet9httptools10HttpServerD0Ev
	_ZThn512_N4inet9httptools10HttpServerD1Ev
	_ZThn512_N4inet9httptools15HttpServerEvilAD0Ev
	_ZThn512_N4inet9httptools15HttpServerEvilAD1Ev
	_ZThn512_N4inet9httptools15HttpServerEvilBD0Ev
	_ZThn512_N4inet9httptools15HttpServerEvilBD1Ev
	_ZThn80_N4inet6ospfv210NetworkLsaD0Ev
	_ZThn80_N4inet6ospfv210NetworkLsaD1Ev
	_ZThn80_N4inet6ospfv210SummaryLsaD0Ev
	_ZThn80_N4inet6ospfv210SummaryLsaD1Ev
	_ZThn80_N4inet6ospfv310NetworkLSAD0Ev
	_ZThn80_N4inet6ospfv310NetworkLSAD1Ev
	_ZThn80_N4inet6ospfv318IntraAreaPrefixLSAD0Ev
	_ZThn80_N4inet6ospfv318IntraAreaPrefixLSAD1Ev
	_ZThn80_N4inet6ospfv39RouterLSAD0Ev
	_ZThn80_N4inet6ospfv39RouterLSAD1Ev
	_ZThn88_N4inet6ospfv213AsExternalLsaD0Ev
	_ZThn88_N4inet6ospfv213AsExternalLsaD1Ev
	_ZThn88_N4inet6ospfv29RouterLsaD0Ev
	_ZThn88_N4inet6ospfv29RouterLsaD1Ev
	_ZThn88_N4inet6ospfv318InterAreaPrefixLSAD0Ev
	_ZThn88_N4inet6ospfv318InterAreaPrefixLSAD1Ev
	_ZThn8_N4inet10visualizer23StatisticVisualizerBase17LastValueRecorderD0Ev
	_ZThn8_N4inet10visualizer23StatisticVisualizerBase17LastValueRecorderD1Ev
	_ZThn8_N4inet12NextHopRoute10setNextHopERKNS_9L3AddressE
	_ZThn8_N4inet12NextHopRoute12setAdminDistEj
	_ZThn8_N4inet12NextHopRoute12setInterfaceEPNS_14InterfaceEntryE
	_ZThn8_N4inet12NextHopRoute13setSourceTypeENS_6IRoute10SourceTypeE
	_ZThn8_N4inet12NextHopRoute14setDestinationERKNS_9L3AddressE
	_ZThn8_N4inet12NextHopRoute15setPrefixLengthEi
	_ZThn8_N4inet12NextHopRoute15setProtocolDataEPN7omnetpp7cObjectE
	_ZThn8_N4inet12NextHopRoute9setMetricEi
	_ZThn8_N4inet12NextHopRoute9setSourceEPN7omnetpp7cObjectE
	_ZThn8_N4inet12NextHopRouteD0Ev
	_ZThn8_N4inet12NextHopRouteD1Ev
	_ZThn8_N4inet13DsdvIpv4RouteD0Ev
	_ZThn8_N4inet13DsdvIpv4RouteD1Ev
	_ZThn8_N4inet13physicallayer11AntennaBase10initializeEi
	_ZThn8_N4inet13physicallayer11AntennaBaseD0Ev
	_ZThn8_N4inet13physicallayer11AntennaBaseD1Ev
	_ZThn8_N4inet13physicallayer11ApskEncoder10initializeEi
	_ZThn8_N4inet13physicallayer11ApskEncoderD0Ev
	_ZThn8_N4inet13physicallayer11ApskEncoderD1Ev
	_ZThn8_N4inet13physicallayer13ApskModulator10initializeEi
	_ZThn8_N4inet13physicallayer13ApskModulatorD0Ev
	_ZThn8_N4inet13physicallayer13ApskModulatorD1Ev
	_ZThn8_N4inet13physicallayer13CosineAntenna10initializeEi
	_ZThn8_N4inet13physicallayer13CosineAntennaD0Ev
	_ZThn8_N4inet13physicallayer13CosineAntennaD1Ev
	_ZThn8_N4inet13physicallayer13DipoleAntenna10initializeEi
	_ZThn8_N4inet13physicallayer13DipoleAntennaD0Ev
	_ZThn8_N4inet13physicallayer13DipoleAntennaD1Ev
	_ZThn8_N4inet13physicallayer14IIeee80211BandD0Ev
	_ZThn8_N4inet13physicallayer14IIeee80211BandD1Ev
	_ZThn8_N4inet13physicallayer14IIeee80211ModeD0Ev
	_ZThn8_N4inet13physicallayer14IIeee80211ModeD1Ev
	_ZThn8_N4inet13physicallayer15ApskDemodulator10initializeEi
	_ZThn8_N4inet13physicallayer15ApskDemodulatorD0Ev
	_ZThn8_N4inet13physicallayer15ApskDemodulatorD1Ev
	_ZThn8_N4inet13physicallayer15Ieee80211HtModeD0Ev
	_ZThn8_N4inet13physicallayer15Ieee80211HtModeD1Ev
	_ZThn8_N4inet13physicallayer15Ieee80211IrModeD0Ev
	_ZThn8_N4inet13physicallayer15Ieee80211IrModeD1Ev
	_ZThn8_N4inet13physicallayer15ReceptionResultD0Ev
	_ZThn8_N4inet13physicallayer15ReceptionResultD1Ev
	_ZThn8_N4inet13physicallayer16Ieee80211ModeSetD0Ev
	_ZThn8_N4inet13physicallayer16Ieee80211ModeSetD1Ev
	_ZThn8_N4inet13physicallayer16Ieee80211VhtModeD0Ev
	_ZThn8_N4inet13physicallayer16Ieee80211VhtModeD1Ev
	_ZThn8_N4inet13physicallayer16IsotropicAntennaD0Ev
	_ZThn8_N4inet13physicallayer16IsotropicAntennaD1Ev
	_ZThn8_N4inet13physicallayer16ParabolicAntenna10initializeEi
	_ZThn8_N4inet13physicallayer16ParabolicAntennaD0Ev
	_ZThn8_N4inet13physicallayer16ParabolicAntennaD1Ev
	_ZThn8_N4inet13physicallayer17Ieee80211BandBaseD0Ev
	_ZThn8_N4inet13physicallayer17Ieee80211BandBaseD1Ev
	_ZThn8_N4inet13physicallayer17Ieee80211DsssModeD0Ev
	_ZThn8_N4inet13physicallayer17Ieee80211DsssModeD1Ev
	_ZThn8_N4inet13physicallayer17Ieee80211FhssModeD0Ev
	_ZThn8_N4inet13physicallayer17Ieee80211FhssModeD1Ev
	_ZThn8_N4inet13physicallayer17Ieee80211ModeBaseD0Ev
	_ZThn8_N4inet13physicallayer17Ieee80211ModeBaseD1Ev
	_ZThn8_N4inet13physicallayer17Ieee80211OfdmModeD0Ev
	_ZThn8_N4inet13physicallayer17Ieee80211OfdmModeD1Ev
	_ZThn8_N4inet13physicallayer17ListeningDecisionD0Ev
	_ZThn8_N4inet13physicallayer17ListeningDecisionD1Ev
	_ZThn8_N4inet13physicallayer17ReceptionDecisionD0Ev
	_ZThn8_N4inet13physicallayer17ReceptionDecisionD1Ev
	_ZThn8_N4inet13physicallayer18IIeee80211DataModeD0Ev
	_ZThn8_N4inet13physicallayer18IIeee80211DataModeD1Ev
	_ZThn8_N4inet13physicallayer19ConstantGainAntenna10initializeEi
	_ZThn8_N4inet13physicallayer19ConstantGainAntennaD0Ev
	_ZThn8_N4inet13physicallayer19ConstantGainAntennaD1Ev
	_ZThn8_N4inet13physicallayer19Ieee80211HrDsssModeD0Ev
	_ZThn8_N4inet13physicallayer19Ieee80211HrDsssModeD1Ev
	_ZThn8_N4inet13physicallayer19Ieee80211HtDataModeD0Ev
	_ZThn8_N4inet13physicallayer19Ieee80211HtDataModeD1Ev
	_ZThn8_N4inet13physicallayer19Ieee80211IrDataModeD0Ev
	_ZThn8_N4inet13physicallayer19Ieee80211IrDataModeD1Ev
	_ZThn8_N4inet13physicallayer20IIeee80211HeaderModeD0Ev
	_ZThn8_N4inet13physicallayer20IIeee80211HeaderModeD1Ev
	_ZThn8_N4inet13physicallayer20Ieee80211ErpOfdmModeD0Ev
	_ZThn8_N4inet13physicallayer20Ieee80211ErpOfdmModeD1Ev
	_ZThn8_N4inet13physicallayer20Ieee80211VhtDataModeD0Ev
	_ZThn8_N4inet13physicallayer20Ieee80211VhtDataModeD1Ev
	_ZThn8_N4inet13physicallayer20InterpolatingAntenna10initializeEi
	_ZThn8_N4inet13physicallayer20InterpolatingAntennaD0Ev
	_ZThn8_N4inet13physicallayer20InterpolatingAntennaD1Ev
	_ZThn8_N4inet13physicallayer21Ieee80211DsssDataModeD0Ev
	_ZThn8_N4inet13physicallayer21Ieee80211DsssDataModeD1Ev
	_ZThn8_N4inet13physicallayer21Ieee80211DsssOfdmModeD0Ev
	_ZThn8_N4inet13physicallayer21Ieee80211DsssOfdmModeD1Ev
	_ZThn8_N4inet13physicallayer21Ieee80211FhssDataModeD0Ev
	_ZThn8_N4inet13physicallayer21Ieee80211FhssDataModeD1Ev
	_ZThn8_N4inet13physicallayer21Ieee80211HtSignalModeD0Ev
	_ZThn8_N4inet13physicallayer21Ieee80211HtSignalModeD1Ev
	_ZThn8_N4inet13physicallayer21Ieee80211IrHeaderModeD0Ev
	_ZThn8_N4inet13physicallayer21Ieee80211IrHeaderModeD1Ev
	_ZThn8_N4inet13physicallayer21Ieee80211OfdmDataModeD0Ev
	_ZThn8_N4inet13physicallayer21Ieee80211OfdmDataModeD1Ev
	_ZThn8_N4inet13physicallayer22IIeee80211PreambleModeD0Ev
	_ZThn8_N4inet13physicallayer22IIeee80211PreambleModeD1Ev
	_ZThn8_N4inet13physicallayer22Ieee80211VhtSignalModeD0Ev
	_ZThn8_N4inet13physicallayer22Ieee80211VhtSignalModeD1Ev
	_ZThn8_N4inet13physicallayer22LayeredReceptionResultD0Ev
	_ZThn8_N4inet13physicallayer22LayeredReceptionResultD1Ev
	_ZThn8_N4inet13physicallayer23AxiallySymmetricAntenna10initializeEi
	_ZThn8_N4inet13physicallayer23AxiallySymmetricAntennaD0Ev
	_ZThn8_N4inet13physicallayer23AxiallySymmetricAntennaD1Ev
	_ZThn8_N4inet13physicallayer23Ieee80211DsssHeaderModeD0Ev
	_ZThn8_N4inet13physicallayer23Ieee80211DsssHeaderModeD1Ev
	_ZThn8_N4inet13physicallayer23Ieee80211EnumeratedBandD0Ev
	_ZThn8_N4inet13physicallayer23Ieee80211EnumeratedBandD1Ev
	_ZThn8_N4inet13physicallayer23Ieee80211FhssHeaderModeD0Ev
	_ZThn8_N4inet13physicallayer23Ieee80211FhssHeaderModeD1Ev
	_ZThn8_N4inet13physicallayer23Ieee80211HrDsssDataModeD0Ev
	_ZThn8_N4inet13physicallayer23Ieee80211HrDsssDataModeD1Ev
	_ZThn8_N4inet13physicallayer23Ieee80211HtPreambleModeD0Ev
	_ZThn8_N4inet13physicallayer23Ieee80211HtPreambleModeD1Ev
	_ZThn8_N4inet13physicallayer23Ieee80211IrPreambleModeD0Ev
	_ZThn8_N4inet13physicallayer23Ieee80211IrPreambleModeD1Ev
	_ZThn8_N4inet13physicallayer23Ieee80211OfdmSignalModeD0Ev
	_ZThn8_N4inet13physicallayer23Ieee80211OfdmSignalModeD1Ev
	_ZThn8_N4inet13physicallayer24Ieee80211VhtPreambleModeD0Ev
	_ZThn8_N4inet13physicallayer24Ieee80211VhtPreambleModeD1Ev
	_ZThn8_N4inet13physicallayer25Ieee80211ArithmeticalBandD0Ev
	_ZThn8_N4inet13physicallayer25Ieee80211ArithmeticalBandD1Ev
	_ZThn8_N4inet13physicallayer25Ieee80211DsssPreambleModeD0Ev
	_ZThn8_N4inet13physicallayer25Ieee80211DsssPreambleModeD1Ev
	_ZThn8_N4inet13physicallayer25Ieee80211FhssPreambleModeD0Ev
	_ZThn8_N4inet13physicallayer25Ieee80211FhssPreambleModeD1Ev
	_ZThn8_N4inet13physicallayer25Ieee80211HrDsssHeaderModeD0Ev
	_ZThn8_N4inet13physicallayer25Ieee80211HrDsssHeaderModeD1Ev
	_ZThn8_N4inet13physicallayer25Ieee80211OfdmPreambleModeD0Ev
	_ZThn8_N4inet13physicallayer25Ieee80211OfdmPreambleModeD1Ev
	_ZThn8_N4inet13physicallayer26Ieee80211OfdmEncoderModule10initializeEi
	_ZThn8_N4inet13physicallayer26Ieee80211OfdmEncoderModule13handleMessageEPN7omnetpp8cMessageE
	_ZThn8_N4inet13physicallayer26Ieee80211OfdmEncoderModuleD0Ev
	_ZThn8_N4inet13physicallayer26Ieee80211OfdmEncoderModuleD1Ev
	_ZThn8_N4inet13physicallayer27Ieee80211HrDsssPreambleModeD0Ev
	_ZThn8_N4inet13physicallayer27Ieee80211HrDsssPreambleModeD1Ev
	_ZThn8_N4inet13physicallayer28Ieee80211OfdmModulatorModule10initializeEi
	_ZThn8_N4inet13physicallayer28Ieee80211OfdmModulatorModule13handleMessageEPN7omnetpp8cMessageE
	_ZThn8_N4inet13physicallayer28Ieee80211OfdmModulatorModuleD0Ev
	_ZThn8_N4inet13physicallayer28Ieee80211OfdmModulatorModuleD1Ev
	_ZThn8_N4inet13physicallayer30Ieee80211OfdmDemodulatorModule10initializeEi
	_ZThn8_N4inet13physicallayer30Ieee80211OfdmDemodulatorModule13handleMessageEPN7omnetpp8cMessageE
	_ZThn8_N4inet13physicallayer30Ieee80211OfdmDemodulatorModuleD0Ev
	_ZThn8_N4inet13physicallayer30Ieee80211OfdmDemodulatorModuleD1Ev
	_ZThn8_N4inet13physicallayer6IRadioD0Ev
	_ZThn8_N4inet13physicallayer6IRadioD1Ev
	_ZThn8_N4inet13physicallayer7ISignalD0Ev
	_ZThn8_N4inet13physicallayer7ISignalD1Ev
	_ZThn8_N4inet14FigureRecorderD0Ev
	_ZThn8_N4inet14FigureRecorderD1Ev
	_ZThn8_N4inet17RealTimeSchedulerD0Ev
	_ZThn8_N4inet17RealTimeSchedulerD1Ev
	_ZThn8_N4inet18GroupCountRecorderD0Ev
	_ZThn8_N4inet18GroupCountRecorderD1Ev
	_ZThn8_N4inet18Ipv4MulticastRoute10setEnabledEb
	_ZThn8_N4inet18Ipv4MulticastRoute13setSourceTypeENS_15IMulticastRoute10SourceTypeE
	_ZThn8_N4inet18Ipv4MulticastRoute14setInInterfaceEPNS_15IMulticastRoute11InInterfaceE
	_ZThn8_N4inet18Ipv4MulticastRoute15addOutInterfaceEPNS_15IMulticastRoute12OutInterfaceE
	_ZThn8_N4inet18Ipv4MulticastRoute15setPrefixLengthEi
	_ZThn8_N4inet18Ipv4MulticastRoute17setMulticastGroupERKNS_9L3AddressE
	_ZThn8_N4inet18Ipv4MulticastRoute18clearOutInterfacesEv
	_ZThn8_N4inet18Ipv4MulticastRoute18removeOutInterfaceEPKNS_14InterfaceEntryE
	_ZThn8_N4inet18Ipv4MulticastRoute18removeOutInterfaceEj
	_ZThn8_N4inet18Ipv4MulticastRoute9setMetricEi
	_ZThn8_N4inet18Ipv4MulticastRoute9setOriginERKNS_9L3AddressE
	_ZThn8_N4inet18Ipv4MulticastRoute9setSourceEPN7omnetpp7cObjectE
	_ZThn8_N4inet18Ipv4MulticastRouteD0Ev
	_ZThn8_N4inet18Ipv4MulticastRouteD1Ev
	_ZThn8_N4inet19ElapsedTimeRecorderD0Ev
	_ZThn8_N4inet19ElapsedTimeRecorderD1Ev
	_ZThn8_N4inet19physicalenvironment10FlatGround10initializeEi
	_ZThn8_N4inet19physicalenvironment10FlatGroundD0Ev
	_ZThn8_N4inet19physicalenvironment10FlatGroundD1Ev
	_ZThn8_N4inet19physicalenvironment14BvhObjectCache10initializeEi
	_ZThn8_N4inet19physicalenvironment14BvhObjectCacheD0Ev
	_ZThn8_N4inet19physicalenvironment14BvhObjectCacheD1Ev
	_ZThn8_N4inet19physicalenvironment14OsgEarthGround10initializeEv
	_ZThn8_N4inet19physicalenvironment14OsgEarthGroundD0Ev
	_ZThn8_N4inet19physicalenvironment14OsgEarthGroundD1Ev
	_ZThn8_N4inet19physicalenvironment15GridObjectCache10initializeEi
	_ZThn8_N4inet19physicalenvironment15GridObjectCacheD0Ev
	_ZThn8_N4inet19physicalenvironment15GridObjectCacheD1Ev
	_ZThn8_N4inet25WeightedHistogramRecorderD0Ev
	_ZThn8_N4inet25WeightedHistogramRecorderD1Ev
	_ZThn8_N4inet27EthernetFrameTypeComparatorD0Ev
	_ZThn8_N4inet27EthernetFrameTypeComparatorD1Ev
	_ZThn8_N4inet28PacketUserPriorityComparatorD0Ev
	_ZThn8_N4inet28PacketUserPriorityComparatorD1Ev
	_ZThn8_N4inet37AckingMacToEthernetPcapRecorderHelperD0Ev
	_ZThn8_N4inet37AckingMacToEthernetPcapRecorderHelperD1Ev
	_ZThn8_N4inet3bgp20BgpRoutingTableEntryD0Ev
	_ZThn8_N4inet3bgp20BgpRoutingTableEntryD1Ev
	_ZThn8_N4inet5utils7filters12XCoordFilterD0Ev
	_ZThn8_N4inet5utils7filters12XCoordFilterD1Ev
	_ZThn8_N4inet5utils7filters12YCoordFilterD0Ev
	_ZThn8_N4inet5utils7filters12YCoordFilterD1Ev
	_ZThn8_N4inet5utils7filters12ZCoordFilterD0Ev
	_ZThn8_N4inet5utils7filters12ZCoordFilterD1Ev
	_ZThn8_N4inet5utils7filters13DataAgeFilterD0Ev
	_ZThn8_N4inet5utils7filters13DataAgeFilterD1Ev
	_ZThn8_N4inet5utils7filters16MessageAgeFilterD0Ev
	_ZThn8_N4inet5utils7filters16MessageAgeFilterD1Ev
	_ZThn8_N4inet5utils7filters16ThroughputFilter6finishEPN7omnetpp10cComponentEi
	_ZThn8_N4inet5utils7filters16ThroughputFilterD0Ev
	_ZThn8_N4inet5utils7filters16ThroughputFilterD1Ev
	_ZThn8_N4inet5utils7filters17ElapsedTimeFilterD0Ev
	_ZThn8_N4inet5utils7filters17ElapsedTimeFilterD1Ev
	_ZThn8_N4inet5utils7filters17LocalSignalFilter12subscribedToEPN7omnetpp10cComponentEi
	_ZThn8_N4inet5utils7filters17LocalSignalFilter13receiveSignalEPN7omnetpp10cComponentEiPKcPNS3_7cObjectE
	_ZThn8_N4inet5utils7filters17LocalSignalFilter13receiveSignalEPN7omnetpp10cComponentEiPNS3_7cObjectES7_
	_ZThn8_N4inet5utils7filters17LocalSignalFilter13receiveSignalEPN7omnetpp10cComponentEiRKNS3_7SimTimeEPNS3_7cObjectE
	_ZThn8_N4inet5utils7filters17LocalSignalFilter13receiveSignalEPN7omnetpp10cComponentEibPNS3_7cObjectE
	_ZThn8_N4inet5utils7filters17LocalSignalFilter13receiveSignalEPN7omnetpp10cComponentEidPNS3_7cObjectE
	_ZThn8_N4inet5utils7filters17LocalSignalFilter13receiveSignalEPN7omnetpp10cComponentEilPNS3_7cObjectE
	_ZThn8_N4inet5utils7filters17LocalSignalFilter13receiveSignalEPN7omnetpp10cComponentEimPNS3_7cObjectE
	_ZThn8_N4inet5utils7filters17LocalSignalFilterD0Ev
	_ZThn8_N4inet5utils7filters17LocalSignalFilterD1Ev
	_ZThn8_N4inet5utils7filters17MobilityPosFilterD0Ev
	_ZThn8_N4inet5utils7filters17MobilityPosFilterD1Ev
	_ZThn8_N4inet5utils7filters18MessageTsAgeFilterD0Ev
	_ZThn8_N4inet5utils7filters18MessageTsAgeFilterD1Ev
	_ZThn8_N4inet5utils7filters18QueueingTimeFilterD0Ev
	_ZThn8_N4inet5utils7filters18QueueingTimeFilterD1Ev
	_ZThn8_N4inet5utils7filters20LiveThroughputFilter6finishEPN7omnetpp10cComponentEi
	_ZThn8_N4inet5utils7filters20LiveThroughputFilterD0Ev
	_ZThn8_N4inet5utils7filters20LiveThroughputFilterD1Ev
	_ZThn8_N4inet5utils7filters20cPointerResultFilterD0Ev
	_ZThn8_N4inet5utils7filters20cPointerResultFilterD1Ev
	_ZThn8_N4inet5utils7filters22PacketDropReasonFilterD0Ev
	_ZThn8_N4inet5utils7filters22PacketDropReasonFilterD1Ev
	_ZThn8_N4inet5utils7filters23MessageSourceAddrFilterD0Ev
	_ZThn8_N4inet5utils7filters23MessageSourceAddrFilterD1Ev
	_ZThn8_N4inet5utils7filters27OtherPacketDropReasonFilterD0Ev
	_ZThn8_N4inet5utils7filters27OtherPacketDropReasonFilterD1Ev
	_ZThn8_N4inet5utils7filters28MinimumSnirFromSnirIndFilterD0Ev
	_ZThn8_N4inet5utils7filters28MinimumSnirFromSnirIndFilterD1Ev
	_ZThn8_N4inet5utils7filters29ReceptionMinSignalPowerFilterD0Ev
	_ZThn8_N4inet5utils7filters29ReceptionMinSignalPowerFilterD1Ev
	_ZThn8_N4inet5utils7filters31UndefinedPacketDropReasonFilterD0Ev
	_ZThn8_N4inet5utils7filters31UndefinedPacketDropReasonFilterD1Ev
	_ZThn8_N4inet5utils7filters32CongestionPacketDropReasonFilterD0Ev
	_ZThn8_N4inet5utils7filters32CongestionPacketDropReasonFilterD1Ev
	_ZThn8_N4inet5utils7filters33NoPortFoundPacketDropReasonFilterD0Ev
	_ZThn8_N4inet5utils7filters33NoPortFoundPacketDropReasonFilterD1Ev
	_ZThn8_N4inet5utils7filters34BitErrorRateFromErrorRateIndFilterD0Ev
	_ZThn8_N4inet5utils7filters34BitErrorRateFromErrorRateIndFilterD1Ev
	_ZThn8_N4inet5utils7filters34NoRouteFoundPacketDropReasonFilterD0Ev
	_ZThn8_N4inet5utils7filters34NoRouteFoundPacketDropReasonFilterD1Ev
	_ZThn8_N4inet5utils7filters35InterfaceDownPacketDropReasonFilterD0Ev
	_ZThn8_N4inet5utils7filters35InterfaceDownPacketDropReasonFilterD1Ev
	_ZThn8_N4inet5utils7filters35QueueOverflowPacketDropReasonFilterD0Ev
	_ZThn8_N4inet5utils7filters35QueueOverflowPacketDropReasonFilterD1Ev
	_ZThn8_N4inet5utils7filters37ApplicationPacketSequenceNumberFilterD0Ev
	_ZThn8_N4inet5utils7filters37ApplicationPacketSequenceNumberFilterD1Ev
	_ZThn8_N4inet5utils7filters37HopLimitReachedPacketDropReasonFilterD0Ev
	_ZThn8_N4inet5utils7filters37HopLimitReachedPacketDropReasonFilterD1Ev
	_ZThn8_N4inet5utils7filters37LifetimeExpiredPacketDropReasonFilterD0Ev
	_ZThn8_N4inet5utils7filters37LifetimeExpiredPacketDropReasonFilterD1Ev
	_ZThn8_N4inet5utils7filters37NoProtocolFoundPacketDropReasonFilterD0Ev
	_ZThn8_N4inet5utils7filters37NoProtocolFoundPacketDropReasonFilterD1Ev
	_ZThn8_N4inet5utils7filters37PacketErrorRateFromErrorRateIndFilterD0Ev
	_ZThn8_N4inet5utils7filters37PacketErrorRateFromErrorRateIndFilterD1Ev
	_ZThn8_N4inet5utils7filters37SymbolErrorRateFromErrorRateIndFilterD0Ev
	_ZThn8_N4inet5utils7filters37SymbolErrorRateFromErrorRateIndFilterD1Ev
	_ZThn8_N4inet5utils7filters38NoInterfaceFoundPacketDropReasonFilterD0Ev
	_ZThn8_N4inet5utils7filters38NoInterfaceFoundPacketDropReasonFilterD1Ev
	_ZThn8_N4inet5utils7filters38NotAddressedToUsPacketDropReasonFilterD0Ev
	_ZThn8_N4inet5utils7filters38NotAddressedToUsPacketDropReasonFilterD1Ev
	_ZThn8_N4inet5utils7filters39DuplicateDetectedPacketDropReasonFilterD0Ev
	_ZThn8_N4inet5utils7filters39DuplicateDetectedPacketDropReasonFilterD1Ev
	_ZThn8_N4inet5utils7filters39RetryLimitReachedPacketDropReasonFilterD0Ev
	_ZThn8_N4inet5utils7filters39RetryLimitReachedPacketDropReasonFilterD1Ev
	_ZThn8_N4inet5utils7filters40ForwardingDisabledPacketDropReasonFilterD0Ev
	_ZThn8_N4inet5utils7filters40ForwardingDisabledPacketDropReasonFilterD1Ev
	_ZThn8_N4inet5utils7filters41IncorrectlyReceivedPacketDropReasonFilterD0Ev
	_ZThn8_N4inet5utils7filters41IncorrectlyReceivedPacketDropReasonFilterD1Ev
	_ZThn8_N4inet5utils7filters45AddressResolutionFailedPacketDropReasonFilterD0Ev
	_ZThn8_N4inet5utils7filters45AddressResolutionFailedPacketDropReasonFilterD1Ev
	_ZThn8_N4inet6ospfv223Ospfv2RoutingTableEntryD0Ev
	_ZThn8_N4inet6ospfv223Ospfv2RoutingTableEntryD1Ev
	_ZThn8_N4inet6ospfv323Ospfv3RoutingTableEntryD0Ev
	_ZThn8_N4inet6ospfv323Ospfv3RoutingTableEntryD1Ev
	_ZThn8_N4inet6ospfv327Ospfv3Ipv4RoutingTableEntryD0Ev
	_ZThn8_N4inet6ospfv327Ospfv3Ipv4RoutingTableEntryD1Ev
	_ZThn8_N4inet8queueing11IPacketSinkD0Ev
	_ZThn8_N4inet8queueing11IPacketSinkD1Ev
	_ZThn8_N4inet8queueing12IPacketMeterD0Ev
	_ZThn8_N4inet8queueing12IPacketMeterD1Ev
	_ZThn8_N4inet8queueing12IPacketQueueD0Ev
	_ZThn8_N4inet8queueing12IPacketQueueD1Ev
	_ZThn8_N4inet8queueing13IPacketFilterD0Ev
	_ZThn8_N4inet8queueing13IPacketFilterD1Ev
	_ZThn8_N4inet8queueing13IPacketMarkerD0Ev
	_ZThn8_N4inet8queueing13IPacketMarkerD1Ev
	_ZThn8_N4inet8queueing13IPacketSourceD0Ev
	_ZThn8_N4inet8queueing13IPacketSourceD1Ev
	_ZThn8_N4inet8queueing15AnyPacketFilterD0Ev
	_ZThn8_N4inet8queueing15AnyPacketFilterD1Ev
	_ZThn8_N4inet8queueing17IPacketDuplicatorD0Ev
	_ZThn8_N4inet8queueing17IPacketDuplicatorD1Ev
	_ZThn8_N4inet8queueing19PacketDataSchedulerD0Ev
	_ZThn8_N4inet8queueing19PacketDataSchedulerD1Ev
	_ZThn8_N4inet8queueing20PacketDataClassifierD0Ev
	_ZThn8_N4inet8queueing20PacketDataClassifierD1Ev
	_ZThn8_N4inet8queueing20PacketDataComparatorD0Ev
	_ZThn8_N4inet8queueing20PacketDataComparatorD1Ev
	_ZThn8_N4inet8queueing21CPacketFilterFunctionD0Ev
	_ZThn8_N4inet8queueing21CPacketFilterFunctionD1Ev
	_ZThn8_N4inet8queueing22CPacketDropperFunctionD0Ev
	_ZThn8_N4inet8queueing22CPacketDropperFunctionD1Ev
	_ZThn8_N4inet8queueing24CPacketSchedulerFunctionD0Ev
	_ZThn8_N4inet8queueing24CPacketSchedulerFunctionD1Ev
	_ZThn8_N4inet8queueing25CPacketClassifierFunctionD0Ev
	_ZThn8_N4inet8queueing25CPacketClassifierFunctionD1Ev
	_ZThn8_N4inet8queueing25CPacketComparatorFunctionD0Ev
	_ZThn8_N4inet8queueing25CPacketComparatorFunctionD1Ev
	_ZThn8_N4inet8queueing27PacketUserPrioritySchedulerD0Ev
	_ZThn8_N4inet8queueing27PacketUserPrioritySchedulerD1Ev
	_ZThn8_N4inet8queueing28PacketAtCollectionEndDropperD0Ev
	_ZThn8_N4inet8queueing28PacketAtCollectionEndDropperD1Ev
	_ZThn8_N4inet8queueing28PacketCreationTimeComparatorD0Ev
	_ZThn8_N4inet8queueing28PacketCreationTimeComparatorD1Ev
	_ZThn8_N4inet8queueing28PacketUserPriorityClassifierD0Ev
	_ZThn8_N4inet8queueing28PacketUserPriorityClassifierD1Ev
	_ZThn8_N4inet8queueing30PacketAtCollectionBeginDropperD0Ev
	_ZThn8_N4inet8queueing30PacketAtCollectionBeginDropperD1Ev
	_ZThn8_N4inet8queueing32PacketCharacterOrEnterClassifierD0Ev
	_ZThn8_N4inet8queueing32PacketCharacterOrEnterClassifierD1Ev
	_ZThn8_N4inet8queueing36PacketWithLowestOwnerModuleIdDropperD0Ev
	_ZThn8_N4inet8queueing36PacketWithLowestOwnerModuleIdDropperD1Ev
	_ZThn8_N4inet8queueing37PacketWithHighestOwnerModuleIdDropperD0Ev
	_ZThn8_N4inet8queueing37PacketWithHighestOwnerModuleIdDropperD1Ev
	_ZThn8_N4inet9Ipv4Route10setNextHopERKNS_9L3AddressE
	_ZThn8_N4inet9Ipv4Route12setAdminDistEj
	_ZThn8_N4inet9Ipv4Route12setInterfaceEPNS_14InterfaceEntryE
	_ZThn8_N4inet9Ipv4Route13setSourceTypeENS_6IRoute10SourceTypeE
	_ZThn8_N4inet9Ipv4Route14setDestinationERKNS_9L3AddressE
	_ZThn8_N4inet9Ipv4Route15setPrefixLengthEi
	_ZThn8_N4inet9Ipv4Route15setProtocolDataEPN7omnetpp7cObjectE
	_ZThn8_N4inet9Ipv4Route9setMetricEi
	_ZThn8_N4inet9Ipv4Route9setSourceEPN7omnetpp7cObjectE
	_ZThn8_N4inet9Ipv4RouteD0Ev
	_ZThn8_N4inet9Ipv4RouteD1Ev
	_ZThn8_N4inet9Ipv6Route10setNextHopERKNS_9L3AddressE
	_ZThn8_N4inet9Ipv6Route12setAdminDistEj
	_ZThn8_N4inet9Ipv6Route12setInterfaceEPNS_14InterfaceEntryE
	_ZThn8_N4inet9Ipv6Route13setSourceTypeENS_6IRoute10SourceTypeE
	_ZThn8_N4inet9Ipv6Route14setDestinationERKNS_9L3AddressE
	_ZThn8_N4inet9Ipv6Route15setPrefixLengthEi
	_ZThn8_N4inet9Ipv6Route15setProtocolDataEPN7omnetpp7cObjectE
	_ZThn8_N4inet9Ipv6Route9setMetricEi
	_ZThn8_N4inet9Ipv6Route9setSourceEPN7omnetpp7cObjectE
	_ZThn8_N4inet9Ipv6RouteD0Ev
	_ZThn8_N4inet9Ipv6RouteD1Ev
	_ZThn8_N4inet9ieee8021113FragmentationD0Ev
	_ZThn8_N4inet9ieee8021113FragmentationD1Ev
	_ZThn8_N4inet9ieee8021113RateSelection10initializeEi
	_ZThn8_N4inet9ieee8021113RateSelectionD0Ev
	_ZThn8_N4inet9ieee8021113RateSelectionD1Ev
	_ZThn8_N4inet9ieee8021115BasicReassemblyD0Ev
	_ZThn8_N4inet9ieee8021115BasicReassemblyD1Ev
	_ZThn8_N4inet9ieee8021115DefragmentationD0Ev
	_ZThn8_N4inet9ieee8021115DefragmentationD1Ev
	_ZThn8_N4inet9ieee8021115MpduAggregationD0Ev
	_ZThn8_N4inet9ieee8021115MpduAggregationD1Ev
	_ZThn8_N4inet9ieee8021115MsduAggregationD0Ev
	_ZThn8_N4inet9ieee8021115MsduAggregationD1Ev
	_ZThn8_N4inet9ieee8021116QosRateSelection10initializeEi
	_ZThn8_N4inet9ieee8021116QosRateSelection13receiveSignalEPN7omnetpp10cComponentEiPNS2_7cObjectES6_
	_ZThn8_N4inet9ieee8021116QosRateSelectionD0Ev
	_ZThn8_N4inet9ieee8021116QosRateSelectionD1Ev
	_ZThn8_N4inet9ieee8021117MpduDeaggregationD0Ev
	_ZThn8_N4inet9ieee8021117MpduDeaggregationD1Ev
	_ZThn8_N4inet9ieee8021117MsduDeaggregationD0Ev
	_ZThn8_N4inet9ieee8021117MsduDeaggregationD1Ev
	_ZThn8_N4inet9ieee8021118TxopDurationFilterD0Ev
	_ZThn8_N4inet9ieee8021118TxopDurationFilterD1Ev
	_ZThn8_N4inet9ieee8021120Ieee80211RetryFilterD0Ev
	_ZThn8_N4inet9ieee8021120Ieee80211RetryFilterD1Ev
	_ZThn8_N4inet9ieee8021122Ieee80211UnicastFilterD0Ev
	_ZThn8_N4inet9ieee8021122Ieee80211UnicastFilterD1Ev
	_ZThn8_N4inet9ieee8021122MgmtOverDataClassifierD0Ev
	_ZThn8_N4inet9ieee8021122MgmtOverDataClassifierD1Ev
	_ZThn8_N4inet9ieee8021122MgmtOverDataComparatorD0Ev
	_ZThn8_N4inet9ieee8021122MgmtOverDataComparatorD1Ev
	_ZThn8_N4inet9ieee8021123EdcaCollisionController10initializeEv
	_ZThn8_N4inet9ieee8021123EdcaCollisionControllerD0Ev
	_ZThn8_N4inet9ieee8021123EdcaCollisionControllerD1Ev
	_ZThn8_N4inet9ieee8021123Ieee80211NotRetryFilterD0Ev
	_ZThn8_N4inet9ieee8021123Ieee80211NotRetryFilterD1Ev
	_ZThn8_N4inet9ieee8021124BasicFragmentationPolicy10initializeEv
	_ZThn8_N4inet9ieee8021124BasicFragmentationPolicyD0Ev
	_ZThn8_N4inet9ieee8021124BasicFragmentationPolicyD1Ev
	_ZThn8_N4inet9ieee8021124Ieee80211BroadcastFilterD0Ev
	_ZThn8_N4inet9ieee8021124Ieee80211BroadcastFilterD1Ev
	_ZThn8_N4inet9ieee8021124Ieee80211MulticastFilterD0Ev
	_ZThn8_N4inet9ieee8021124Ieee80211MulticastFilterD1Ev
	_ZThn8_N4inet9ieee8021124OriginatorMacDataService10initializeEv
	_ZThn8_N4inet9ieee8021124OriginatorMacDataServiceD0Ev
	_ZThn8_N4inet9ieee8021124OriginatorMacDataServiceD1Ev
	_ZThn8_N4inet9ieee8021126BasicMpduAggregationPolicy10initializeEv
	_ZThn8_N4inet9ieee8021126BasicMpduAggregationPolicyD0Ev
	_ZThn8_N4inet9ieee8021126BasicMpduAggregationPolicyD1Ev
	_ZThn8_N4inet9ieee8021126BasicMsduAggregationPolicy10initializeEv
	_ZThn8_N4inet9ieee8021126BasicMsduAggregationPolicyD0Ev
	_ZThn8_N4inet9ieee8021126BasicMsduAggregationPolicyD1Ev
	_ZThn8_N4inet9ieee8021126RecipientQosMacDataService10initializeEv
	_ZThn8_N4inet9ieee8021126RecipientQosMacDataServiceD0Ev
	_ZThn8_N4inet9ieee8021126RecipientQosMacDataServiceD1Ev
	_ZThn8_N4inet9ieee8021127FrameSequenceDurationFilterD0Ev
	_ZThn8_N4inet9ieee8021127FrameSequenceDurationFilterD1Ev
	_ZThn8_N4inet9ieee8021127OriginatorQosMacDataService10initializeEv
	_ZThn8_N4inet9ieee8021127OriginatorQosMacDataServiceD0Ev
	_ZThn8_N4inet9ieee8021127OriginatorQosMacDataServiceD1Ev
	_ZThn8_N4inet9ieee8021129FrameSequenceNumPacketsFilterD0Ev
	_ZThn8_N4inet9ieee8021129FrameSequenceNumPacketsFilterD1Ev
	_ZThn8_N4inet9ieee8021138MgmtOverMulticastOverUnicastClassifierD0Ev
	_ZThn8_N4inet9ieee8021138MgmtOverMulticastOverUnicastClassifierD1Ev
	_ZThn8_N4inet9ieee8021138MgmtOverMulticastOverUnicastComparatorD0Ev
	_ZThn8_N4inet9ieee8021138MgmtOverMulticastOverUnicastComparatorD1Ev
	_ZThn8_N4inet9ieee802113Dcf13transmitFrameEPNS_6PacketEN7omnetpp7SimTimeE
	_ZThn8_N4inet9ieee802113Dcf20scheduleStartRxTimerEN7omnetpp7SimTimeE
	_ZThn8_N4inet9ieee802113Dcf21frameSequenceFinishedEv
	_ZThn8_N4inet9ieee802113Dcf28originatorProcessFailedFrameEPNS_6PacketE
	_ZThn8_N4inet9ieee802113Dcf30originatorProcessReceivedFrameEPNS_6PacketES3_
	_ZThn8_N4inet9ieee802113Dcf33originatorProcessTransmittedFrameEPNS_6PacketE
	_ZThn8_N4inet9ieee802113Dcf36originatorProcessRtsProtectionFailedEPNS_6PacketE
	_ZThn8_N4inet9ieee802113DcfD0Ev
	_ZThn8_N4inet9ieee802113DcfD1Ev
	_ZThn8_N4inet9ieee802113Hcf13transmitFrameEPNS_6PacketEN7omnetpp7SimTimeE
	_ZThn8_N4inet9ieee802113Hcf20scheduleStartRxTimerEN7omnetpp7SimTimeE
	_ZThn8_N4inet9ieee802113Hcf21frameSequenceFinishedEv
	_ZThn8_N4inet9ieee802113Hcf28originatorProcessFailedFrameEPNS_6PacketE
	_ZThn8_N4inet9ieee802113Hcf30originatorProcessReceivedFrameEPNS_6PacketES3_
	_ZThn8_N4inet9ieee802113Hcf33originatorProcessTransmittedFrameEPNS_6PacketE
	_ZThn8_N4inet9ieee802113Hcf36originatorProcessRtsProtectionFailedEPNS_6PacketE
	_ZThn8_N4inet9ieee802113HcfD0Ev
	_ZThn8_N4inet9ieee802113HcfD1Ev
	_ZThn8_N4inet9ieee802113McfD0Ev
	_ZThn8_N4inet9ieee802113McfD1Ev
	_ZThn8_N4inet9ieee802113PcfD0Ev
	_ZThn8_N4inet9ieee802113PcfD1Ev
	_ZThn8_N4inet9ieee802114Dcaf20channelAccessGrantedEv
	_ZThn8_N4inet9ieee802114Dcaf21expectedChannelAccessEN7omnetpp7SimTimeE
	_ZThn8_N4inet9ieee802114Hcca10initializeEi
	_ZThn8_N4inet9ieee802114HccaD0Ev
	_ZThn8_N4inet9ieee802114HccaD1Ev
	_ZThn8_N4inet9ieee802115Edcaf20channelAccessGrantedEv
	_ZThn8_N4inet9ieee802115Edcaf21expectedChannelAccessEN7omnetpp7SimTimeE
	_ZThn8_NK4inet12NextHopRoute12getInterfaceEv
	_ZThn8_NK4inet12NextHopRoute13getSourceTypeEv
	_ZThn8_NK4inet12NextHopRoute15getPrefixLengthEv
	_ZThn8_NK4inet12NextHopRoute15getProtocolDataEv
	_ZThn8_NK4inet12NextHopRoute19getNextHopAsGenericEv
	_ZThn8_NK4inet12NextHopRoute23getDestinationAsGenericEv
	_ZThn8_NK4inet12NextHopRoute24getRoutingTableAsGenericEv
	_ZThn8_NK4inet12NextHopRoute9getMetricEv
	_ZThn8_NK4inet12NextHopRoute9getSourceEv
	_ZThn8_NK4inet13physicallayer11ApskEncoder13numInitStagesEv
	_ZThn8_NK4inet13physicallayer13ApskModulator13numInitStagesEv
	_ZThn8_NK4inet13physicallayer14IIeee80211Band13printToStreamERSoi
	_ZThn8_NK4inet13physicallayer15ApskDemodulator13numInitStagesEv
	_ZThn8_NK4inet13physicallayer15Ieee80211IrMode13printToStreamERSoi
	_ZThn8_NK4inet13physicallayer16Ieee80211ModeSet7getNameEv
	_ZThn8_NK4inet13physicallayer17Ieee80211DsssMode13printToStreamERSoi
	_ZThn8_NK4inet13physicallayer17Ieee80211FhssMode13printToStreamERSoi
	_ZThn8_NK4inet13physicallayer17Ieee80211OfdmMode13printToStreamERSoi
	_ZThn8_NK4inet13physicallayer19Ieee80211HrDsssMode13printToStreamERSoi
	_ZThn8_NK4inet13physicallayer20Ieee80211ErpOfdmMode13printToStreamERSoi
	_ZThn8_NK4inet13physicallayer21Ieee80211DsssOfdmMode13printToStreamERSoi
	_ZThn8_NK4inet13physicallayer21Ieee80211OfdmDataMode13printToStreamERSoi
	_ZThn8_NK4inet13physicallayer23Ieee80211OfdmSignalMode13printToStreamERSoi
	_ZThn8_NK4inet13physicallayer25Ieee80211OfdmPreambleMode13printToStreamERSoi
	_ZThn8_NK4inet13physicallayer26Ieee80211OfdmEncoderModule13numInitStagesEv
	_ZThn8_NK4inet13physicallayer28Ieee80211OfdmModulatorModule13numInitStagesEv
	_ZThn8_NK4inet13physicallayer30Ieee80211OfdmDemodulatorModule13numInitStagesEv
	_ZThn8_NK4inet18Ipv4MulticastRoute13getSourceTypeEv
	_ZThn8_NK4inet18Ipv4MulticastRoute15getPrefixLengthEv
	_ZThn8_NK4inet18Ipv4MulticastRoute18getOriginAsGenericEv
	_ZThn8_NK4inet18Ipv4MulticastRoute24getRoutingTableAsGenericEv
	_ZThn8_NK4inet18Ipv4MulticastRoute26getMulticastGroupAsGenericEv
	_ZThn8_NK4inet18Ipv4MulticastRoute9getMetricEv
	_ZThn8_NK4inet18Ipv4MulticastRoute9getSourceEv
	_ZThn8_NK4inet18Ipv4MulticastRoute9isEnabledEv
	_ZThn8_NK4inet18Ipv4MulticastRoute9isExpiredEv
	_ZThn8_NK4inet19physicalenvironment14BvhObjectCache13numInitStagesEv
	_ZThn8_NK4inet19physicalenvironment15GridObjectCache13numInitStagesEv
	_ZThn8_NK4inet37AckingMacToEthernetPcapRecorderHelper15matchesLinkTypeENS_12PcapLinkTypeEPKNS_8ProtocolE
	_ZThn8_NK4inet37AckingMacToEthernetPcapRecorderHelper18protocolToLinkTypeEPKNS_8ProtocolE
	_ZThn8_NK4inet37AckingMacToEthernetPcapRecorderHelper20tryConvertToLinkTypeEPKNS_6PacketENS_12PcapLinkTypeEPKNS_8ProtocolE
	_ZThn8_NK4inet8queueing21CPacketFilterFunction13matchesPacketEPNS_6PacketE
	_ZThn8_NK4inet8queueing22CPacketDropperFunction12selectPacketEPNS0_17IPacketCollectionE
	_ZThn8_NK4inet8queueing24CPacketSchedulerFunction14schedulePacketERKSt6vectorIPNS0_20IPassivePacketSourceESaIS4_EE
	_ZThn8_NK4inet8queueing25CPacketClassifierFunction14classifyPacketEPNS_6PacketE
	_ZThn8_NK4inet8queueing25CPacketComparatorFunction14comparePacketsEPNS_6PacketES3_
	_ZThn8_NK4inet9Ipv4Route12getInterfaceEv
	_ZThn8_NK4inet9Ipv4Route13getSourceTypeEv
	_ZThn8_NK4inet9Ipv4Route15getPrefixLengthEv
	_ZThn8_NK4inet9Ipv4Route15getProtocolDataEv
	_ZThn8_NK4inet9Ipv4Route19getNextHopAsGenericEv
	_ZThn8_NK4inet9Ipv4Route23getDestinationAsGenericEv
	_ZThn8_NK4inet9Ipv4Route24getRoutingTableAsGenericEv
	_ZThn8_NK4inet9Ipv4Route9getMetricEv
	_ZThn8_NK4inet9Ipv4Route9getSourceEv
	_ZThn8_NK4inet9Ipv6Route12getInterfaceEv
	_ZThn8_NK4inet9Ipv6Route13getSourceTypeEv
	_ZThn8_NK4inet9Ipv6Route15getPrefixLengthEv
	_ZThn8_NK4inet9Ipv6Route15getProtocolDataEv
	_ZThn8_NK4inet9Ipv6Route19getNextHopAsGenericEv
	_ZThn8_NK4inet9Ipv6Route23getDestinationAsGenericEv
	_ZThn8_NK4inet9Ipv6Route24getRoutingTableAsGenericEv
	_ZThn8_NK4inet9Ipv6Route9getMetricEv
	_ZThn8_NK4inet9Ipv6Route9getSourceEv
	_ZThn8_NK4inet9ieee8021113RateSelection13numInitStagesEv
	_ZThn8_NK4inet9ieee8021116QosRateSelection13numInitStagesEv
	_ZThn8_NK4inet9ieee8021123EdcaCollisionController13numInitStagesEv
	_ZThn8_NK4inet9ieee802113Mcf13numInitStagesEv
	_ZThn8_NK4inet9ieee802113Pcf13numInitStagesEv
	_ZThn8_NK4inet9ieee802114Hcca13numInitStagesEv
